C000  4C F5 C5  JMP $C5F5                       A:00 X:00 Y:00 P:24 SP:FD PPU:  0,  0,CYC:    0
C5F5  A2 00     LDX #$00                        A:00 X:00 Y:00 P:24 SP:FD PPU:  5, 15,CYC:    5
C5F7  86 00     STX $00 = 00                    A:00 X:00 Y:00 P:26 SP:FD PPU:  7, 21,CYC:    7
C5F9  86 10     STX $10 = 00                    A:00 X:00 Y:00 P:26 SP:FD PPU: 10, 30,CYC:   10
C5FB  86 11     STX $11 = 00                    A:00 X:00 Y:00 P:26 SP:FD PPU: 13, 39,CYC:   13
C5FD  20 2D C7  JSR $C72D                       A:00 X:00 Y:00 P:26 SP:FD PPU: 16, 48,CYC:   16
C72D  EA        NOP                             A:00 X:00 Y:00 P:26 SP:FB PPU: 22, 66,CYC:   22
C72E  38        SEC                             A:00 X:00 Y:00 P:26 SP:FB PPU: 24, 72,CYC:   24
C72F  B0 04     BCS $C735                       A:00 X:00 Y:00 P:27 SP:FB PPU: 26, 78,CYC:   26
C735  EA        NOP                             A:00 X:00 Y:00 P:27 SP:FB PPU: 29, 87,CYC:   29
C736  18        CLC                             A:00 X:00 Y:00 P:27 SP:FB PPU: 31, 93,CYC:   31
C737  B0 03     BCS $C73C                       A:00 X:00 Y:00 P:26 SP:FB PPU: 33, 99,CYC:   33
C739  4C 40 C7  JMP $C740                       A:00 X:00 Y:00 P:26 SP:FB PPU: 35,105,CYC:   35
C740  EA        NOP                             A:00 X:00 Y:00 P:26 SP:FB PPU: 38,114,CYC:   38
C741  38        SEC                             A:00 X:00 Y:00 P:26 SP:FB PPU: 40,120,CYC:   40
C742  90 03     BCC $C747                       A:00 X:00 Y:00 P:27 SP:FB PPU: 42,126,CYC:   42
C744  4C 4B C7  JMP $C74B                       A:00 X:00 Y:00 P:27 SP:FB PPU: 44,132,CYC:   44
C74B  EA        NOP                             A:00 X:00 Y:00 P:27 SP:FB PPU: 47,141,CYC:   47
C74C  18        CLC                             A:00 X:00 Y:00 P:27 SP:FB PPU: 49,147,CYC:   49
C74D  90 04     BCC $C753                       A:00 X:00 Y:00 P:26 SP:FB PPU: 51,153,CYC:   51
C753  EA        NOP                             A:00 X:00 Y:00 P:26 SP:FB PPU: 54,162,CYC:   54
C754  A9 00     LDA #$00                        A:00 X:00 Y:00 P:26 SP:FB PPU: 56,168,CYC:   56
C756  F0 04     BEQ $C75C                       A:00 X:00 Y:00 P:26 SP:FB PPU: 58,174,CYC:   58
C75C  EA        NOP                             A:00 X:00 Y:00 P:26 SP:FB PPU: 61,183,CYC:   61
C75D  A9 40     LDA #$40                        A:00 X:00 Y:00 P:26 SP:FB PPU: 63,189,CYC:   63
C75F  F0 03     BEQ $C764                       A:40 X:00 Y:00 P:24 SP:FB PPU: 65,195,CYC:   65
C761  4C 68 C7  JMP $C768                       A:40 X:00 Y:00 P:24 SP:FB PPU: 67,201,CYC:   67
C768  EA        NOP                             A:40 X:00 Y:00 P:24 SP:FB PPU: 70,210,CYC:   70
C769  A9 40     LDA #$40                        A:40 X:00 Y:00 P:24 SP:FB PPU: 72,216,CYC:   72
C76B  D0 04     BNE $C771                       A:40 X:00 Y:00 P:24 SP:FB PPU: 74,222,CYC:   74
C771  EA        NOP                             A:40 X:00 Y:00 P:24 SP:FB PPU: 77,231,CYC:   77
C772  A9 00     LDA #$00                        A:40 X:00 Y:00 P:24 SP:FB PPU: 79,237,CYC:   79
C774  D0 03     BNE $C779                       A:00 X:00 Y:00 P:26 SP:FB PPU: 81,243,CYC:   81
C776  4C 7D C7  JMP $C77D                       A:00 X:00 Y:00 P:26 SP:FB PPU: 83,249,CYC:   83
C77D  EA        NOP                             A:00 X:00 Y:00 P:26 SP:FB PPU: 86,258,CYC:   86
C77E  A9 FF     LDA #$FF                        A:00 X:00 Y:00 P:26 SP:FB PPU: 88,264,CYC:   88
C780  85 01     STA $01 = 00                    A:FF X:00 Y:00 P:A4 SP:FB PPU: 90,270,CYC:   90
C782  24 01     BIT $01 = FF                    A:FF X:00 Y:00 P:A4 SP:FB PPU: 93,279,CYC:   93
C784  70 04     BVS $C78A                       A:FF X:00 Y:00 P:E4 SP:FB PPU: 96,288,CYC:   96
C78A  EA        NOP                             A:FF X:00 Y:00 P:E4 SP:FB PPU: 99,297,CYC:   99
C78B  24 01     BIT $01 = FF                    A:FF X:00 Y:00 P:E4 SP:FB PPU:101,303,CYC:  101
C78D  50 03     BVC $C792                       A:FF X:00 Y:00 P:E4 SP:FB PPU:104,312,CYC:  104
C78F  4C 96 C7  JMP $C796                       A:FF X:00 Y:00 P:E4 SP:FB PPU:106,318,CYC:  106
C796  EA        NOP                             A:FF X:00 Y:00 P:E4 SP:FB PPU:109,327,CYC:  109
C797  A9 00     LDA #$00                        A:FF X:00 Y:00 P:E4 SP:FB PPU:111,333,CYC:  111
C799  85 01     STA $01 = FF                    A:00 X:00 Y:00 P:66 SP:FB PPU:113,339,CYC:  113
C79B  24 01     BIT $01 = 00                    A:00 X:00 Y:00 P:66 SP:FB PPU:116,348,CYC:  116
C79D  50 04     BVC $C7A3                       A:00 X:00 Y:00 P:26 SP:FB PPU:119,357,CYC:  119
C7A3  EA        NOP                             A:00 X:00 Y:00 P:26 SP:FB PPU:122,366,CYC:  122
C7A4  24 01     BIT $01 = 00                    A:00 X:00 Y:00 P:26 SP:FB PPU:124,372,CYC:  124
C7A6  70 03     BVS $C7AB                       A:00 X:00 Y:00 P:26 SP:FB PPU:127,381,CYC:  127
C7A8  4C AF C7  JMP $C7AF                       A:00 X:00 Y:00 P:26 SP:FB PPU:129,387,CYC:  129
C7AF  EA        NOP                             A:00 X:00 Y:00 P:26 SP:FB PPU:132,396,CYC:  132
C7B0  A9 00     LDA #$00                        A:00 X:00 Y:00 P:26 SP:FB PPU:134,402,CYC:  134
C7B2  10 04     BPL $C7B8                       A:00 X:00 Y:00 P:26 SP:FB PPU:136,408,CYC:  136
C7B8  EA        NOP                             A:00 X:00 Y:00 P:26 SP:FB PPU:139,417,CYC:  139
C7B9  A9 80     LDA #$80                        A:00 X:00 Y:00 P:26 SP:FB PPU:141,423,CYC:  141
C7BB  10 03     BPL $C7C0                       A:80 X:00 Y:00 P:A4 SP:FB PPU:143,429,CYC:  143
C7BD  4C D9 C7  JMP $C7D9                       A:80 X:00 Y:00 P:A4 SP:FB PPU:145,435,CYC:  145
C7D9  EA        NOP                             A:80 X:00 Y:00 P:A4 SP:FB PPU:148,444,CYC:  148
C7DA  60        RTS                             A:80 X:00 Y:00 P:A4 SP:FB PPU:150,450,CYC:  150
C600  20 DB C7  JSR $C7DB                       A:80 X:00 Y:00 P:A4 SP:FD PPU:156,468,CYC:  156
C7DB  EA        NOP                             A:80 X:00 Y:00 P:A4 SP:FB PPU:162,486,CYC:  162
C7DC  A9 FF     LDA #$FF                        A:80 X:00 Y:00 P:A4 SP:FB PPU:164,492,CYC:  164
C7DE  85 01     STA $01 = 00                    A:FF X:00 Y:00 P:A4 SP:FB PPU:166,498,CYC:  166
C7E0  24 01     BIT $01 = FF                    A:FF X:00 Y:00 P:A4 SP:FB PPU:169,507,CYC:  169
C7E2  A9 00     LDA #$00                        A:FF X:00 Y:00 P:E4 SP:FB PPU:172,516,CYC:  172
C7E4  38        SEC                             A:00 X:00 Y:00 P:66 SP:FB PPU:174,522,CYC:  174
C7E5  78        SEI                             A:00 X:00 Y:00 P:67 SP:FB PPU:176,528,CYC:  176
C7E6  F8        SED                             A:00 X:00 Y:00 P:67 SP:FB PPU:178,534,CYC:  178
C7E7  08        PHP                             A:00 X:00 Y:00 P:6F SP:FB PPU:180,540,CYC:  180
C7E8  68        PLA                             A:00 X:00 Y:00 P:6F SP:FA PPU:183,549,CYC:  183
C7E9  29 EF     AND #$EF                        A:7F X:00 Y:00 P:6D SP:FB PPU:187,561,CYC:  187
C7EB  C9 6F     CMP #$6F                        A:6F X:00 Y:00 P:6D SP:FB PPU:189,567,CYC:  189
C7ED  F0 04     BEQ $C7F3                       A:6F X:00 Y:00 P:6F SP:FB PPU:191,573,CYC:  191
C7F3  EA        NOP                             A:6F X:00 Y:00 P:6F SP:FB PPU:194,582,CYC:  194
C7F4  A9 40     LDA #$40                        A:6F X:00 Y:00 P:6F SP:FB PPU:196,588,CYC:  196
C7F6  85 01     STA $01 = FF                    A:40 X:00 Y:00 P:6D SP:FB PPU:198,594,CYC:  198
C7F8  24 01     BIT $01 = 40                    A:40 X:00 Y:00 P:6D SP:FB PPU:201,603,CYC:  201
C7FA  D8        CLD                             A:40 X:00 Y:00 P:6D SP:FB PPU:204,612,CYC:  204
C7FB  A9 10     LDA #$10                        A:40 X:00 Y:00 P:65 SP:FB PPU:206,618,CYC:  206
C7FD  18        CLC                             A:10 X:00 Y:00 P:65 SP:FB PPU:208,624,CYC:  208
C7FE  08        PHP                             A:10 X:00 Y:00 P:64 SP:FB PPU:210,630,CYC:  210
C7FF  68        PLA                             A:10 X:00 Y:00 P:64 SP:FA PPU:213,639,CYC:  213
C800  29 EF     AND #$EF                        A:74 X:00 Y:00 P:64 SP:FB PPU:217,651,CYC:  217
C802  C9 64     CMP #$64                        A:64 X:00 Y:00 P:64 SP:FB PPU:219,657,CYC:  219
C804  F0 04     BEQ $C80A                       A:64 X:00 Y:00 P:67 SP:FB PPU:221,663,CYC:  221
C80A  EA        NOP                             A:64 X:00 Y:00 P:67 SP:FB PPU:224,672,CYC:  224
C80B  A9 80     LDA #$80                        A:64 X:00 Y:00 P:67 SP:FB PPU:226,678,CYC:  226
C80D  85 01     STA $01 = 40                    A:80 X:00 Y:00 P:E5 SP:FB PPU:228,684,CYC:  228
C80F  24 01     BIT $01 = 80                    A:80 X:00 Y:00 P:E5 SP:FB PPU:231,693,CYC:  231
C811  F8        SED                             A:80 X:00 Y:00 P:A5 SP:FB PPU:234,702,CYC:  234
C812  A9 00     LDA #$00                        A:80 X:00 Y:00 P:AD SP:FB PPU:236,708,CYC:  236
C814  38        SEC                             A:00 X:00 Y:00 P:2F SP:FB PPU:238,714,CYC:  238
C815  08        PHP                             A:00 X:00 Y:00 P:2F SP:FB PPU:240,720,CYC:  240
C816  68        PLA                             A:00 X:00 Y:00 P:2F SP:FA PPU:243,729,CYC:  243
C817  29 EF     AND #$EF                        A:3F X:00 Y:00 P:2D SP:FB PPU:247,741,CYC:  247
C819  C9 2F     CMP #$2F                        A:2F X:00 Y:00 P:2D SP:FB PPU:249,747,CYC:  249
C81B  F0 04     BEQ $C821                       A:2F X:00 Y:00 P:2F SP:FB PPU:251,753,CYC:  251
C821  EA        NOP                             A:2F X:00 Y:00 P:2F SP:FB PPU:254,762,CYC:  254
C822  A9 FF     LDA #$FF                        A:2F X:00 Y:00 P:2F SP:FB PPU:256,768,CYC:  256
C824  48        PHA                             A:FF X:00 Y:00 P:AD SP:FB PPU:258,774,CYC:  258
C825  28        PLP                             A:FF X:00 Y:00 P:AD SP:FA PPU:261,783,CYC:  261
C826  D0 09     BNE $C831                       A:FF X:00 Y:00 P:EF SP:FB PPU:265,795,CYC:  265
C828  10 07     BPL $C831                       A:FF X:00 Y:00 P:EF SP:FB PPU:267,801,CYC:  267
C82A  50 05     BVC $C831                       A:FF X:00 Y:00 P:EF SP:FB PPU:269,807,CYC:  269
C82C  90 03     BCC $C831                       A:FF X:00 Y:00 P:EF SP:FB PPU:271,813,CYC:  271
C82E  4C 35 C8  JMP $C835                       A:FF X:00 Y:00 P:EF SP:FB PPU:273,819,CYC:  273
C835  EA        NOP                             A:FF X:00 Y:00 P:EF SP:FB PPU:276,828,CYC:  276
C836  A9 04     LDA #$04                        A:FF X:00 Y:00 P:EF SP:FB PPU:278,834,CYC:  278
C838  48        PHA                             A:04 X:00 Y:00 P:6D SP:FB PPU:280,840,CYC:  280
C839  28        PLP                             A:04 X:00 Y:00 P:6D SP:FA PPU:283,849,CYC:  283
C83A  F0 09     BEQ $C845                       A:04 X:00 Y:00 P:24 SP:FB PPU:287,861,CYC:  287
C83C  30 07     BMI $C845                       A:04 X:00 Y:00 P:24 SP:FB PPU:289,867,CYC:  289
C83E  70 05     BVS $C845                       A:04 X:00 Y:00 P:24 SP:FB PPU:291,873,CYC:  291
C840  B0 03     BCS $C845                       A:04 X:00 Y:00 P:24 SP:FB PPU:293,879,CYC:  293
C842  4C 49 C8  JMP $C849                       A:04 X:00 Y:00 P:24 SP:FB PPU:295,885,CYC:  295
C849  EA        NOP                             A:04 X:00 Y:00 P:24 SP:FB PPU:298,894,CYC:  298
C84A  F8        SED                             A:04 X:00 Y:00 P:24 SP:FB PPU:300,900,CYC:  300
C84B  A9 FF     LDA #$FF                        A:04 X:00 Y:00 P:2C SP:FB PPU:302,906,CYC:  302
C84D  85 01     STA $01 = 80                    A:FF X:00 Y:00 P:AC SP:FB PPU:304,912,CYC:  304
C84F  24 01     BIT $01 = FF                    A:FF X:00 Y:00 P:AC SP:FB PPU:307,921,CYC:  307
C851  18        CLC                             A:FF X:00 Y:00 P:EC SP:FB PPU:310,930,CYC:  310
C852  A9 00     LDA #$00                        A:FF X:00 Y:00 P:EC SP:FB PPU:312,936,CYC:  312
C854  48        PHA                             A:00 X:00 Y:00 P:6E SP:FB PPU:314,942,CYC:  314
C855  A9 FF     LDA #$FF                        A:00 X:00 Y:00 P:6E SP:FA PPU:317,951,CYC:  317
C857  68        PLA                             A:FF X:00 Y:00 P:EC SP:FA PPU:319,957,CYC:  319
C858  D0 09     BNE $C863                       A:00 X:00 Y:00 P:6E SP:FB PPU:323,969,CYC:  323
C85A  30 07     BMI $C863                       A:00 X:00 Y:00 P:6E SP:FB PPU:325,975,CYC:  325
C85C  50 05     BVC $C863                       A:00 X:00 Y:00 P:6E SP:FB PPU:327,981,CYC:  327
C85E  B0 03     BCS $C863                       A:00 X:00 Y:00 P:6E SP:FB PPU:329,987,CYC:  329
C860  4C 67 C8  JMP $C867                       A:00 X:00 Y:00 P:6E SP:FB PPU:331,993,CYC:  331
C867  EA        NOP                             A:00 X:00 Y:00 P:6E SP:FB PPU:334,1002,CYC:  334
C868  A9 00     LDA #$00                        A:00 X:00 Y:00 P:6E SP:FB PPU:336,1008,CYC:  336
C86A  85 01     STA $01 = FF                    A:00 X:00 Y:00 P:6E SP:FB PPU:338,1014,CYC:  338
C86C  24 01     BIT $01 = 00                    A:00 X:00 Y:00 P:6E SP:FB PPU:341,1023,CYC:  341
C86E  38        SEC                             A:00 X:00 Y:00 P:2E SP:FB PPU:344,1032,CYC:  344
C86F  A9 FF     LDA #$FF                        A:00 X:00 Y:00 P:2F SP:FB PPU:346,1038,CYC:  346
C871  48        PHA                             A:FF X:00 Y:00 P:AD SP:FB PPU:348,1044,CYC:  348
C872  A9 00     LDA #$00                        A:FF X:00 Y:00 P:AD SP:FA PPU:351,1053,CYC:  351
C874  68        PLA                             A:00 X:00 Y:00 P:2F SP:FA PPU:353,1059,CYC:  353
C875  F0 09     BEQ $C880                       A:FF X:00 Y:00 P:AD SP:FB PPU:357,1071,CYC:  357
C877  10 07     BPL $C880                       A:FF X:00 Y:00 P:AD SP:FB PPU:359,1077,CYC:  359
C879  70 05     BVS $C880                       A:FF X:00 Y:00 P:AD SP:FB PPU:361,1083,CYC:  361
C87B  90 03     BCC $C880                       A:FF X:00 Y:00 P:AD SP:FB PPU:363,1089,CYC:  363
C87D  4C 84 C8  JMP $C884                       A:FF X:00 Y:00 P:AD SP:FB PPU:365,1095,CYC:  365
C884  60        RTS                             A:FF X:00 Y:00 P:AD SP:FB PPU:368,1104,CYC:  368
C603  20 85 C8  JSR $C885                       A:FF X:00 Y:00 P:AD SP:FD PPU:374,1122,CYC:  374
C885  EA        NOP                             A:FF X:00 Y:00 P:AD SP:FB PPU:380,1140,CYC:  380
C886  18        CLC                             A:FF X:00 Y:00 P:AD SP:FB PPU:382,1146,CYC:  382
C887  A9 FF     LDA #$FF                        A:FF X:00 Y:00 P:AC SP:FB PPU:384,1152,CYC:  384
C889  85 01     STA $01 = 00                    A:FF X:00 Y:00 P:AC SP:FB PPU:386,1158,CYC:  386
C88B  24 01     BIT $01 = FF                    A:FF X:00 Y:00 P:AC SP:FB PPU:389,1167,CYC:  389
C88D  A9 55     LDA #$55                        A:FF X:00 Y:00 P:EC SP:FB PPU:392,1176,CYC:  392
C88F  09 AA     ORA #$AA                        A:55 X:00 Y:00 P:6C SP:FB PPU:394,1182,CYC:  394
C891  B0 0B     BCS $C89E                       A:FF X:00 Y:00 P:EC SP:FB PPU:396,1188,CYC:  396
C893  10 09     BPL $C89E                       A:FF X:00 Y:00 P:EC SP:FB PPU:398,1194,CYC:  398
C895  C9 FF     CMP #$FF                        A:FF X:00 Y:00 P:EC SP:FB PPU:400,1200,CYC:  400
C897  D0 05     BNE $C89E                       A:FF X:00 Y:00 P:6F SP:FB PPU:402,1206,CYC:  402
C899  50 03     BVC $C89E                       A:FF X:00 Y:00 P:6F SP:FB PPU:404,1212,CYC:  404
C89B  4C A2 C8  JMP $C8A2                       A:FF X:00 Y:00 P:6F SP:FB PPU:406,1218,CYC:  406
C8A2  EA        NOP                             A:FF X:00 Y:00 P:6F SP:FB PPU:409,1227,CYC:  409
C8A3  38        SEC                             A:FF X:00 Y:00 P:6F SP:FB PPU:411,1233,CYC:  411
C8A4  B8        CLV                             A:FF X:00 Y:00 P:6F SP:FB PPU:413,1239,CYC:  413
C8A5  A9 00     LDA #$00                        A:FF X:00 Y:00 P:2F SP:FB PPU:415,1245,CYC:  415
C8A7  09 00     ORA #$00                        A:00 X:00 Y:00 P:2F SP:FB PPU:417,1251,CYC:  417
C8A9  D0 09     BNE $C8B4                       A:00 X:00 Y:00 P:2F SP:FB PPU:419,1257,CYC:  419
C8AB  70 07     BVS $C8B4                       A:00 X:00 Y:00 P:2F SP:FB PPU:421,1263,CYC:  421
C8AD  90 05     BCC $C8B4                       A:00 X:00 Y:00 P:2F SP:FB PPU:423,1269,CYC:  423
C8AF  30 03     BMI $C8B4                       A:00 X:00 Y:00 P:2F SP:FB PPU:425,1275,CYC:  425
C8B1  4C B8 C8  JMP $C8B8                       A:00 X:00 Y:00 P:2F SP:FB PPU:427,1281,CYC:  427
C8B8  EA        NOP                             A:00 X:00 Y:00 P:2F SP:FB PPU:430,1290,CYC:  430
C8B9  18        CLC                             A:00 X:00 Y:00 P:2F SP:FB PPU:432,1296,CYC:  432
C8BA  24 01     BIT $01 = FF                    A:00 X:00 Y:00 P:2E SP:FB PPU:434,1302,CYC:  434
C8BC  A9 55     LDA #$55                        A:00 X:00 Y:00 P:EE SP:FB PPU:437,1311,CYC:  437
C8BE  29 AA     AND #$AA                        A:55 X:00 Y:00 P:6C SP:FB PPU:439,1317,CYC:  439
C8C0  D0 09     BNE $C8CB                       A:00 X:00 Y:00 P:6E SP:FB PPU:441,1323,CYC:  441
C8C2  50 07     BVC $C8CB                       A:00 X:00 Y:00 P:6E SP:FB PPU:443,1329,CYC:  443
C8C4  B0 05     BCS $C8CB                       A:00 X:00 Y:00 P:6E SP:FB PPU:445,1335,CYC:  445
C8C6  30 03     BMI $C8CB                       A:00 X:00 Y:00 P:6E SP:FB PPU:447,1341,CYC:  447
C8C8  4C CF C8  JMP $C8CF                       A:00 X:00 Y:00 P:6E SP:FB PPU:449,1347,CYC:  449
C8CF  EA        NOP                             A:00 X:00 Y:00 P:6E SP:FB PPU:452,1356,CYC:  452
C8D0  38        SEC                             A:00 X:00 Y:00 P:6E SP:FB PPU:454,1362,CYC:  454
C8D1  B8        CLV                             A:00 X:00 Y:00 P:6F SP:FB PPU:456,1368,CYC:  456
C8D2  A9 F8     LDA #$F8                        A:00 X:00 Y:00 P:2F SP:FB PPU:458,1374,CYC:  458
C8D4  29 EF     AND #$EF                        A:F8 X:00 Y:00 P:AD SP:FB PPU:460,1380,CYC:  460
C8D6  90 0B     BCC $C8E3                       A:E8 X:00 Y:00 P:AD SP:FB PPU:462,1386,CYC:  462
C8D8  10 09     BPL $C8E3                       A:E8 X:00 Y:00 P:AD SP:FB PPU:464,1392,CYC:  464
C8DA  C9 E8     CMP #$E8                        A:E8 X:00 Y:00 P:AD SP:FB PPU:466,1398,CYC:  466
C8DC  D0 05     BNE $C8E3                       A:E8 X:00 Y:00 P:2F SP:FB PPU:468,1404,CYC:  468
C8DE  70 03     BVS $C8E3                       A:E8 X:00 Y:00 P:2F SP:FB PPU:470,1410,CYC:  470
C8E0  4C E7 C8  JMP $C8E7                       A:E8 X:00 Y:00 P:2F SP:FB PPU:472,1416,CYC:  472
C8E7  EA        NOP                             A:E8 X:00 Y:00 P:2F SP:FB PPU:475,1425,CYC:  475
C8E8  18        CLC                             A:E8 X:00 Y:00 P:2F SP:FB PPU:477,1431,CYC:  477
C8E9  24 01     BIT $01 = FF                    A:E8 X:00 Y:00 P:2E SP:FB PPU:479,1437,CYC:  479
C8EB  A9 5F     LDA #$5F                        A:E8 X:00 Y:00 P:EC SP:FB PPU:482,1446,CYC:  482
C8ED  49 AA     EOR #$AA                        A:5F X:00 Y:00 P:6C SP:FB PPU:484,1452,CYC:  484
C8EF  B0 0B     BCS $C8FC                       A:F5 X:00 Y:00 P:EC SP:FB PPU:486,1458,CYC:  486
C8F1  10 09     BPL $C8FC                       A:F5 X:00 Y:00 P:EC SP:FB PPU:488,1464,CYC:  488
C8F3  C9 F5     CMP #$F5                        A:F5 X:00 Y:00 P:EC SP:FB PPU:490,1470,CYC:  490
C8F5  D0 05     BNE $C8FC                       A:F5 X:00 Y:00 P:6F SP:FB PPU:492,1476,CYC:  492
C8F7  50 03     BVC $C8FC                       A:F5 X:00 Y:00 P:6F SP:FB PPU:494,1482,CYC:  494
C8F9  4C 00 C9  JMP $C900                       A:F5 X:00 Y:00 P:6F SP:FB PPU:496,1488,CYC:  496
C900  EA        NOP                             A:F5 X:00 Y:00 P:6F SP:FB PPU:501,1503,CYC:  501
C901  38        SEC                             A:F5 X:00 Y:00 P:6F SP:FB PPU:503,1509,CYC:  503
C902  B8        CLV                             A:F5 X:00 Y:00 P:6F SP:FB PPU:505,1515,CYC:  505
C903  A9 70     LDA #$70                        A:F5 X:00 Y:00 P:2F SP:FB PPU:507,1521,CYC:  507
C905  49 70     EOR #$70                        A:70 X:00 Y:00 P:2D SP:FB PPU:509,1527,CYC:  509
C907  D0 09     BNE $C912                       A:00 X:00 Y:00 P:2F SP:FB PPU:511,1533,CYC:  511
C909  70 07     BVS $C912                       A:00 X:00 Y:00 P:2F SP:FB PPU:513,1539,CYC:  513
C90B  90 05     BCC $C912                       A:00 X:00 Y:00 P:2F SP:FB PPU:515,1545,CYC:  515
C90D  30 03     BMI $C912                       A:00 X:00 Y:00 P:2F SP:FB PPU:517,1551,CYC:  517
C90F  4C 16 C9  JMP $C916                       A:00 X:00 Y:00 P:2F SP:FB PPU:519,1557,CYC:  519
C916  EA        NOP                             A:00 X:00 Y:00 P:2F SP:FB PPU:522,1566,CYC:  522
C917  18        CLC                             A:00 X:00 Y:00 P:2F SP:FB PPU:524,1572,CYC:  524
C918  24 01     BIT $01 = FF                    A:00 X:00 Y:00 P:2E SP:FB PPU:526,1578,CYC:  526
C91A  A9 00     LDA #$00                        A:00 X:00 Y:00 P:EE SP:FB PPU:529,1587,CYC:  529
C91C  69 69     ADC #$69                        A:00 X:00 Y:00 P:6E SP:FB PPU:531,1593,CYC:  531
C91E  30 0B     BMI $C92B                       A:69 X:00 Y:00 P:2C SP:FB PPU:533,1599,CYC:  533
C920  B0 09     BCS $C92B                       A:69 X:00 Y:00 P:2C SP:FB PPU:535,1605,CYC:  535
C922  C9 69     CMP #$69                        A:69 X:00 Y:00 P:2C SP:FB PPU:537,1611,CYC:  537
C924  D0 05     BNE $C92B                       A:69 X:00 Y:00 P:2F SP:FB PPU:539,1617,CYC:  539
C926  70 03     BVS $C92B                       A:69 X:00 Y:00 P:2F SP:FB PPU:541,1623,CYC:  541
C928  4C 2F C9  JMP $C92F                       A:69 X:00 Y:00 P:2F SP:FB PPU:543,1629,CYC:  543
C92F  EA        NOP                             A:69 X:00 Y:00 P:2F SP:FB PPU:546,1638,CYC:  546
C930  38        SEC                             A:69 X:00 Y:00 P:2F SP:FB PPU:548,1644,CYC:  548
C931  F8        SED                             A:69 X:00 Y:00 P:2F SP:FB PPU:550,1650,CYC:  550
C932  24 01     BIT $01 = FF                    A:69 X:00 Y:00 P:2F SP:FB PPU:552,1656,CYC:  552
C934  A9 01     LDA #$01                        A:69 X:00 Y:00 P:ED SP:FB PPU:555,1665,CYC:  555
C936  69 69     ADC #$69                        A:01 X:00 Y:00 P:6D SP:FB PPU:557,1671,CYC:  557
C938  30 0B     BMI $C945                       A:6B X:00 Y:00 P:2C SP:FB PPU:559,1677,CYC:  559
C93A  B0 09     BCS $C945                       A:6B X:00 Y:00 P:2C SP:FB PPU:561,1683,CYC:  561
C93C  C9 6B     CMP #$6B                        A:6B X:00 Y:00 P:2C SP:FB PPU:563,1689,CYC:  563
C93E  D0 05     BNE $C945                       A:6B X:00 Y:00 P:2F SP:FB PPU:565,1695,CYC:  565
C940  70 03     BVS $C945                       A:6B X:00 Y:00 P:2F SP:FB PPU:567,1701,CYC:  567
C942  4C 49 C9  JMP $C949                       A:6B X:00 Y:00 P:2F SP:FB PPU:569,1707,CYC:  569
C949  EA        NOP                             A:6B X:00 Y:00 P:2F SP:FB PPU:572,1716,CYC:  572
C94A  D8        CLD                             A:6B X:00 Y:00 P:2F SP:FB PPU:574,1722,CYC:  574
C94B  38        SEC                             A:6B X:00 Y:00 P:27 SP:FB PPU:576,1728,CYC:  576
C94C  B8        CLV                             A:6B X:00 Y:00 P:27 SP:FB PPU:578,1734,CYC:  578
C94D  A9 7F     LDA #$7F                        A:6B X:00 Y:00 P:27 SP:FB PPU:580,1740,CYC:  580
C94F  69 7F     ADC #$7F                        A:7F X:00 Y:00 P:25 SP:FB PPU:582,1746,CYC:  582
C951  10 0B     BPL $C95E                       A:FF X:00 Y:00 P:E4 SP:FB PPU:584,1752,CYC:  584
C953  B0 09     BCS $C95E                       A:FF X:00 Y:00 P:E4 SP:FB PPU:586,1758,CYC:  586
C955  C9 FF     CMP #$FF                        A:FF X:00 Y:00 P:E4 SP:FB PPU:588,1764,CYC:  588
C957  D0 05     BNE $C95E                       A:FF X:00 Y:00 P:67 SP:FB PPU:590,1770,CYC:  590
C959  50 03     BVC $C95E                       A:FF X:00 Y:00 P:67 SP:FB PPU:592,1776,CYC:  592
C95B  4C 62 C9  JMP $C962                       A:FF X:00 Y:00 P:67 SP:FB PPU:594,1782,CYC:  594
C962  EA        NOP                             A:FF X:00 Y:00 P:67 SP:FB PPU:597,1791,CYC:  597
C963  18        CLC                             A:FF X:00 Y:00 P:67 SP:FB PPU:599,1797,CYC:  599
C964  24 01     BIT $01 = FF                    A:FF X:00 Y:00 P:66 SP:FB PPU:601,1803,CYC:  601
C966  A9 7F     LDA #$7F                        A:FF X:00 Y:00 P:E4 SP:FB PPU:604,1812,CYC:  604
C968  69 80     ADC #$80                        A:7F X:00 Y:00 P:64 SP:FB PPU:606,1818,CYC:  606
C96A  10 0B     BPL $C977                       A:FF X:00 Y:00 P:A4 SP:FB PPU:608,1824,CYC:  608
C96C  B0 09     BCS $C977                       A:FF X:00 Y:00 P:A4 SP:FB PPU:610,1830,CYC:  610
C96E  C9 FF     CMP #$FF                        A:FF X:00 Y:00 P:A4 SP:FB PPU:612,1836,CYC:  612
C970  D0 05     BNE $C977                       A:FF X:00 Y:00 P:27 SP:FB PPU:614,1842,CYC:  614
C972  70 03     BVS $C977                       A:FF X:00 Y:00 P:27 SP:FB PPU:616,1848,CYC:  616
C974  4C 7B C9  JMP $C97B                       A:FF X:00 Y:00 P:27 SP:FB PPU:618,1854,CYC:  618
C97B  EA        NOP                             A:FF X:00 Y:00 P:27 SP:FB PPU:621,1863,CYC:  621
C97C  38        SEC                             A:FF X:00 Y:00 P:27 SP:FB PPU:623,1869,CYC:  623
C97D  B8        CLV                             A:FF X:00 Y:00 P:27 SP:FB PPU:625,1875,CYC:  625
C97E  A9 7F     LDA #$7F                        A:FF X:00 Y:00 P:27 SP:FB PPU:627,1881,CYC:  627
C980  69 80     ADC #$80                        A:7F X:00 Y:00 P:25 SP:FB PPU:629,1887,CYC:  629
C982  D0 09     BNE $C98D                       A:00 X:00 Y:00 P:27 SP:FB PPU:631,1893,CYC:  631
C984  30 07     BMI $C98D                       A:00 X:00 Y:00 P:27 SP:FB PPU:633,1899,CYC:  633
C986  70 05     BVS $C98D                       A:00 X:00 Y:00 P:27 SP:FB PPU:635,1905,CYC:  635
C988  90 03     BCC $C98D                       A:00 X:00 Y:00 P:27 SP:FB PPU:637,1911,CYC:  637
C98A  4C 91 C9  JMP $C991                       A:00 X:00 Y:00 P:27 SP:FB PPU:639,1917,CYC:  639
C991  EA        NOP                             A:00 X:00 Y:00 P:27 SP:FB PPU:642,1926,CYC:  642
C992  38        SEC                             A:00 X:00 Y:00 P:27 SP:FB PPU:644,1932,CYC:  644
C993  B8        CLV                             A:00 X:00 Y:00 P:27 SP:FB PPU:646,1938,CYC:  646
C994  A9 9F     LDA #$9F                        A:00 X:00 Y:00 P:27 SP:FB PPU:648,1944,CYC:  648
C996  F0 09     BEQ $C9A1                       A:9F X:00 Y:00 P:A5 SP:FB PPU:650,1950,CYC:  650
C998  10 07     BPL $C9A1                       A:9F X:00 Y:00 P:A5 SP:FB PPU:652,1956,CYC:  652
C99A  70 05     BVS $C9A1                       A:9F X:00 Y:00 P:A5 SP:FB PPU:654,1962,CYC:  654
C99C  90 03     BCC $C9A1                       A:9F X:00 Y:00 P:A5 SP:FB PPU:656,1968,CYC:  656
C99E  4C A5 C9  JMP $C9A5                       A:9F X:00 Y:00 P:A5 SP:FB PPU:658,1974,CYC:  658
C9A5  EA        NOP                             A:9F X:00 Y:00 P:A5 SP:FB PPU:661,1983,CYC:  661
C9A6  18        CLC                             A:9F X:00 Y:00 P:A5 SP:FB PPU:663,1989,CYC:  663
C9A7  24 01     BIT $01 = FF                    A:9F X:00 Y:00 P:A4 SP:FB PPU:665,1995,CYC:  665
C9A9  A9 00     LDA #$00                        A:9F X:00 Y:00 P:E4 SP:FB PPU:668,2004,CYC:  668
C9AB  D0 09     BNE $C9B6                       A:00 X:00 Y:00 P:66 SP:FB PPU:670,2010,CYC:  670
C9AD  30 07     BMI $C9B6                       A:00 X:00 Y:00 P:66 SP:FB PPU:672,2016,CYC:  672
C9AF  50 05     BVC $C9B6                       A:00 X:00 Y:00 P:66 SP:FB PPU:674,2022,CYC:  674
C9B1  B0 03     BCS $C9B6                       A:00 X:00 Y:00 P:66 SP:FB PPU:676,2028,CYC:  676
C9B3  4C BA C9  JMP $C9BA                       A:00 X:00 Y:00 P:66 SP:FB PPU:678,2034,CYC:  678
C9BA  EA        NOP                             A:00 X:00 Y:00 P:66 SP:FB PPU:681,2043,CYC:  681
C9BB  24 01     BIT $01 = FF                    A:00 X:00 Y:00 P:66 SP:FB PPU:683,2049,CYC:  683
C9BD  A9 40     LDA #$40                        A:00 X:00 Y:00 P:E6 SP:FB PPU:686,2058,CYC:  686
C9BF  C9 40     CMP #$40                        A:40 X:00 Y:00 P:64 SP:FB PPU:688,2064,CYC:  688
C9C1  30 09     BMI $C9CC                       A:40 X:00 Y:00 P:67 SP:FB PPU:690,2070,CYC:  690
C9C3  90 07     BCC $C9CC                       A:40 X:00 Y:00 P:67 SP:FB PPU:692,2076,CYC:  692
C9C5  D0 05     BNE $C9CC                       A:40 X:00 Y:00 P:67 SP:FB PPU:694,2082,CYC:  694
C9C7  50 03     BVC $C9CC                       A:40 X:00 Y:00 P:67 SP:FB PPU:696,2088,CYC:  696
C9C9  4C D0 C9  JMP $C9D0                       A:40 X:00 Y:00 P:67 SP:FB PPU:698,2094,CYC:  698
C9D0  EA        NOP                             A:40 X:00 Y:00 P:67 SP:FB PPU:701,2103,CYC:  701
C9D1  B8        CLV                             A:40 X:00 Y:00 P:67 SP:FB PPU:703,2109,CYC:  703
C9D2  C9 3F     CMP #$3F                        A:40 X:00 Y:00 P:27 SP:FB PPU:705,2115,CYC:  705
C9D4  F0 09     BEQ $C9DF                       A:40 X:00 Y:00 P:25 SP:FB PPU:707,2121,CYC:  707
C9D6  30 07     BMI $C9DF                       A:40 X:00 Y:00 P:25 SP:FB PPU:709,2127,CYC:  709
C9D8  90 05     BCC $C9DF                       A:40 X:00 Y:00 P:25 SP:FB PPU:711,2133,CYC:  711
C9DA  70 03     BVS $C9DF                       A:40 X:00 Y:00 P:25 SP:FB PPU:713,2139,CYC:  713
C9DC  4C E3 C9  JMP $C9E3                       A:40 X:00 Y:00 P:25 SP:FB PPU:715,2145,CYC:  715
C9E3  EA        NOP                             A:40 X:00 Y:00 P:25 SP:FB PPU:718,2154,CYC:  718
C9E4  C9 41     CMP #$41                        A:40 X:00 Y:00 P:25 SP:FB PPU:720,2160,CYC:  720
C9E6  F0 07     BEQ $C9EF                       A:40 X:00 Y:00 P:A4 SP:FB PPU:722,2166,CYC:  722
C9E8  10 05     BPL $C9EF                       A:40 X:00 Y:00 P:A4 SP:FB PPU:724,2172,CYC:  724
C9EA  10 03     BPL $C9EF                       A:40 X:00 Y:00 P:A4 SP:FB PPU:726,2178,CYC:  726
C9EC  4C F3 C9  JMP $C9F3                       A:40 X:00 Y:00 P:A4 SP:FB PPU:728,2184,CYC:  728
C9F3  EA        NOP                             A:40 X:00 Y:00 P:A4 SP:FB PPU:731,2193,CYC:  731
C9F4  A9 80     LDA #$80                        A:40 X:00 Y:00 P:A4 SP:FB PPU:733,2199,CYC:  733
C9F6  C9 00     CMP #$00                        A:80 X:00 Y:00 P:A4 SP:FB PPU:735,2205,CYC:  735
C9F8  F0 07     BEQ $CA01                       A:80 X:00 Y:00 P:A5 SP:FB PPU:737,2211,CYC:  737
C9FA  10 05     BPL $CA01                       A:80 X:00 Y:00 P:A5 SP:FB PPU:739,2217,CYC:  739
C9FC  90 03     BCC $CA01                       A:80 X:00 Y:00 P:A5 SP:FB PPU:741,2223,CYC:  741
C9FE  4C 05 CA  JMP $CA05                       A:80 X:00 Y:00 P:A5 SP:FB PPU:743,2229,CYC:  743
CA05  EA        NOP                             A:80 X:00 Y:00 P:A5 SP:FB PPU:748,2244,CYC:  748
CA06  C9 80     CMP #$80                        A:80 X:00 Y:00 P:A5 SP:FB PPU:750,2250,CYC:  750
CA08  D0 07     BNE $CA11                       A:80 X:00 Y:00 P:27 SP:FB PPU:752,2256,CYC:  752
CA0A  30 05     BMI $CA11                       A:80 X:00 Y:00 P:27 SP:FB PPU:754,2262,CYC:  754
CA0C  90 03     BCC $CA11                       A:80 X:00 Y:00 P:27 SP:FB PPU:756,2268,CYC:  756
CA0E  4C 15 CA  JMP $CA15                       A:80 X:00 Y:00 P:27 SP:FB PPU:758,2274,CYC:  758
CA15  EA        NOP                             A:80 X:00 Y:00 P:27 SP:FB PPU:761,2283,CYC:  761
CA16  C9 81     CMP #$81                        A:80 X:00 Y:00 P:27 SP:FB PPU:763,2289,CYC:  763
CA18  B0 07     BCS $CA21                       A:80 X:00 Y:00 P:A4 SP:FB PPU:765,2295,CYC:  765
CA1A  F0 05     BEQ $CA21                       A:80 X:00 Y:00 P:A4 SP:FB PPU:767,2301,CYC:  767
CA1C  10 03     BPL $CA21                       A:80 X:00 Y:00 P:A4 SP:FB PPU:769,2307,CYC:  769
CA1E  4C 25 CA  JMP $CA25                       A:80 X:00 Y:00 P:A4 SP:FB PPU:771,2313,CYC:  771
CA25  EA        NOP                             A:80 X:00 Y:00 P:A4 SP:FB PPU:774,2322,CYC:  774
CA26  C9 7F     CMP #$7F                        A:80 X:00 Y:00 P:A4 SP:FB PPU:776,2328,CYC:  776
CA28  90 07     BCC $CA31                       A:80 X:00 Y:00 P:25 SP:FB PPU:778,2334,CYC:  778
CA2A  F0 05     BEQ $CA31                       A:80 X:00 Y:00 P:25 SP:FB PPU:780,2340,CYC:  780
CA2C  30 03     BMI $CA31                       A:80 X:00 Y:00 P:25 SP:FB PPU:782,2346,CYC:  782
CA2E  4C 35 CA  JMP $CA35                       A:80 X:00 Y:00 P:25 SP:FB PPU:784,2352,CYC:  784
CA35  EA        NOP                             A:80 X:00 Y:00 P:25 SP:FB PPU:787,2361,CYC:  787
CA36  24 01     BIT $01 = FF                    A:80 X:00 Y:00 P:25 SP:FB PPU:789,2367,CYC:  789
CA38  A0 40     LDY #$40                        A:80 X:00 Y:00 P:E5 SP:FB PPU:792,2376,CYC:  792
CA3A  C0 40     CPY #$40                        A:80 X:00 Y:40 P:65 SP:FB PPU:794,2382,CYC:  794
CA3C  D0 09     BNE $CA47                       A:80 X:00 Y:40 P:67 SP:FB PPU:796,2388,CYC:  796
CA3E  30 07     BMI $CA47                       A:80 X:00 Y:40 P:67 SP:FB PPU:798,2394,CYC:  798
CA40  90 05     BCC $CA47                       A:80 X:00 Y:40 P:67 SP:FB PPU:800,2400,CYC:  800
CA42  50 03     BVC $CA47                       A:80 X:00 Y:40 P:67 SP:FB PPU:802,2406,CYC:  802
CA44  4C 4B CA  JMP $CA4B                       A:80 X:00 Y:40 P:67 SP:FB PPU:804,2412,CYC:  804
CA4B  EA        NOP                             A:80 X:00 Y:40 P:67 SP:FB PPU:807,2421,CYC:  807
CA4C  B8        CLV                             A:80 X:00 Y:40 P:67 SP:FB PPU:809,2427,CYC:  809
CA4D  C0 3F     CPY #$3F                        A:80 X:00 Y:40 P:27 SP:FB PPU:811,2433,CYC:  811
CA4F  F0 09     BEQ $CA5A                       A:80 X:00 Y:40 P:25 SP:FB PPU:813,2439,CYC:  813
CA51  30 07     BMI $CA5A                       A:80 X:00 Y:40 P:25 SP:FB PPU:815,2445,CYC:  815
CA53  90 05     BCC $CA5A                       A:80 X:00 Y:40 P:25 SP:FB PPU:817,2451,CYC:  817
CA55  70 03     BVS $CA5A                       A:80 X:00 Y:40 P:25 SP:FB PPU:819,2457,CYC:  819
CA57  4C 5E CA  JMP $CA5E                       A:80 X:00 Y:40 P:25 SP:FB PPU:821,2463,CYC:  821
CA5E  EA        NOP                             A:80 X:00 Y:40 P:25 SP:FB PPU:824,2472,CYC:  824
CA5F  C0 41     CPY #$41                        A:80 X:00 Y:40 P:25 SP:FB PPU:826,2478,CYC:  826
CA61  F0 07     BEQ $CA6A                       A:80 X:00 Y:40 P:A4 SP:FB PPU:828,2484,CYC:  828
CA63  10 05     BPL $CA6A                       A:80 X:00 Y:40 P:A4 SP:FB PPU:830,2490,CYC:  830
CA65  10 03     BPL $CA6A                       A:80 X:00 Y:40 P:A4 SP:FB PPU:832,2496,CYC:  832
CA67  4C 6E CA  JMP $CA6E                       A:80 X:00 Y:40 P:A4 SP:FB PPU:834,2502,CYC:  834
CA6E  EA        NOP                             A:80 X:00 Y:40 P:A4 SP:FB PPU:837,2511,CYC:  837
CA6F  A0 80     LDY #$80                        A:80 X:00 Y:40 P:A4 SP:FB PPU:839,2517,CYC:  839
CA71  C0 00     CPY #$00                        A:80 X:00 Y:80 P:A4 SP:FB PPU:841,2523,CYC:  841
CA73  F0 07     BEQ $CA7C                       A:80 X:00 Y:80 P:A5 SP:FB PPU:843,2529,CYC:  843
CA75  10 05     BPL $CA7C                       A:80 X:00 Y:80 P:A5 SP:FB PPU:845,2535,CYC:  845
CA77  90 03     BCC $CA7C                       A:80 X:00 Y:80 P:A5 SP:FB PPU:847,2541,CYC:  847
CA79  4C 80 CA  JMP $CA80                       A:80 X:00 Y:80 P:A5 SP:FB PPU:849,2547,CYC:  849
CA80  EA        NOP                             A:80 X:00 Y:80 P:A5 SP:FB PPU:852,2556,CYC:  852
CA81  C0 80     CPY #$80                        A:80 X:00 Y:80 P:A5 SP:FB PPU:854,2562,CYC:  854
CA83  D0 07     BNE $CA8C                       A:80 X:00 Y:80 P:27 SP:FB PPU:856,2568,CYC:  856
CA85  30 05     BMI $CA8C                       A:80 X:00 Y:80 P:27 SP:FB PPU:858,2574,CYC:  858
CA87  90 03     BCC $CA8C                       A:80 X:00 Y:80 P:27 SP:FB PPU:860,2580,CYC:  860
CA89  4C 90 CA  JMP $CA90                       A:80 X:00 Y:80 P:27 SP:FB PPU:862,2586,CYC:  862
CA90  EA        NOP                             A:80 X:00 Y:80 P:27 SP:FB PPU:865,2595,CYC:  865
CA91  C0 81     CPY #$81                        A:80 X:00 Y:80 P:27 SP:FB PPU:867,2601,CYC:  867
CA93  B0 07     BCS $CA9C                       A:80 X:00 Y:80 P:A4 SP:FB PPU:869,2607,CYC:  869
CA95  F0 05     BEQ $CA9C                       A:80 X:00 Y:80 P:A4 SP:FB PPU:871,2613,CYC:  871
CA97  10 03     BPL $CA9C                       A:80 X:00 Y:80 P:A4 SP:FB PPU:873,2619,CYC:  873
CA99  4C A0 CA  JMP $CAA0                       A:80 X:00 Y:80 P:A4 SP:FB PPU:875,2625,CYC:  875
CAA0  EA        NOP                             A:80 X:00 Y:80 P:A4 SP:FB PPU:878,2634,CYC:  878
CAA1  C0 7F     CPY #$7F                        A:80 X:00 Y:80 P:A4 SP:FB PPU:880,2640,CYC:  880
CAA3  90 07     BCC $CAAC                       A:80 X:00 Y:80 P:25 SP:FB PPU:882,2646,CYC:  882
CAA5  F0 05     BEQ $CAAC                       A:80 X:00 Y:80 P:25 SP:FB PPU:884,2652,CYC:  884
CAA7  30 03     BMI $CAAC                       A:80 X:00 Y:80 P:25 SP:FB PPU:886,2658,CYC:  886
CAA9  4C B0 CA  JMP $CAB0                       A:80 X:00 Y:80 P:25 SP:FB PPU:888,2664,CYC:  888
CAB0  EA        NOP                             A:80 X:00 Y:80 P:25 SP:FB PPU:891,2673,CYC:  891
CAB1  24 01     BIT $01 = FF                    A:80 X:00 Y:80 P:25 SP:FB PPU:893,2679,CYC:  893
CAB3  A2 40     LDX #$40                        A:80 X:00 Y:80 P:E5 SP:FB PPU:896,2688,CYC:  896
CAB5  E0 40     CPX #$40                        A:80 X:40 Y:80 P:65 SP:FB PPU:898,2694,CYC:  898
CAB7  D0 09     BNE $CAC2                       A:80 X:40 Y:80 P:67 SP:FB PPU:900,2700,CYC:  900
CAB9  30 07     BMI $CAC2                       A:80 X:40 Y:80 P:67 SP:FB PPU:902,2706,CYC:  902
CABB  90 05     BCC $CAC2                       A:80 X:40 Y:80 P:67 SP:FB PPU:904,2712,CYC:  904
CABD  50 03     BVC $CAC2                       A:80 X:40 Y:80 P:67 SP:FB PPU:906,2718,CYC:  906
CABF  4C C6 CA  JMP $CAC6                       A:80 X:40 Y:80 P:67 SP:FB PPU:908,2724,CYC:  908
CAC6  EA        NOP                             A:80 X:40 Y:80 P:67 SP:FB PPU:911,2733,CYC:  911
CAC7  B8        CLV                             A:80 X:40 Y:80 P:67 SP:FB PPU:913,2739,CYC:  913
CAC8  E0 3F     CPX #$3F                        A:80 X:40 Y:80 P:27 SP:FB PPU:915,2745,CYC:  915
CACA  F0 09     BEQ $CAD5                       A:80 X:40 Y:80 P:25 SP:FB PPU:917,2751,CYC:  917
CACC  30 07     BMI $CAD5                       A:80 X:40 Y:80 P:25 SP:FB PPU:919,2757,CYC:  919
CACE  90 05     BCC $CAD5                       A:80 X:40 Y:80 P:25 SP:FB PPU:921,2763,CYC:  921
CAD0  70 03     BVS $CAD5                       A:80 X:40 Y:80 P:25 SP:FB PPU:923,2769,CYC:  923
CAD2  4C D9 CA  JMP $CAD9                       A:80 X:40 Y:80 P:25 SP:FB PPU:925,2775,CYC:  925
CAD9  EA        NOP                             A:80 X:40 Y:80 P:25 SP:FB PPU:928,2784,CYC:  928
CADA  E0 41     CPX #$41                        A:80 X:40 Y:80 P:25 SP:FB PPU:930,2790,CYC:  930
CADC  F0 07     BEQ $CAE5                       A:80 X:40 Y:80 P:A4 SP:FB PPU:932,2796,CYC:  932
CADE  10 05     BPL $CAE5                       A:80 X:40 Y:80 P:A4 SP:FB PPU:934,2802,CYC:  934
CAE0  10 03     BPL $CAE5                       A:80 X:40 Y:80 P:A4 SP:FB PPU:936,2808,CYC:  936
CAE2  4C E9 CA  JMP $CAE9                       A:80 X:40 Y:80 P:A4 SP:FB PPU:938,2814,CYC:  938
CAE9  EA        NOP                             A:80 X:40 Y:80 P:A4 SP:FB PPU:941,2823,CYC:  941
CAEA  A2 80     LDX #$80                        A:80 X:40 Y:80 P:A4 SP:FB PPU:943,2829,CYC:  943
CAEC  E0 00     CPX #$00                        A:80 X:80 Y:80 P:A4 SP:FB PPU:945,2835,CYC:  945
CAEE  F0 07     BEQ $CAF7                       A:80 X:80 Y:80 P:A5 SP:FB PPU:947,2841,CYC:  947
CAF0  10 05     BPL $CAF7                       A:80 X:80 Y:80 P:A5 SP:FB PPU:949,2847,CYC:  949
CAF2  90 03     BCC $CAF7                       A:80 X:80 Y:80 P:A5 SP:FB PPU:951,2853,CYC:  951
CAF4  4C FB CA  JMP $CAFB                       A:80 X:80 Y:80 P:A5 SP:FB PPU:953,2859,CYC:  953
CAFB  EA        NOP                             A:80 X:80 Y:80 P:A5 SP:FB PPU:956,2868,CYC:  956
CAFC  E0 80     CPX #$80                        A:80 X:80 Y:80 P:A5 SP:FB PPU:958,2874,CYC:  958
CAFE  D0 07     BNE $CB07                       A:80 X:80 Y:80 P:27 SP:FB PPU:960,2880,CYC:  960
CB00  30 05     BMI $CB07                       A:80 X:80 Y:80 P:27 SP:FB PPU:962,2886,CYC:  962
CB02  90 03     BCC $CB07                       A:80 X:80 Y:80 P:27 SP:FB PPU:964,2892,CYC:  964
CB04  4C 0B CB  JMP $CB0B                       A:80 X:80 Y:80 P:27 SP:FB PPU:966,2898,CYC:  966
CB0B  EA        NOP                             A:80 X:80 Y:80 P:27 SP:FB PPU:969,2907,CYC:  969
CB0C  E0 81     CPX #$81                        A:80 X:80 Y:80 P:27 SP:FB PPU:971,2913,CYC:  971
CB0E  B0 07     BCS $CB17                       A:80 X:80 Y:80 P:A4 SP:FB PPU:973,2919,CYC:  973
CB10  F0 05     BEQ $CB17                       A:80 X:80 Y:80 P:A4 SP:FB PPU:975,2925,CYC:  975
CB12  10 03     BPL $CB17                       A:80 X:80 Y:80 P:A4 SP:FB PPU:977,2931,CYC:  977
CB14  4C 1B CB  JMP $CB1B                       A:80 X:80 Y:80 P:A4 SP:FB PPU:979,2937,CYC:  979
CB1B  EA        NOP                             A:80 X:80 Y:80 P:A4 SP:FB PPU:982,2946,CYC:  982
CB1C  E0 7F     CPX #$7F                        A:80 X:80 Y:80 P:A4 SP:FB PPU:984,2952,CYC:  984
CB1E  90 07     BCC $CB27                       A:80 X:80 Y:80 P:25 SP:FB PPU:986,2958,CYC:  986
CB20  F0 05     BEQ $CB27                       A:80 X:80 Y:80 P:25 SP:FB PPU:988,2964,CYC:  988
CB22  30 03     BMI $CB27                       A:80 X:80 Y:80 P:25 SP:FB PPU:990,2970,CYC:  990
CB24  4C 2B CB  JMP $CB2B                       A:80 X:80 Y:80 P:25 SP:FB PPU:992,2976,CYC:  992
CB2B  EA        NOP                             A:80 X:80 Y:80 P:25 SP:FB PPU:995,2985,CYC:  995
CB2C  38        SEC                             A:80 X:80 Y:80 P:25 SP:FB PPU:997,2991,CYC:  997
CB2D  B8        CLV                             A:80 X:80 Y:80 P:25 SP:FB PPU:999,2997,CYC:  999
CB2E  A2 9F     LDX #$9F                        A:80 X:80 Y:80 P:25 SP:FB PPU:1001,3003,CYC: 1001
CB30  F0 09     BEQ $CB3B                       A:80 X:9F Y:80 P:A5 SP:FB PPU:1003,3009,CYC: 1003
CB32  10 07     BPL $CB3B                       A:80 X:9F Y:80 P:A5 SP:FB PPU:1005,3015,CYC: 1005
CB34  70 05     BVS $CB3B                       A:80 X:9F Y:80 P:A5 SP:FB PPU:1007,3021,CYC: 1007
CB36  90 03     BCC $CB3B                       A:80 X:9F Y:80 P:A5 SP:FB PPU:1009,3027,CYC: 1009
CB38  4C 3F CB  JMP $CB3F                       A:80 X:9F Y:80 P:A5 SP:FB PPU:1011,3033,CYC: 1011
CB3F  EA        NOP                             A:80 X:9F Y:80 P:A5 SP:FB PPU:1014,3042,CYC: 1014
CB40  18        CLC                             A:80 X:9F Y:80 P:A5 SP:FB PPU:1016,3048,CYC: 1016
CB41  24 01     BIT $01 = FF                    A:80 X:9F Y:80 P:A4 SP:FB PPU:1018,3054,CYC: 1018
CB43  A2 00     LDX #$00                        A:80 X:9F Y:80 P:E4 SP:FB PPU:1021,3063,CYC: 1021
CB45  D0 09     BNE $CB50                       A:80 X:00 Y:80 P:66 SP:FB PPU:1023,3069,CYC: 1023
CB47  30 07     BMI $CB50                       A:80 X:00 Y:80 P:66 SP:FB PPU:1025,3075,CYC: 1025
CB49  50 05     BVC $CB50                       A:80 X:00 Y:80 P:66 SP:FB PPU:1027,3081,CYC: 1027
CB4B  B0 03     BCS $CB50                       A:80 X:00 Y:80 P:66 SP:FB PPU:1029,3087,CYC: 1029
CB4D  4C 54 CB  JMP $CB54                       A:80 X:00 Y:80 P:66 SP:FB PPU:1031,3093,CYC: 1031
CB54  EA        NOP                             A:80 X:00 Y:80 P:66 SP:FB PPU:1034,3102,CYC: 1034
CB55  38        SEC                             A:80 X:00 Y:80 P:66 SP:FB PPU:1036,3108,CYC: 1036
CB56  B8        CLV                             A:80 X:00 Y:80 P:67 SP:FB PPU:1038,3114,CYC: 1038
CB57  A0 9F     LDY #$9F                        A:80 X:00 Y:80 P:27 SP:FB PPU:1040,3120,CYC: 1040
CB59  F0 09     BEQ $CB64                       A:80 X:00 Y:9F P:A5 SP:FB PPU:1042,3126,CYC: 1042
CB5B  10 07     BPL $CB64                       A:80 X:00 Y:9F P:A5 SP:FB PPU:1044,3132,CYC: 1044
CB5D  70 05     BVS $CB64                       A:80 X:00 Y:9F P:A5 SP:FB PPU:1046,3138,CYC: 1046
CB5F  90 03     BCC $CB64                       A:80 X:00 Y:9F P:A5 SP:FB PPU:1048,3144,CYC: 1048
CB61  4C 68 CB  JMP $CB68                       A:80 X:00 Y:9F P:A5 SP:FB PPU:1050,3150,CYC: 1050
CB68  EA        NOP                             A:80 X:00 Y:9F P:A5 SP:FB PPU:1053,3159,CYC: 1053
CB69  18        CLC                             A:80 X:00 Y:9F P:A5 SP:FB PPU:1055,3165,CYC: 1055
CB6A  24 01     BIT $01 = FF                    A:80 X:00 Y:9F P:A4 SP:FB PPU:1057,3171,CYC: 1057
CB6C  A0 00     LDY #$00                        A:80 X:00 Y:9F P:E4 SP:FB PPU:1060,3180,CYC: 1060
CB6E  D0 09     BNE $CB79                       A:80 X:00 Y:00 P:66 SP:FB PPU:1062,3186,CYC: 1062
CB70  30 07     BMI $CB79                       A:80 X:00 Y:00 P:66 SP:FB PPU:1064,3192,CYC: 1064
CB72  50 05     BVC $CB79                       A:80 X:00 Y:00 P:66 SP:FB PPU:1066,3198,CYC: 1066
CB74  B0 03     BCS $CB79                       A:80 X:00 Y:00 P:66 SP:FB PPU:1068,3204,CYC: 1068
CB76  4C 7D CB  JMP $CB7D                       A:80 X:00 Y:00 P:66 SP:FB PPU:1070,3210,CYC: 1070
CB7D  EA        NOP                             A:80 X:00 Y:00 P:66 SP:FB PPU:1073,3219,CYC: 1073
CB7E  A9 55     LDA #$55                        A:80 X:00 Y:00 P:66 SP:FB PPU:1075,3225,CYC: 1075
CB80  A2 AA     LDX #$AA                        A:55 X:00 Y:00 P:64 SP:FB PPU:1077,3231,CYC: 1077
CB82  A0 33     LDY #$33                        A:55 X:AA Y:00 P:E4 SP:FB PPU:1079,3237,CYC: 1079
CB84  C9 55     CMP #$55                        A:55 X:AA Y:33 P:64 SP:FB PPU:1081,3243,CYC: 1081
CB86  D0 23     BNE $CBAB                       A:55 X:AA Y:33 P:67 SP:FB PPU:1083,3249,CYC: 1083
CB88  E0 AA     CPX #$AA                        A:55 X:AA Y:33 P:67 SP:FB PPU:1085,3255,CYC: 1085
CB8A  D0 1F     BNE $CBAB                       A:55 X:AA Y:33 P:67 SP:FB PPU:1087,3261,CYC: 1087
CB8C  C0 33     CPY #$33                        A:55 X:AA Y:33 P:67 SP:FB PPU:1089,3267,CYC: 1089
CB8E  D0 1B     BNE $CBAB                       A:55 X:AA Y:33 P:67 SP:FB PPU:1091,3273,CYC: 1091
CB90  C9 55     CMP #$55                        A:55 X:AA Y:33 P:67 SP:FB PPU:1093,3279,CYC: 1093
CB92  D0 17     BNE $CBAB                       A:55 X:AA Y:33 P:67 SP:FB PPU:1095,3285,CYC: 1095
CB94  E0 AA     CPX #$AA                        A:55 X:AA Y:33 P:67 SP:FB PPU:1097,3291,CYC: 1097
CB96  D0 13     BNE $CBAB                       A:55 X:AA Y:33 P:67 SP:FB PPU:1099,3297,CYC: 1099
CB98  C0 33     CPY #$33                        A:55 X:AA Y:33 P:67 SP:FB PPU:1101,3303,CYC: 1101
CB9A  D0 0F     BNE $CBAB                       A:55 X:AA Y:33 P:67 SP:FB PPU:1103,3309,CYC: 1103
CB9C  C9 56     CMP #$56                        A:55 X:AA Y:33 P:67 SP:FB PPU:1105,3315,CYC: 1105
CB9E  F0 0B     BEQ $CBAB                       A:55 X:AA Y:33 P:E4 SP:FB PPU:1107,3321,CYC: 1107
CBA0  E0 AB     CPX #$AB                        A:55 X:AA Y:33 P:E4 SP:FB PPU:1109,3327,CYC: 1109
CBA2  F0 07     BEQ $CBAB                       A:55 X:AA Y:33 P:E4 SP:FB PPU:1111,3333,CYC: 1111
CBA4  C0 34     CPY #$34                        A:55 X:AA Y:33 P:E4 SP:FB PPU:1113,3339,CYC: 1113
CBA6  F0 03     BEQ $CBAB                       A:55 X:AA Y:33 P:E4 SP:FB PPU:1115,3345,CYC: 1115
CBA8  4C AF CB  JMP $CBAF                       A:55 X:AA Y:33 P:E4 SP:FB PPU:1117,3351,CYC: 1117
CBAF  A0 71     LDY #$71                        A:55 X:AA Y:33 P:E4 SP:FB PPU:1120,3360,CYC: 1120
CBB1  20 31 F9  JSR $F931                       A:55 X:AA Y:71 P:64 SP:FB PPU:1122,3366,CYC: 1122
F931  24 01     BIT $01 = FF                    A:55 X:AA Y:71 P:64 SP:F9 PPU:1128,3384,CYC: 1128
F933  A9 40     LDA #$40                        A:55 X:AA Y:71 P:E4 SP:F9 PPU:1131,3393,CYC: 1131
F935  38        SEC                             A:40 X:AA Y:71 P:64 SP:F9 PPU:1133,3399,CYC: 1133
F936  60        RTS                             A:40 X:AA Y:71 P:65 SP:F9 PPU:1135,3405,CYC: 1135
CBB4  E9 40     SBC #$40                        A:40 X:AA Y:71 P:65 SP:FB PPU:1141,3423,CYC: 1141
CBB6  20 37 F9  JSR $F937                       A:00 X:AA Y:71 P:27 SP:FB PPU:1143,3429,CYC: 1143
F937  30 0B     BMI $F944                       A:00 X:AA Y:71 P:27 SP:F9 PPU:1149,3447,CYC: 1149
F939  90 09     BCC $F944                       A:00 X:AA Y:71 P:27 SP:F9 PPU:1151,3453,CYC: 1151
F93B  D0 07     BNE $F944                       A:00 X:AA Y:71 P:27 SP:F9 PPU:1153,3459,CYC: 1153
F93D  70 05     BVS $F944                       A:00 X:AA Y:71 P:27 SP:F9 PPU:1155,3465,CYC: 1155
F93F  C9 00     CMP #$00                        A:00 X:AA Y:71 P:27 SP:F9 PPU:1157,3471,CYC: 1157
F941  D0 01     BNE $F944                       A:00 X:AA Y:71 P:27 SP:F9 PPU:1159,3477,CYC: 1159
F943  60        RTS                             A:00 X:AA Y:71 P:27 SP:F9 PPU:1161,3483,CYC: 1161
CBB9  C8        INY                             A:00 X:AA Y:71 P:27 SP:FB PPU:1167,3501,CYC: 1167
CBBA  20 47 F9  JSR $F947                       A:00 X:AA Y:72 P:25 SP:FB PPU:1169,3507,CYC: 1169
F947  B8        CLV                             A:00 X:AA Y:72 P:25 SP:F9 PPU:1175,3525,CYC: 1175
F948  38        SEC                             A:00 X:AA Y:72 P:25 SP:F9 PPU:1177,3531,CYC: 1177
F949  A9 40     LDA #$40                        A:00 X:AA Y:72 P:25 SP:F9 PPU:1179,3537,CYC: 1179
F94B  60        RTS                             A:40 X:AA Y:72 P:25 SP:F9 PPU:1181,3543,CYC: 1181
CBBD  E9 3F     SBC #$3F                        A:40 X:AA Y:72 P:25 SP:FB PPU:1187,3561,CYC: 1187
CBBF  20 4C F9  JSR $F94C                       A:01 X:AA Y:72 P:25 SP:FB PPU:1189,3567,CYC: 1189
F94C  F0 0B     BEQ $F959                       A:01 X:AA Y:72 P:25 SP:F9 PPU:1195,3585,CYC: 1195
F94E  30 09     BMI $F959                       A:01 X:AA Y:72 P:25 SP:F9 PPU:1197,3591,CYC: 1197
F950  90 07     BCC $F959                       A:01 X:AA Y:72 P:25 SP:F9 PPU:1199,3597,CYC: 1199
F952  70 05     BVS $F959                       A:01 X:AA Y:72 P:25 SP:F9 PPU:1201,3603,CYC: 1201
F954  C9 01     CMP #$01                        A:01 X:AA Y:72 P:25 SP:F9 PPU:1203,3609,CYC: 1203
F956  D0 01     BNE $F959                       A:01 X:AA Y:72 P:27 SP:F9 PPU:1205,3615,CYC: 1205
F958  60        RTS                             A:01 X:AA Y:72 P:27 SP:F9 PPU:1207,3621,CYC: 1207
CBC2  C8        INY                             A:01 X:AA Y:72 P:27 SP:FB PPU:1213,3639,CYC: 1213
CBC3  20 5C F9  JSR $F95C                       A:01 X:AA Y:73 P:25 SP:FB PPU:1215,3645,CYC: 1215
F95C  A9 40     LDA #$40                        A:01 X:AA Y:73 P:25 SP:F9 PPU:1221,3663,CYC: 1221
F95E  38        SEC                             A:40 X:AA Y:73 P:25 SP:F9 PPU:1223,3669,CYC: 1223
F95F  24 01     BIT $01 = FF                    A:40 X:AA Y:73 P:25 SP:F9 PPU:1225,3675,CYC: 1225
F961  60        RTS                             A:40 X:AA Y:73 P:E5 SP:F9 PPU:1228,3684,CYC: 1228
CBC6  E9 41     SBC #$41                        A:40 X:AA Y:73 P:E5 SP:FB PPU:1234,3702,CYC: 1234
CBC8  20 62 F9  JSR $F962                       A:FF X:AA Y:73 P:A4 SP:FB PPU:1236,3708,CYC: 1236
F962  B0 0B     BCS $F96F                       A:FF X:AA Y:73 P:A4 SP:F9 PPU:1242,3726,CYC: 1242
F964  F0 09     BEQ $F96F                       A:FF X:AA Y:73 P:A4 SP:F9 PPU:1244,3732,CYC: 1244
F966  10 07     BPL $F96F                       A:FF X:AA Y:73 P:A4 SP:F9 PPU:1246,3738,CYC: 1246
F968  70 05     BVS $F96F                       A:FF X:AA Y:73 P:A4 SP:F9 PPU:1248,3744,CYC: 1248
F96A  C9 FF     CMP #$FF                        A:FF X:AA Y:73 P:A4 SP:F9 PPU:1250,3750,CYC: 1250
F96C  D0 01     BNE $F96F                       A:FF X:AA Y:73 P:27 SP:F9 PPU:1252,3756,CYC: 1252
F96E  60        RTS                             A:FF X:AA Y:73 P:27 SP:F9 PPU:1254,3762,CYC: 1254
CBCB  C8        INY                             A:FF X:AA Y:73 P:27 SP:FB PPU:1260,3780,CYC: 1260
CBCC  20 72 F9  JSR $F972                       A:FF X:AA Y:74 P:25 SP:FB PPU:1262,3786,CYC: 1262
F972  18        CLC                             A:FF X:AA Y:74 P:25 SP:F9 PPU:1268,3804,CYC: 1268
F973  A9 80     LDA #$80                        A:FF X:AA Y:74 P:24 SP:F9 PPU:1270,3810,CYC: 1270
F975  60        RTS                             A:80 X:AA Y:74 P:A4 SP:F9 PPU:1272,3816,CYC: 1272
CBCF  E9 00     SBC #$00                        A:80 X:AA Y:74 P:A4 SP:FB PPU:1278,3834,CYC: 1278
CBD1  20 76 F9  JSR $F976                       A:7F X:AA Y:74 P:65 SP:FB PPU:1280,3840,CYC: 1280
F976  90 05     BCC $F97D                       A:7F X:AA Y:74 P:65 SP:F9 PPU:1286,3858,CYC: 1286
F978  C9 7F     CMP #$7F                        A:7F X:AA Y:74 P:65 SP:F9 PPU:1288,3864,CYC: 1288
F97A  D0 01     BNE $F97D                       A:7F X:AA Y:74 P:67 SP:F9 PPU:1290,3870,CYC: 1290
F97C  60        RTS                             A:7F X:AA Y:74 P:67 SP:F9 PPU:1292,3876,CYC: 1292
CBD4  C8        INY                             A:7F X:AA Y:74 P:67 SP:FB PPU:1298,3894,CYC: 1298
CBD5  20 80 F9  JSR $F980                       A:7F X:AA Y:75 P:65 SP:FB PPU:1300,3900,CYC: 1300
F980  38        SEC                             A:7F X:AA Y:75 P:65 SP:F9 PPU:1306,3918,CYC: 1306
F981  A9 81     LDA #$81                        A:7F X:AA Y:75 P:65 SP:F9 PPU:1308,3924,CYC: 1308
F983  60        RTS                             A:81 X:AA Y:75 P:E5 SP:F9 PPU:1310,3930,CYC: 1310
CBD8  E9 7F     SBC #$7F                        A:81 X:AA Y:75 P:E5 SP:FB PPU:1316,3948,CYC: 1316
CBDA  20 84 F9  JSR $F984                       A:02 X:AA Y:75 P:65 SP:FB PPU:1318,3954,CYC: 1318
F984  50 07     BVC $F98D                       A:02 X:AA Y:75 P:65 SP:F9 PPU:1324,3972,CYC: 1324
F986  90 05     BCC $F98D                       A:02 X:AA Y:75 P:65 SP:F9 PPU:1326,3978,CYC: 1326
F988  C9 02     CMP #$02                        A:02 X:AA Y:75 P:65 SP:F9 PPU:1328,3984,CYC: 1328
F98A  D0 01     BNE $F98D                       A:02 X:AA Y:75 P:67 SP:F9 PPU:1330,3990,CYC: 1330
F98C  60        RTS                             A:02 X:AA Y:75 P:67 SP:F9 PPU:1332,3996,CYC: 1332
CBDD  60        RTS                             A:02 X:AA Y:75 P:67 SP:FB PPU:1338,4014,CYC: 1338
C606  20 DE CB  JSR $CBDE                       A:02 X:AA Y:75 P:67 SP:FD PPU:1344,4032,CYC: 1344
CBDE  EA        NOP                             A:02 X:AA Y:75 P:67 SP:FB PPU:1350,4050,CYC: 1350
CBDF  A9 FF     LDA #$FF                        A:02 X:AA Y:75 P:67 SP:FB PPU:1352,4056,CYC: 1352
CBE1  85 01     STA $01 = FF                    A:FF X:AA Y:75 P:E5 SP:FB PPU:1354,4062,CYC: 1354
CBE3  A9 44     LDA #$44                        A:FF X:AA Y:75 P:E5 SP:FB PPU:1357,4071,CYC: 1357
CBE5  A2 55     LDX #$55                        A:44 X:AA Y:75 P:65 SP:FB PPU:1359,4077,CYC: 1359
CBE7  A0 66     LDY #$66                        A:44 X:55 Y:75 P:65 SP:FB PPU:1361,4083,CYC: 1361
CBE9  E8        INX                             A:44 X:55 Y:66 P:65 SP:FB PPU:1363,4089,CYC: 1363
CBEA  88        DEY                             A:44 X:56 Y:66 P:65 SP:FB PPU:1365,4095,CYC: 1365
CBEB  E0 56     CPX #$56                        A:44 X:56 Y:65 P:65 SP:FB PPU:1367,4101,CYC: 1367
CBED  D0 21     BNE $CC10                       A:44 X:56 Y:65 P:67 SP:FB PPU:1369,4107,CYC: 1369
CBEF  C0 65     CPY #$65                        A:44 X:56 Y:65 P:67 SP:FB PPU:1371,4113,CYC: 1371
CBF1  D0 1D     BNE $CC10                       A:44 X:56 Y:65 P:67 SP:FB PPU:1373,4119,CYC: 1373
CBF3  E8        INX                             A:44 X:56 Y:65 P:67 SP:FB PPU:1375,4125,CYC: 1375
CBF4  E8        INX                             A:44 X:57 Y:65 P:65 SP:FB PPU:1377,4131,CYC: 1377
CBF5  88        DEY                             A:44 X:58 Y:65 P:65 SP:FB PPU:1379,4137,CYC: 1379
CBF6  88        DEY                             A:44 X:58 Y:64 P:65 SP:FB PPU:1381,4143,CYC: 1381
CBF7  E0 58     CPX #$58                        A:44 X:58 Y:63 P:65 SP:FB PPU:1383,4149,CYC: 1383
CBF9  D0 15     BNE $CC10                       A:44 X:58 Y:63 P:67 SP:FB PPU:1385,4155,CYC: 1385
CBFB  C0 63     CPY #$63                        A:44 X:58 Y:63 P:67 SP:FB PPU:1387,4161,CYC: 1387
CBFD  D0 11     BNE $CC10                       A:44 X:58 Y:63 P:67 SP:FB PPU:1389,4167,CYC: 1389
CBFF  CA        DEX                             A:44 X:58 Y:63 P:67 SP:FB PPU:1391,4173,CYC: 1391
CC00  C8        INY                             A:44 X:57 Y:63 P:65 SP:FB PPU:1393,4179,CYC: 1393
CC01  E0 57     CPX #$57                        A:44 X:57 Y:64 P:65 SP:FB PPU:1395,4185,CYC: 1395
CC03  D0 0B     BNE $CC10                       A:44 X:57 Y:64 P:67 SP:FB PPU:1397,4191,CYC: 1397
CC05  C0 64     CPY #$64                        A:44 X:57 Y:64 P:67 SP:FB PPU:1399,4197,CYC: 1399
CC07  D0 07     BNE $CC10                       A:44 X:57 Y:64 P:67 SP:FB PPU:1401,4203,CYC: 1401
CC09  C9 44     CMP #$44                        A:44 X:57 Y:64 P:67 SP:FB PPU:1403,4209,CYC: 1403
CC0B  D0 03     BNE $CC10                       A:44 X:57 Y:64 P:67 SP:FB PPU:1405,4215,CYC: 1405
CC0D  4C 14 CC  JMP $CC14                       A:44 X:57 Y:64 P:67 SP:FB PPU:1407,4221,CYC: 1407
CC14  EA        NOP                             A:44 X:57 Y:64 P:67 SP:FB PPU:1410,4230,CYC: 1410
CC15  38        SEC                             A:44 X:57 Y:64 P:67 SP:FB PPU:1412,4236,CYC: 1412
CC16  A2 69     LDX #$69                        A:44 X:57 Y:64 P:67 SP:FB PPU:1414,4242,CYC: 1414
CC18  A9 96     LDA #$96                        A:44 X:69 Y:64 P:65 SP:FB PPU:1416,4248,CYC: 1416
CC1A  24 01     BIT $01 = FF                    A:96 X:69 Y:64 P:E5 SP:FB PPU:1418,4254,CYC: 1418
CC1C  A0 FF     LDY #$FF                        A:96 X:69 Y:64 P:E5 SP:FB PPU:1421,4263,CYC: 1421
CC1E  C8        INY                             A:96 X:69 Y:FF P:E5 SP:FB PPU:1423,4269,CYC: 1423
CC1F  D0 3D     BNE $CC5E                       A:96 X:69 Y:00 P:67 SP:FB PPU:1425,4275,CYC: 1425
CC21  30 3B     BMI $CC5E                       A:96 X:69 Y:00 P:67 SP:FB PPU:1427,4281,CYC: 1427
CC23  90 39     BCC $CC5E                       A:96 X:69 Y:00 P:67 SP:FB PPU:1429,4287,CYC: 1429
CC25  50 37     BVC $CC5E                       A:96 X:69 Y:00 P:67 SP:FB PPU:1431,4293,CYC: 1431
CC27  C0 00     CPY #$00                        A:96 X:69 Y:00 P:67 SP:FB PPU:1433,4299,CYC: 1433
CC29  D0 33     BNE $CC5E                       A:96 X:69 Y:00 P:67 SP:FB PPU:1435,4305,CYC: 1435
CC2B  C8        INY                             A:96 X:69 Y:00 P:67 SP:FB PPU:1437,4311,CYC: 1437
CC2C  F0 30     BEQ $CC5E                       A:96 X:69 Y:01 P:65 SP:FB PPU:1439,4317,CYC: 1439
CC2E  30 2E     BMI $CC5E                       A:96 X:69 Y:01 P:65 SP:FB PPU:1441,4323,CYC: 1441
CC30  90 2C     BCC $CC5E                       A:96 X:69 Y:01 P:65 SP:FB PPU:1443,4329,CYC: 1443
CC32  50 2A     BVC $CC5E                       A:96 X:69 Y:01 P:65 SP:FB PPU:1445,4335,CYC: 1445
CC34  18        CLC                             A:96 X:69 Y:01 P:65 SP:FB PPU:1447,4341,CYC: 1447
CC35  B8        CLV                             A:96 X:69 Y:01 P:64 SP:FB PPU:1449,4347,CYC: 1449
CC36  A0 00     LDY #$00                        A:96 X:69 Y:01 P:24 SP:FB PPU:1451,4353,CYC: 1451
CC38  88        DEY                             A:96 X:69 Y:00 P:26 SP:FB PPU:1453,4359,CYC: 1453
CC39  F0 23     BEQ $CC5E                       A:96 X:69 Y:FF P:A4 SP:FB PPU:1455,4365,CYC: 1455
CC3B  10 21     BPL $CC5E                       A:96 X:69 Y:FF P:A4 SP:FB PPU:1457,4371,CYC: 1457
CC3D  B0 1F     BCS $CC5E                       A:96 X:69 Y:FF P:A4 SP:FB PPU:1459,4377,CYC: 1459
CC3F  70 1D     BVS $CC5E                       A:96 X:69 Y:FF P:A4 SP:FB PPU:1461,4383,CYC: 1461
CC41  C0 FF     CPY #$FF                        A:96 X:69 Y:FF P:A4 SP:FB PPU:1463,4389,CYC: 1463
CC43  D0 19     BNE $CC5E                       A:96 X:69 Y:FF P:27 SP:FB PPU:1465,4395,CYC: 1465
CC45  18        CLC                             A:96 X:69 Y:FF P:27 SP:FB PPU:1467,4401,CYC: 1467
CC46  88        DEY                             A:96 X:69 Y:FF P:26 SP:FB PPU:1469,4407,CYC: 1469
CC47  F0 15     BEQ $CC5E                       A:96 X:69 Y:FE P:A4 SP:FB PPU:1471,4413,CYC: 1471
CC49  10 13     BPL $CC5E                       A:96 X:69 Y:FE P:A4 SP:FB PPU:1473,4419,CYC: 1473
CC4B  B0 11     BCS $CC5E                       A:96 X:69 Y:FE P:A4 SP:FB PPU:1475,4425,CYC: 1475
CC4D  70 0F     BVS $CC5E                       A:96 X:69 Y:FE P:A4 SP:FB PPU:1477,4431,CYC: 1477
CC4F  C0 FE     CPY #$FE                        A:96 X:69 Y:FE P:A4 SP:FB PPU:1479,4437,CYC: 1479
CC51  D0 0B     BNE $CC5E                       A:96 X:69 Y:FE P:27 SP:FB PPU:1481,4443,CYC: 1481
CC53  C9 96     CMP #$96                        A:96 X:69 Y:FE P:27 SP:FB PPU:1483,4449,CYC: 1483
CC55  D0 07     BNE $CC5E                       A:96 X:69 Y:FE P:27 SP:FB PPU:1485,4455,CYC: 1485
CC57  E0 69     CPX #$69                        A:96 X:69 Y:FE P:27 SP:FB PPU:1487,4461,CYC: 1487
CC59  D0 03     BNE $CC5E                       A:96 X:69 Y:FE P:27 SP:FB PPU:1489,4467,CYC: 1489
CC5B  4C 62 CC  JMP $CC62                       A:96 X:69 Y:FE P:27 SP:FB PPU:1491,4473,CYC: 1491
CC62  EA        NOP                             A:96 X:69 Y:FE P:27 SP:FB PPU:1494,4482,CYC: 1494
CC63  38        SEC                             A:96 X:69 Y:FE P:27 SP:FB PPU:1496,4488,CYC: 1496
CC64  A0 69     LDY #$69                        A:96 X:69 Y:FE P:27 SP:FB PPU:1498,4494,CYC: 1498
CC66  A9 96     LDA #$96                        A:96 X:69 Y:69 P:25 SP:FB PPU:1500,4500,CYC: 1500
CC68  24 01     BIT $01 = FF                    A:96 X:69 Y:69 P:A5 SP:FB PPU:1502,4506,CYC: 1502
CC6A  A2 FF     LDX #$FF                        A:96 X:69 Y:69 P:E5 SP:FB PPU:1505,4515,CYC: 1505
CC6C  E8        INX                             A:96 X:FF Y:69 P:E5 SP:FB PPU:1507,4521,CYC: 1507
CC6D  D0 3D     BNE $CCAC                       A:96 X:00 Y:69 P:67 SP:FB PPU:1509,4527,CYC: 1509
CC6F  30 3B     BMI $CCAC                       A:96 X:00 Y:69 P:67 SP:FB PPU:1511,4533,CYC: 1511
CC71  90 39     BCC $CCAC                       A:96 X:00 Y:69 P:67 SP:FB PPU:1513,4539,CYC: 1513
CC73  50 37     BVC $CCAC                       A:96 X:00 Y:69 P:67 SP:FB PPU:1515,4545,CYC: 1515
CC75  E0 00     CPX #$00                        A:96 X:00 Y:69 P:67 SP:FB PPU:1517,4551,CYC: 1517
CC77  D0 33     BNE $CCAC                       A:96 X:00 Y:69 P:67 SP:FB PPU:1519,4557,CYC: 1519
CC79  E8        INX                             A:96 X:00 Y:69 P:67 SP:FB PPU:1521,4563,CYC: 1521
CC7A  F0 30     BEQ $CCAC                       A:96 X:01 Y:69 P:65 SP:FB PPU:1523,4569,CYC: 1523
CC7C  30 2E     BMI $CCAC                       A:96 X:01 Y:69 P:65 SP:FB PPU:1525,4575,CYC: 1525
CC7E  90 2C     BCC $CCAC                       A:96 X:01 Y:69 P:65 SP:FB PPU:1527,4581,CYC: 1527
CC80  50 2A     BVC $CCAC                       A:96 X:01 Y:69 P:65 SP:FB PPU:1529,4587,CYC: 1529
CC82  18        CLC                             A:96 X:01 Y:69 P:65 SP:FB PPU:1531,4593,CYC: 1531
CC83  B8        CLV                             A:96 X:01 Y:69 P:64 SP:FB PPU:1533,4599,CYC: 1533
CC84  A2 00     LDX #$00                        A:96 X:01 Y:69 P:24 SP:FB PPU:1535,4605,CYC: 1535
CC86  CA        DEX                             A:96 X:00 Y:69 P:26 SP:FB PPU:1537,4611,CYC: 1537
CC87  F0 23     BEQ $CCAC                       A:96 X:FF Y:69 P:A4 SP:FB PPU:1539,4617,CYC: 1539
CC89  10 21     BPL $CCAC                       A:96 X:FF Y:69 P:A4 SP:FB PPU:1541,4623,CYC: 1541
CC8B  B0 1F     BCS $CCAC                       A:96 X:FF Y:69 P:A4 SP:FB PPU:1543,4629,CYC: 1543
CC8D  70 1D     BVS $CCAC                       A:96 X:FF Y:69 P:A4 SP:FB PPU:1545,4635,CYC: 1545
CC8F  E0 FF     CPX #$FF                        A:96 X:FF Y:69 P:A4 SP:FB PPU:1547,4641,CYC: 1547
CC91  D0 19     BNE $CCAC                       A:96 X:FF Y:69 P:27 SP:FB PPU:1549,4647,CYC: 1549
CC93  18        CLC                             A:96 X:FF Y:69 P:27 SP:FB PPU:1551,4653,CYC: 1551
CC94  CA        DEX                             A:96 X:FF Y:69 P:26 SP:FB PPU:1553,4659,CYC: 1553
CC95  F0 15     BEQ $CCAC                       A:96 X:FE Y:69 P:A4 SP:FB PPU:1555,4665,CYC: 1555
CC97  10 13     BPL $CCAC                       A:96 X:FE Y:69 P:A4 SP:FB PPU:1557,4671,CYC: 1557
CC99  B0 11     BCS $CCAC                       A:96 X:FE Y:69 P:A4 SP:FB PPU:1559,4677,CYC: 1559
CC9B  70 0F     BVS $CCAC                       A:96 X:FE Y:69 P:A4 SP:FB PPU:1561,4683,CYC: 1561
CC9D  E0 FE     CPX #$FE                        A:96 X:FE Y:69 P:A4 SP:FB PPU:1563,4689,CYC: 1563
CC9F  D0 0B     BNE $CCAC                       A:96 X:FE Y:69 P:27 SP:FB PPU:1565,4695,CYC: 1565
CCA1  C9 96     CMP #$96                        A:96 X:FE Y:69 P:27 SP:FB PPU:1567,4701,CYC: 1567
CCA3  D0 07     BNE $CCAC                       A:96 X:FE Y:69 P:27 SP:FB PPU:1569,4707,CYC: 1569
CCA5  C0 69     CPY #$69                        A:96 X:FE Y:69 P:27 SP:FB PPU:1571,4713,CYC: 1571
CCA7  D0 03     BNE $CCAC                       A:96 X:FE Y:69 P:27 SP:FB PPU:1573,4719,CYC: 1573
CCA9  4C B0 CC  JMP $CCB0                       A:96 X:FE Y:69 P:27 SP:FB PPU:1575,4725,CYC: 1575
CCB0  EA        NOP                             A:96 X:FE Y:69 P:27 SP:FB PPU:1578,4734,CYC: 1578
CCB1  A9 85     LDA #$85                        A:96 X:FE Y:69 P:27 SP:FB PPU:1580,4740,CYC: 1580
CCB3  A2 34     LDX #$34                        A:85 X:FE Y:69 P:A5 SP:FB PPU:1582,4746,CYC: 1582
CCB5  A0 99     LDY #$99                        A:85 X:34 Y:69 P:25 SP:FB PPU:1584,4752,CYC: 1584
CCB7  18        CLC                             A:85 X:34 Y:99 P:A5 SP:FB PPU:1586,4758,CYC: 1586
CCB8  24 01     BIT $01 = FF                    A:85 X:34 Y:99 P:A4 SP:FB PPU:1588,4764,CYC: 1588
CCBA  A8        TAY                             A:85 X:34 Y:99 P:E4 SP:FB PPU:1591,4773,CYC: 1591
CCBB  F0 2E     BEQ $CCEB                       A:85 X:34 Y:85 P:E4 SP:FB PPU:1593,4779,CYC: 1593
CCBD  B0 2C     BCS $CCEB                       A:85 X:34 Y:85 P:E4 SP:FB PPU:1595,4785,CYC: 1595
CCBF  50 2A     BVC $CCEB                       A:85 X:34 Y:85 P:E4 SP:FB PPU:1597,4791,CYC: 1597
CCC1  10 28     BPL $CCEB                       A:85 X:34 Y:85 P:E4 SP:FB PPU:1599,4797,CYC: 1599
CCC3  C9 85     CMP #$85                        A:85 X:34 Y:85 P:E4 SP:FB PPU:1601,4803,CYC: 1601
CCC5  D0 24     BNE $CCEB                       A:85 X:34 Y:85 P:67 SP:FB PPU:1603,4809,CYC: 1603
CCC7  E0 34     CPX #$34                        A:85 X:34 Y:85 P:67 SP:FB PPU:1605,4815,CYC: 1605
CCC9  D0 20     BNE $CCEB                       A:85 X:34 Y:85 P:67 SP:FB PPU:1607,4821,CYC: 1607
CCCB  C0 85     CPY #$85                        A:85 X:34 Y:85 P:67 SP:FB PPU:1609,4827,CYC: 1609
CCCD  D0 1C     BNE $CCEB                       A:85 X:34 Y:85 P:67 SP:FB PPU:1611,4833,CYC: 1611
CCCF  A9 00     LDA #$00                        A:85 X:34 Y:85 P:67 SP:FB PPU:1613,4839,CYC: 1613
CCD1  38        SEC                             A:00 X:34 Y:85 P:67 SP:FB PPU:1615,4845,CYC: 1615
CCD2  B8        CLV                             A:00 X:34 Y:85 P:67 SP:FB PPU:1617,4851,CYC: 1617
CCD3  A8        TAY                             A:00 X:34 Y:85 P:27 SP:FB PPU:1619,4857,CYC: 1619
CCD4  D0 15     BNE $CCEB                       A:00 X:34 Y:00 P:27 SP:FB PPU:1621,4863,CYC: 1621
CCD6  90 13     BCC $CCEB                       A:00 X:34 Y:00 P:27 SP:FB PPU:1623,4869,CYC: 1623
CCD8  70 11     BVS $CCEB                       A:00 X:34 Y:00 P:27 SP:FB PPU:1625,4875,CYC: 1625
CCDA  30 0F     BMI $CCEB                       A:00 X:34 Y:00 P:27 SP:FB PPU:1627,4881,CYC: 1627
CCDC  C9 00     CMP #$00                        A:00 X:34 Y:00 P:27 SP:FB PPU:1629,4887,CYC: 1629
CCDE  D0 0B     BNE $CCEB                       A:00 X:34 Y:00 P:27 SP:FB PPU:1631,4893,CYC: 1631
CCE0  E0 34     CPX #$34                        A:00 X:34 Y:00 P:27 SP:FB PPU:1633,4899,CYC: 1633
CCE2  D0 07     BNE $CCEB                       A:00 X:34 Y:00 P:27 SP:FB PPU:1635,4905,CYC: 1635
CCE4  C0 00     CPY #$00                        A:00 X:34 Y:00 P:27 SP:FB PPU:1637,4911,CYC: 1637
CCE6  D0 03     BNE $CCEB                       A:00 X:34 Y:00 P:27 SP:FB PPU:1639,4917,CYC: 1639
CCE8  4C EF CC  JMP $CCEF                       A:00 X:34 Y:00 P:27 SP:FB PPU:1641,4923,CYC: 1641
CCEF  EA        NOP                             A:00 X:34 Y:00 P:27 SP:FB PPU:1644,4932,CYC: 1644
CCF0  A9 85     LDA #$85                        A:00 X:34 Y:00 P:27 SP:FB PPU:1646,4938,CYC: 1646
CCF2  A2 34     LDX #$34                        A:85 X:34 Y:00 P:A5 SP:FB PPU:1648,4944,CYC: 1648
CCF4  A0 99     LDY #$99                        A:85 X:34 Y:00 P:25 SP:FB PPU:1650,4950,CYC: 1650
CCF6  18        CLC                             A:85 X:34 Y:99 P:A5 SP:FB PPU:1652,4956,CYC: 1652
CCF7  24 01     BIT $01 = FF                    A:85 X:34 Y:99 P:A4 SP:FB PPU:1654,4962,CYC: 1654
CCF9  AA        TAX                             A:85 X:34 Y:99 P:E4 SP:FB PPU:1657,4971,CYC: 1657
CCFA  F0 2E     BEQ $CD2A                       A:85 X:85 Y:99 P:E4 SP:FB PPU:1659,4977,CYC: 1659
CCFC  B0 2C     BCS $CD2A                       A:85 X:85 Y:99 P:E4 SP:FB PPU:1661,4983,CYC: 1661
CCFE  50 2A     BVC $CD2A                       A:85 X:85 Y:99 P:E4 SP:FB PPU:1663,4989,CYC: 1663
CD00  10 28     BPL $CD2A                       A:85 X:85 Y:99 P:E4 SP:FB PPU:1665,4995,CYC: 1665
CD02  C9 85     CMP #$85                        A:85 X:85 Y:99 P:E4 SP:FB PPU:1667,5001,CYC: 1667
CD04  D0 24     BNE $CD2A                       A:85 X:85 Y:99 P:67 SP:FB PPU:1669,5007,CYC: 1669
CD06  E0 85     CPX #$85                        A:85 X:85 Y:99 P:67 SP:FB PPU:1671,5013,CYC: 1671
CD08  D0 20     BNE $CD2A                       A:85 X:85 Y:99 P:67 SP:FB PPU:1673,5019,CYC: 1673
CD0A  C0 99     CPY #$99                        A:85 X:85 Y:99 P:67 SP:FB PPU:1675,5025,CYC: 1675
CD0C  D0 1C     BNE $CD2A                       A:85 X:85 Y:99 P:67 SP:FB PPU:1677,5031,CYC: 1677
CD0E  A9 00     LDA #$00                        A:85 X:85 Y:99 P:67 SP:FB PPU:1679,5037,CYC: 1679
CD10  38        SEC                             A:00 X:85 Y:99 P:67 SP:FB PPU:1681,5043,CYC: 1681
CD11  B8        CLV                             A:00 X:85 Y:99 P:67 SP:FB PPU:1683,5049,CYC: 1683
CD12  AA        TAX                             A:00 X:85 Y:99 P:27 SP:FB PPU:1685,5055,CYC: 1685
CD13  D0 15     BNE $CD2A                       A:00 X:00 Y:99 P:27 SP:FB PPU:1687,5061,CYC: 1687
CD15  90 13     BCC $CD2A                       A:00 X:00 Y:99 P:27 SP:FB PPU:1689,5067,CYC: 1689
CD17  70 11     BVS $CD2A                       A:00 X:00 Y:99 P:27 SP:FB PPU:1691,5073,CYC: 1691
CD19  30 0F     BMI $CD2A                       A:00 X:00 Y:99 P:27 SP:FB PPU:1693,5079,CYC: 1693
CD1B  C9 00     CMP #$00                        A:00 X:00 Y:99 P:27 SP:FB PPU:1695,5085,CYC: 1695
CD1D  D0 0B     BNE $CD2A                       A:00 X:00 Y:99 P:27 SP:FB PPU:1697,5091,CYC: 1697
CD1F  E0 00     CPX #$00                        A:00 X:00 Y:99 P:27 SP:FB PPU:1699,5097,CYC: 1699
CD21  D0 07     BNE $CD2A                       A:00 X:00 Y:99 P:27 SP:FB PPU:1701,5103,CYC: 1701
CD23  C0 99     CPY #$99                        A:00 X:00 Y:99 P:27 SP:FB PPU:1703,5109,CYC: 1703
CD25  D0 03     BNE $CD2A                       A:00 X:00 Y:99 P:27 SP:FB PPU:1705,5115,CYC: 1705
CD27  4C 2E CD  JMP $CD2E                       A:00 X:00 Y:99 P:27 SP:FB PPU:1707,5121,CYC: 1707
CD2E  EA        NOP                             A:00 X:00 Y:99 P:27 SP:FB PPU:1710,5130,CYC: 1710
CD2F  A9 85     LDA #$85                        A:00 X:00 Y:99 P:27 SP:FB PPU:1712,5136,CYC: 1712
CD31  A2 34     LDX #$34                        A:85 X:00 Y:99 P:A5 SP:FB PPU:1714,5142,CYC: 1714
CD33  A0 99     LDY #$99                        A:85 X:34 Y:99 P:25 SP:FB PPU:1716,5148,CYC: 1716
CD35  18        CLC                             A:85 X:34 Y:99 P:A5 SP:FB PPU:1718,5154,CYC: 1718
CD36  24 01     BIT $01 = FF                    A:85 X:34 Y:99 P:A4 SP:FB PPU:1720,5160,CYC: 1720
CD38  98        TYA                             A:85 X:34 Y:99 P:E4 SP:FB PPU:1723,5169,CYC: 1723
CD39  F0 2E     BEQ $CD69                       A:99 X:34 Y:99 P:E4 SP:FB PPU:1725,5175,CYC: 1725
CD3B  B0 2C     BCS $CD69                       A:99 X:34 Y:99 P:E4 SP:FB PPU:1727,5181,CYC: 1727
CD3D  50 2A     BVC $CD69                       A:99 X:34 Y:99 P:E4 SP:FB PPU:1729,5187,CYC: 1729
CD3F  10 28     BPL $CD69                       A:99 X:34 Y:99 P:E4 SP:FB PPU:1731,5193,CYC: 1731
CD41  C9 99     CMP #$99                        A:99 X:34 Y:99 P:E4 SP:FB PPU:1733,5199,CYC: 1733
CD43  D0 24     BNE $CD69                       A:99 X:34 Y:99 P:67 SP:FB PPU:1735,5205,CYC: 1735
CD45  E0 34     CPX #$34                        A:99 X:34 Y:99 P:67 SP:FB PPU:1737,5211,CYC: 1737
CD47  D0 20     BNE $CD69                       A:99 X:34 Y:99 P:67 SP:FB PPU:1739,5217,CYC: 1739
CD49  C0 99     CPY #$99                        A:99 X:34 Y:99 P:67 SP:FB PPU:1741,5223,CYC: 1741
CD4B  D0 1C     BNE $CD69                       A:99 X:34 Y:99 P:67 SP:FB PPU:1743,5229,CYC: 1743
CD4D  A0 00     LDY #$00                        A:99 X:34 Y:99 P:67 SP:FB PPU:1745,5235,CYC: 1745
CD4F  38        SEC                             A:99 X:34 Y:00 P:67 SP:FB PPU:1747,5241,CYC: 1747
CD50  B8        CLV                             A:99 X:34 Y:00 P:67 SP:FB PPU:1749,5247,CYC: 1749
CD51  98        TYA                             A:99 X:34 Y:00 P:27 SP:FB PPU:1751,5253,CYC: 1751
CD52  D0 15     BNE $CD69                       A:00 X:34 Y:00 P:27 SP:FB PPU:1753,5259,CYC: 1753
CD54  90 13     BCC $CD69                       A:00 X:34 Y:00 P:27 SP:FB PPU:1755,5265,CYC: 1755
CD56  70 11     BVS $CD69                       A:00 X:34 Y:00 P:27 SP:FB PPU:1757,5271,CYC: 1757
CD58  30 0F     BMI $CD69                       A:00 X:34 Y:00 P:27 SP:FB PPU:1759,5277,CYC: 1759
CD5A  C9 00     CMP #$00                        A:00 X:34 Y:00 P:27 SP:FB PPU:1761,5283,CYC: 1761
CD5C  D0 0B     BNE $CD69                       A:00 X:34 Y:00 P:27 SP:FB PPU:1763,5289,CYC: 1763
CD5E  E0 34     CPX #$34                        A:00 X:34 Y:00 P:27 SP:FB PPU:1765,5295,CYC: 1765
CD60  D0 07     BNE $CD69                       A:00 X:34 Y:00 P:27 SP:FB PPU:1767,5301,CYC: 1767
CD62  C0 00     CPY #$00                        A:00 X:34 Y:00 P:27 SP:FB PPU:1769,5307,CYC: 1769
CD64  D0 03     BNE $CD69                       A:00 X:34 Y:00 P:27 SP:FB PPU:1771,5313,CYC: 1771
CD66  4C 6D CD  JMP $CD6D                       A:00 X:34 Y:00 P:27 SP:FB PPU:1773,5319,CYC: 1773
CD6D  EA        NOP                             A:00 X:34 Y:00 P:27 SP:FB PPU:1776,5328,CYC: 1776
CD6E  A9 85     LDA #$85                        A:00 X:34 Y:00 P:27 SP:FB PPU:1778,5334,CYC: 1778
CD70  A2 34     LDX #$34                        A:85 X:34 Y:00 P:A5 SP:FB PPU:1780,5340,CYC: 1780
CD72  A0 99     LDY #$99                        A:85 X:34 Y:00 P:25 SP:FB PPU:1782,5346,CYC: 1782
CD74  18        CLC                             A:85 X:34 Y:99 P:A5 SP:FB PPU:1784,5352,CYC: 1784
CD75  24 01     BIT $01 = FF                    A:85 X:34 Y:99 P:A4 SP:FB PPU:1786,5358,CYC: 1786
CD77  8A        TXA                             A:85 X:34 Y:99 P:E4 SP:FB PPU:1789,5367,CYC: 1789
CD78  F0 2E     BEQ $CDA8                       A:34 X:34 Y:99 P:64 SP:FB PPU:1791,5373,CYC: 1791
CD7A  B0 2C     BCS $CDA8                       A:34 X:34 Y:99 P:64 SP:FB PPU:1793,5379,CYC: 1793
CD7C  50 2A     BVC $CDA8                       A:34 X:34 Y:99 P:64 SP:FB PPU:1795,5385,CYC: 1795
CD7E  30 28     BMI $CDA8                       A:34 X:34 Y:99 P:64 SP:FB PPU:1797,5391,CYC: 1797
CD80  C9 34     CMP #$34                        A:34 X:34 Y:99 P:64 SP:FB PPU:1799,5397,CYC: 1799
CD82  D0 24     BNE $CDA8                       A:34 X:34 Y:99 P:67 SP:FB PPU:1801,5403,CYC: 1801
CD84  E0 34     CPX #$34                        A:34 X:34 Y:99 P:67 SP:FB PPU:1803,5409,CYC: 1803
CD86  D0 20     BNE $CDA8                       A:34 X:34 Y:99 P:67 SP:FB PPU:1805,5415,CYC: 1805
CD88  C0 99     CPY #$99                        A:34 X:34 Y:99 P:67 SP:FB PPU:1807,5421,CYC: 1807
CD8A  D0 1C     BNE $CDA8                       A:34 X:34 Y:99 P:67 SP:FB PPU:1809,5427,CYC: 1809
CD8C  A2 00     LDX #$00                        A:34 X:34 Y:99 P:67 SP:FB PPU:1811,5433,CYC: 1811
CD8E  38        SEC                             A:34 X:00 Y:99 P:67 SP:FB PPU:1813,5439,CYC: 1813
CD8F  B8        CLV                             A:34 X:00 Y:99 P:67 SP:FB PPU:1815,5445,CYC: 1815
CD90  8A        TXA                             A:34 X:00 Y:99 P:27 SP:FB PPU:1817,5451,CYC: 1817
CD91  D0 15     BNE $CDA8                       A:00 X:00 Y:99 P:27 SP:FB PPU:1819,5457,CYC: 1819
CD93  90 13     BCC $CDA8                       A:00 X:00 Y:99 P:27 SP:FB PPU:1821,5463,CYC: 1821
CD95  70 11     BVS $CDA8                       A:00 X:00 Y:99 P:27 SP:FB PPU:1823,5469,CYC: 1823
CD97  30 0F     BMI $CDA8                       A:00 X:00 Y:99 P:27 SP:FB PPU:1825,5475,CYC: 1825
CD99  C9 00     CMP #$00                        A:00 X:00 Y:99 P:27 SP:FB PPU:1827,5481,CYC: 1827
CD9B  D0 0B     BNE $CDA8                       A:00 X:00 Y:99 P:27 SP:FB PPU:1829,5487,CYC: 1829
CD9D  E0 00     CPX #$00                        A:00 X:00 Y:99 P:27 SP:FB PPU:1831,5493,CYC: 1831
CD9F  D0 07     BNE $CDA8                       A:00 X:00 Y:99 P:27 SP:FB PPU:1833,5499,CYC: 1833
CDA1  C0 99     CPY #$99                        A:00 X:00 Y:99 P:27 SP:FB PPU:1835,5505,CYC: 1835
CDA3  D0 03     BNE $CDA8                       A:00 X:00 Y:99 P:27 SP:FB PPU:1837,5511,CYC: 1837
CDA5  4C AC CD  JMP $CDAC                       A:00 X:00 Y:99 P:27 SP:FB PPU:1839,5517,CYC: 1839
CDAC  EA        NOP                             A:00 X:00 Y:99 P:27 SP:FB PPU:1842,5526,CYC: 1842
CDAD  BA        TSX                             A:00 X:00 Y:99 P:27 SP:FB PPU:1844,5532,CYC: 1844
CDAE  8E FF 07  STX $07FF = 00                  A:00 X:FB Y:99 P:A5 SP:FB PPU:1846,5538,CYC: 1846
CDB1  A0 33     LDY #$33                        A:00 X:FB Y:99 P:A5 SP:FB PPU:1850,5550,CYC: 1850
CDB3  A2 69     LDX #$69                        A:00 X:FB Y:33 P:25 SP:FB PPU:1852,5556,CYC: 1852
CDB5  A9 84     LDA #$84                        A:00 X:69 Y:33 P:25 SP:FB PPU:1854,5562,CYC: 1854
CDB7  18        CLC                             A:84 X:69 Y:33 P:A5 SP:FB PPU:1856,5568,CYC: 1856
CDB8  24 01     BIT $01 = FF                    A:84 X:69 Y:33 P:A4 SP:FB PPU:1858,5574,CYC: 1858
CDBA  9A        TXS                             A:84 X:69 Y:33 P:E4 SP:FB PPU:1861,5583,CYC: 1861
CDBB  F0 32     BEQ $CDEF                       A:84 X:69 Y:33 P:E4 SP:69 PPU:1863,5589,CYC: 1863
CDBD  10 30     BPL $CDEF                       A:84 X:69 Y:33 P:E4 SP:69 PPU:1865,5595,CYC: 1865
CDBF  B0 2E     BCS $CDEF                       A:84 X:69 Y:33 P:E4 SP:69 PPU:1867,5601,CYC: 1867
CDC1  50 2C     BVC $CDEF                       A:84 X:69 Y:33 P:E4 SP:69 PPU:1869,5607,CYC: 1869
CDC3  C9 84     CMP #$84                        A:84 X:69 Y:33 P:E4 SP:69 PPU:1871,5613,CYC: 1871
CDC5  D0 28     BNE $CDEF                       A:84 X:69 Y:33 P:67 SP:69 PPU:1873,5619,CYC: 1873
CDC7  E0 69     CPX #$69                        A:84 X:69 Y:33 P:67 SP:69 PPU:1875,5625,CYC: 1875
CDC9  D0 24     BNE $CDEF                       A:84 X:69 Y:33 P:67 SP:69 PPU:1877,5631,CYC: 1877
CDCB  C0 33     CPY #$33                        A:84 X:69 Y:33 P:67 SP:69 PPU:1879,5637,CYC: 1879
CDCD  D0 20     BNE $CDEF                       A:84 X:69 Y:33 P:67 SP:69 PPU:1881,5643,CYC: 1881
CDCF  A0 01     LDY #$01                        A:84 X:69 Y:33 P:67 SP:69 PPU:1883,5649,CYC: 1883
CDD1  A9 04     LDA #$04                        A:84 X:69 Y:01 P:65 SP:69 PPU:1885,5655,CYC: 1885
CDD3  38        SEC                             A:04 X:69 Y:01 P:65 SP:69 PPU:1887,5661,CYC: 1887
CDD4  B8        CLV                             A:04 X:69 Y:01 P:65 SP:69 PPU:1889,5667,CYC: 1889
CDD5  A2 00     LDX #$00                        A:04 X:69 Y:01 P:25 SP:69 PPU:1891,5673,CYC: 1891
CDD7  BA        TSX                             A:04 X:00 Y:01 P:27 SP:69 PPU:1893,5679,CYC: 1893
CDD8  F0 15     BEQ $CDEF                       A:04 X:69 Y:01 P:25 SP:69 PPU:1895,5685,CYC: 1895
CDDA  30 13     BMI $CDEF                       A:04 X:69 Y:01 P:25 SP:69 PPU:1897,5691,CYC: 1897
CDDC  90 11     BCC $CDEF                       A:04 X:69 Y:01 P:25 SP:69 PPU:1899,5697,CYC: 1899
CDDE  70 0F     BVS $CDEF                       A:04 X:69 Y:01 P:25 SP:69 PPU:1901,5703,CYC: 1901
CDE0  E0 69     CPX #$69                        A:04 X:69 Y:01 P:25 SP:69 PPU:1903,5709,CYC: 1903
CDE2  D0 0B     BNE $CDEF                       A:04 X:69 Y:01 P:27 SP:69 PPU:1905,5715,CYC: 1905
CDE4  C9 04     CMP #$04                        A:04 X:69 Y:01 P:27 SP:69 PPU:1907,5721,CYC: 1907
CDE6  D0 07     BNE $CDEF                       A:04 X:69 Y:01 P:27 SP:69 PPU:1909,5727,CYC: 1909
CDE8  C0 01     CPY #$01                        A:04 X:69 Y:01 P:27 SP:69 PPU:1911,5733,CYC: 1911
CDEA  D0 03     BNE $CDEF                       A:04 X:69 Y:01 P:27 SP:69 PPU:1913,5739,CYC: 1913
CDEC  4C F3 CD  JMP $CDF3                       A:04 X:69 Y:01 P:27 SP:69 PPU:1915,5745,CYC: 1915
CDF3  AE FF 07  LDX $07FF = FB                  A:04 X:69 Y:01 P:27 SP:69 PPU:1918,5754,CYC: 1918
CDF6  9A        TXS                             A:04 X:FB Y:01 P:A5 SP:69 PPU:1922,5766,CYC: 1922
CDF7  60        RTS                             A:04 X:FB Y:01 P:A5 SP:FB PPU:1924,5772,CYC: 1924
C609  20 F8 CD  JSR $CDF8                       A:04 X:FB Y:01 P:A5 SP:FD PPU:1930,5790,CYC: 1930
CDF8  A9 FF     LDA #$FF                        A:04 X:FB Y:01 P:A5 SP:FB PPU:1936,5808,CYC: 1936
CDFA  85 01     STA $01 = FF                    A:FF X:FB Y:01 P:A5 SP:FB PPU:1938,5814,CYC: 1938
CDFC  BA        TSX                             A:FF X:FB Y:01 P:A5 SP:FB PPU:1941,5823,CYC: 1941
CDFD  8E FF 07  STX $07FF = FB                  A:FF X:FB Y:01 P:A5 SP:FB PPU:1943,5829,CYC: 1943
CE00  EA        NOP                             A:FF X:FB Y:01 P:A5 SP:FB PPU:1947,5841,CYC: 1947
CE01  A2 80     LDX #$80                        A:FF X:FB Y:01 P:A5 SP:FB PPU:1949,5847,CYC: 1949
CE03  9A        TXS                             A:FF X:80 Y:01 P:A5 SP:FB PPU:1951,5853,CYC: 1951
CE04  A9 33     LDA #$33                        A:FF X:80 Y:01 P:A5 SP:80 PPU:1953,5859,CYC: 1953
CE06  48        PHA                             A:33 X:80 Y:01 P:25 SP:80 PPU:1955,5865,CYC: 1955
CE07  A9 69     LDA #$69                        A:33 X:80 Y:01 P:25 SP:7F PPU:1958,5874,CYC: 1958
CE09  48        PHA                             A:69 X:80 Y:01 P:25 SP:7F PPU:1960,5880,CYC: 1960
CE0A  BA        TSX                             A:69 X:80 Y:01 P:25 SP:7E PPU:1963,5889,CYC: 1963
CE0B  E0 7E     CPX #$7E                        A:69 X:7E Y:01 P:25 SP:7E PPU:1965,5895,CYC: 1965
CE0D  D0 20     BNE $CE2F                       A:69 X:7E Y:01 P:27 SP:7E PPU:1967,5901,CYC: 1967
CE0F  68        PLA                             A:69 X:7E Y:01 P:27 SP:7E PPU:1969,5907,CYC: 1969
CE10  C9 69     CMP #$69                        A:69 X:7E Y:01 P:25 SP:7F PPU:1973,5919,CYC: 1973
CE12  D0 1B     BNE $CE2F                       A:69 X:7E Y:01 P:27 SP:7F PPU:1975,5925,CYC: 1975
CE14  68        PLA                             A:69 X:7E Y:01 P:27 SP:7F PPU:1977,5931,CYC: 1977
CE15  C9 33     CMP #$33                        A:33 X:7E Y:01 P:25 SP:80 PPU:1981,5943,CYC: 1981
CE17  D0 16     BNE $CE2F                       A:33 X:7E Y:01 P:27 SP:80 PPU:1983,5949,CYC: 1983
CE19  BA        TSX                             A:33 X:7E Y:01 P:27 SP:80 PPU:1985,5955,CYC: 1985
CE1A  E0 80     CPX #$80                        A:33 X:80 Y:01 P:A5 SP:80 PPU:1987,5961,CYC: 1987
CE1C  D0 11     BNE $CE2F                       A:33 X:80 Y:01 P:27 SP:80 PPU:1989,5967,CYC: 1989
CE1E  AD 80 01  LDA $0180 = 33                  A:33 X:80 Y:01 P:27 SP:80 PPU:1991,5973,CYC: 1991
CE21  C9 33     CMP #$33                        A:33 X:80 Y:01 P:25 SP:80 PPU:1995,5985,CYC: 1995
CE23  D0 0A     BNE $CE2F                       A:33 X:80 Y:01 P:27 SP:80 PPU:1997,5991,CYC: 1997
CE25  AD 7F 01  LDA $017F = 69                  A:33 X:80 Y:01 P:27 SP:80 PPU:1999,5997,CYC: 1999
CE28  C9 69     CMP #$69                        A:69 X:80 Y:01 P:25 SP:80 PPU:2003,6009,CYC: 2003
CE2A  D0 03     BNE $CE2F                       A:69 X:80 Y:01 P:27 SP:80 PPU:2005,6015,CYC: 2005
CE2C  4C 33 CE  JMP $CE33                       A:69 X:80 Y:01 P:27 SP:80 PPU:2007,6021,CYC: 2007
CE33  EA        NOP                             A:69 X:80 Y:01 P:27 SP:80 PPU:2010,6030,CYC: 2010
CE34  A2 80     LDX #$80                        A:69 X:80 Y:01 P:27 SP:80 PPU:2012,6036,CYC: 2012
CE36  9A        TXS                             A:69 X:80 Y:01 P:A5 SP:80 PPU:2014,6042,CYC: 2014
CE37  20 3D CE  JSR $CE3D                       A:69 X:80 Y:01 P:A5 SP:80 PPU:2016,6048,CYC: 2016
CE3D  BA        TSX                             A:69 X:80 Y:01 P:A5 SP:7E PPU:2022,6066,CYC: 2022
CE3E  E0 7E     CPX #$7E                        A:69 X:7E Y:01 P:25 SP:7E PPU:2024,6072,CYC: 2024
CE40  D0 19     BNE $CE5B                       A:69 X:7E Y:01 P:27 SP:7E PPU:2026,6078,CYC: 2026
CE42  68        PLA                             A:69 X:7E Y:01 P:27 SP:7E PPU:2028,6084,CYC: 2028
CE43  68        PLA                             A:39 X:7E Y:01 P:25 SP:7F PPU:2032,6096,CYC: 2032
CE44  BA        TSX                             A:CE X:7E Y:01 P:A5 SP:80 PPU:2036,6108,CYC: 2036
CE45  E0 80     CPX #$80                        A:CE X:80 Y:01 P:A5 SP:80 PPU:2038,6114,CYC: 2038
CE47  D0 12     BNE $CE5B                       A:CE X:80 Y:01 P:27 SP:80 PPU:2040,6120,CYC: 2040
CE49  A9 00     LDA #$00                        A:CE X:80 Y:01 P:27 SP:80 PPU:2042,6126,CYC: 2042
CE4B  20 4E CE  JSR $CE4E                       A:00 X:80 Y:01 P:27 SP:80 PPU:2044,6132,CYC: 2044
CE4E  68        PLA                             A:00 X:80 Y:01 P:27 SP:7E PPU:2050,6150,CYC: 2050
CE4F  C9 4D     CMP #$4D                        A:4D X:80 Y:01 P:25 SP:7F PPU:2054,6162,CYC: 2054
CE51  D0 08     BNE $CE5B                       A:4D X:80 Y:01 P:27 SP:7F PPU:2056,6168,CYC: 2056
CE53  68        PLA                             A:4D X:80 Y:01 P:27 SP:7F PPU:2058,6174,CYC: 2058
CE54  C9 CE     CMP #$CE                        A:CE X:80 Y:01 P:A5 SP:80 PPU:2062,6186,CYC: 2062
CE56  D0 03     BNE $CE5B                       A:CE X:80 Y:01 P:27 SP:80 PPU:2064,6192,CYC: 2064
CE58  4C 5F CE  JMP $CE5F                       A:CE X:80 Y:01 P:27 SP:80 PPU:2066,6198,CYC: 2066
CE5F  EA        NOP                             A:CE X:80 Y:01 P:27 SP:80 PPU:2069,6207,CYC: 2069
CE60  A9 CE     LDA #$CE                        A:CE X:80 Y:01 P:27 SP:80 PPU:2071,6213,CYC: 2071
CE62  48        PHA                             A:CE X:80 Y:01 P:A5 SP:80 PPU:2073,6219,CYC: 2073
CE63  A9 66     LDA #$66                        A:CE X:80 Y:01 P:A5 SP:7F PPU:2076,6228,CYC: 2076
CE65  48        PHA                             A:66 X:80 Y:01 P:25 SP:7F PPU:2078,6234,CYC: 2078
CE66  60        RTS                             A:66 X:80 Y:01 P:25 SP:7E PPU:2081,6243,CYC: 2081
CE67  A2 77     LDX #$77                        A:66 X:80 Y:01 P:25 SP:80 PPU:2087,6261,CYC: 2087
CE69  A0 69     LDY #$69                        A:66 X:77 Y:01 P:25 SP:80 PPU:2089,6267,CYC: 2089
CE6B  18        CLC                             A:66 X:77 Y:69 P:25 SP:80 PPU:2091,6273,CYC: 2091
CE6C  24 01     BIT $01 = FF                    A:66 X:77 Y:69 P:24 SP:80 PPU:2093,6279,CYC: 2093
CE6E  A9 83     LDA #$83                        A:66 X:77 Y:69 P:E4 SP:80 PPU:2096,6288,CYC: 2096
CE70  20 66 CE  JSR $CE66                       A:83 X:77 Y:69 P:E4 SP:80 PPU:2098,6294,CYC: 2098
CE66  60        RTS                             A:83 X:77 Y:69 P:E4 SP:7E PPU:2104,6312,CYC: 2104
CE73  F0 24     BEQ $CE99                       A:83 X:77 Y:69 P:E4 SP:80 PPU:2110,6330,CYC: 2110
CE75  10 22     BPL $CE99                       A:83 X:77 Y:69 P:E4 SP:80 PPU:2112,6336,CYC: 2112
CE77  B0 20     BCS $CE99                       A:83 X:77 Y:69 P:E4 SP:80 PPU:2114,6342,CYC: 2114
CE79  50 1E     BVC $CE99                       A:83 X:77 Y:69 P:E4 SP:80 PPU:2116,6348,CYC: 2116
CE7B  C9 83     CMP #$83                        A:83 X:77 Y:69 P:E4 SP:80 PPU:2118,6354,CYC: 2118
CE7D  D0 1A     BNE $CE99                       A:83 X:77 Y:69 P:67 SP:80 PPU:2120,6360,CYC: 2120
CE7F  C0 69     CPY #$69                        A:83 X:77 Y:69 P:67 SP:80 PPU:2122,6366,CYC: 2122
CE81  D0 16     BNE $CE99                       A:83 X:77 Y:69 P:67 SP:80 PPU:2124,6372,CYC: 2124
CE83  E0 77     CPX #$77                        A:83 X:77 Y:69 P:67 SP:80 PPU:2126,6378,CYC: 2126
CE85  D0 12     BNE $CE99                       A:83 X:77 Y:69 P:67 SP:80 PPU:2128,6384,CYC: 2128
CE87  38        SEC                             A:83 X:77 Y:69 P:67 SP:80 PPU:2130,6390,CYC: 2130
CE88  B8        CLV                             A:83 X:77 Y:69 P:67 SP:80 PPU:2132,6396,CYC: 2132
CE89  A9 00     LDA #$00                        A:83 X:77 Y:69 P:27 SP:80 PPU:2134,6402,CYC: 2134
CE8B  20 66 CE  JSR $CE66                       A:00 X:77 Y:69 P:27 SP:80 PPU:2136,6408,CYC: 2136
CE66  60        RTS                             A:00 X:77 Y:69 P:27 SP:7E PPU:2142,6426,CYC: 2142
CE8E  D0 09     BNE $CE99                       A:00 X:77 Y:69 P:27 SP:80 PPU:2148,6444,CYC: 2148
CE90  30 07     BMI $CE99                       A:00 X:77 Y:69 P:27 SP:80 PPU:2150,6450,CYC: 2150
CE92  90 05     BCC $CE99                       A:00 X:77 Y:69 P:27 SP:80 PPU:2152,6456,CYC: 2152
CE94  70 03     BVS $CE99                       A:00 X:77 Y:69 P:27 SP:80 PPU:2154,6462,CYC: 2154
CE96  4C 9D CE  JMP $CE9D                       A:00 X:77 Y:69 P:27 SP:80 PPU:2156,6468,CYC: 2156
CE9D  EA        NOP                             A:00 X:77 Y:69 P:27 SP:80 PPU:2159,6477,CYC: 2159
CE9E  A9 CE     LDA #$CE                        A:00 X:77 Y:69 P:27 SP:80 PPU:2161,6483,CYC: 2161
CEA0  48        PHA                             A:CE X:77 Y:69 P:A5 SP:80 PPU:2163,6489,CYC: 2163
CEA1  A9 AE     LDA #$AE                        A:CE X:77 Y:69 P:A5 SP:7F PPU:2166,6498,CYC: 2166
CEA3  48        PHA                             A:AE X:77 Y:69 P:A5 SP:7F PPU:2168,6504,CYC: 2168
CEA4  A9 65     LDA #$65                        A:AE X:77 Y:69 P:A5 SP:7E PPU:2171,6513,CYC: 2171
CEA6  48        PHA                             A:65 X:77 Y:69 P:25 SP:7E PPU:2173,6519,CYC: 2173
CEA7  A9 55     LDA #$55                        A:65 X:77 Y:69 P:25 SP:7D PPU:2176,6528,CYC: 2176
CEA9  A0 88     LDY #$88                        A:55 X:77 Y:69 P:25 SP:7D PPU:2178,6534,CYC: 2178
CEAB  A2 99     LDX #$99                        A:55 X:77 Y:88 P:A5 SP:7D PPU:2180,6540,CYC: 2180
CEAD  40        RTI                             A:55 X:99 Y:88 P:A5 SP:7D PPU:2182,6546,CYC: 2182
CEAE  30 35     BMI $CEE5                       A:55 X:99 Y:88 P:65 SP:80 PPU:2188,6564,CYC: 2188
CEB0  50 33     BVC $CEE5                       A:55 X:99 Y:88 P:65 SP:80 PPU:2190,6570,CYC: 2190
CEB2  F0 31     BEQ $CEE5                       A:55 X:99 Y:88 P:65 SP:80 PPU:2192,6576,CYC: 2192
CEB4  90 2F     BCC $CEE5                       A:55 X:99 Y:88 P:65 SP:80 PPU:2194,6582,CYC: 2194
CEB6  C9 55     CMP #$55                        A:55 X:99 Y:88 P:65 SP:80 PPU:2196,6588,CYC: 2196
CEB8  D0 2B     BNE $CEE5                       A:55 X:99 Y:88 P:67 SP:80 PPU:2198,6594,CYC: 2198
CEBA  C0 88     CPY #$88                        A:55 X:99 Y:88 P:67 SP:80 PPU:2200,6600,CYC: 2200
CEBC  D0 27     BNE $CEE5                       A:55 X:99 Y:88 P:67 SP:80 PPU:2202,6606,CYC: 2202
CEBE  E0 99     CPX #$99                        A:55 X:99 Y:88 P:67 SP:80 PPU:2204,6612,CYC: 2204
CEC0  D0 23     BNE $CEE5                       A:55 X:99 Y:88 P:67 SP:80 PPU:2206,6618,CYC: 2206
CEC2  A9 CE     LDA #$CE                        A:55 X:99 Y:88 P:67 SP:80 PPU:2208,6624,CYC: 2208
CEC4  48        PHA                             A:CE X:99 Y:88 P:E5 SP:80 PPU:2210,6630,CYC: 2210
CEC5  A9 CE     LDA #$CE                        A:CE X:99 Y:88 P:E5 SP:7F PPU:2213,6639,CYC: 2213
CEC7  48        PHA                             A:CE X:99 Y:88 P:E5 SP:7F PPU:2215,6645,CYC: 2215
CEC8  A9 87     LDA #$87                        A:CE X:99 Y:88 P:E5 SP:7E PPU:2218,6654,CYC: 2218
CECA  48        PHA                             A:87 X:99 Y:88 P:E5 SP:7E PPU:2220,6660,CYC: 2220
CECB  A9 55     LDA #$55                        A:87 X:99 Y:88 P:E5 SP:7D PPU:2223,6669,CYC: 2223
CECD  40        RTI                             A:55 X:99 Y:88 P:65 SP:7D PPU:2225,6675,CYC: 2225
CECE  10 15     BPL $CEE5                       A:55 X:99 Y:88 P:A7 SP:80 PPU:2231,6693,CYC: 2231
CED0  70 13     BVS $CEE5                       A:55 X:99 Y:88 P:A7 SP:80 PPU:2233,6699,CYC: 2233
CED2  D0 11     BNE $CEE5                       A:55 X:99 Y:88 P:A7 SP:80 PPU:2235,6705,CYC: 2235
CED4  90 0F     BCC $CEE5                       A:55 X:99 Y:88 P:A7 SP:80 PPU:2237,6711,CYC: 2237
CED6  C9 55     CMP #$55                        A:55 X:99 Y:88 P:A7 SP:80 PPU:2239,6717,CYC: 2239
CED8  D0 0B     BNE $CEE5                       A:55 X:99 Y:88 P:27 SP:80 PPU:2241,6723,CYC: 2241
CEDA  C0 88     CPY #$88                        A:55 X:99 Y:88 P:27 SP:80 PPU:2243,6729,CYC: 2243
CEDC  D0 07     BNE $CEE5                       A:55 X:99 Y:88 P:27 SP:80 PPU:2245,6735,CYC: 2245
CEDE  E0 99     CPX #$99                        A:55 X:99 Y:88 P:27 SP:80 PPU:2247,6741,CYC: 2247
CEE0  D0 03     BNE $CEE5                       A:55 X:99 Y:88 P:27 SP:80 PPU:2249,6747,CYC: 2249
CEE2  4C E9 CE  JMP $CEE9                       A:55 X:99 Y:88 P:27 SP:80 PPU:2251,6753,CYC: 2251
CEE9  AE FF 07  LDX $07FF = FB                  A:55 X:99 Y:88 P:27 SP:80 PPU:2254,6762,CYC: 2254
CEEC  9A        TXS                             A:55 X:FB Y:88 P:A5 SP:80 PPU:2258,6774,CYC: 2258
CEED  60        RTS                             A:55 X:FB Y:88 P:A5 SP:FB PPU:2260,6780,CYC: 2260
C60C  20 EE CE  JSR $CEEE                       A:55 X:FB Y:88 P:A5 SP:FD PPU:2266,6798,CYC: 2266
CEEE  A2 55     LDX #$55                        A:55 X:FB Y:88 P:A5 SP:FB PPU:2272,6816,CYC: 2272
CEF0  A0 69     LDY #$69                        A:55 X:55 Y:88 P:25 SP:FB PPU:2274,6822,CYC: 2274
CEF2  A9 FF     LDA #$FF                        A:55 X:55 Y:69 P:25 SP:FB PPU:2276,6828,CYC: 2276
CEF4  85 01     STA $01 = FF                    A:FF X:55 Y:69 P:A5 SP:FB PPU:2278,6834,CYC: 2278
CEF6  EA        NOP                             A:FF X:55 Y:69 P:A5 SP:FB PPU:2281,6843,CYC: 2281
CEF7  24 01     BIT $01 = FF                    A:FF X:55 Y:69 P:A5 SP:FB PPU:2283,6849,CYC: 2283
CEF9  38        SEC                             A:FF X:55 Y:69 P:E5 SP:FB PPU:2286,6858,CYC: 2286
CEFA  A9 01     LDA #$01                        A:FF X:55 Y:69 P:E5 SP:FB PPU:2288,6864,CYC: 2288
CEFC  4A        LSR A                           A:01 X:55 Y:69 P:65 SP:FB PPU:2290,6870,CYC: 2290
CEFD  90 1D     BCC $CF1C                       A:00 X:55 Y:69 P:67 SP:FB PPU:2292,6876,CYC: 2292
CEFF  D0 1B     BNE $CF1C                       A:00 X:55 Y:69 P:67 SP:FB PPU:2294,6882,CYC: 2294
CF01  30 19     BMI $CF1C                       A:00 X:55 Y:69 P:67 SP:FB PPU:2296,6888,CYC: 2296
CF03  50 17     BVC $CF1C                       A:00 X:55 Y:69 P:67 SP:FB PPU:2298,6894,CYC: 2298
CF05  C9 00     CMP #$00                        A:00 X:55 Y:69 P:67 SP:FB PPU:2300,6900,CYC: 2300
CF07  D0 13     BNE $CF1C                       A:00 X:55 Y:69 P:67 SP:FB PPU:2302,6906,CYC: 2302
CF09  B8        CLV                             A:00 X:55 Y:69 P:67 SP:FB PPU:2304,6912,CYC: 2304
CF0A  A9 AA     LDA #$AA                        A:00 X:55 Y:69 P:27 SP:FB PPU:2306,6918,CYC: 2306
CF0C  4A        LSR A                           A:AA X:55 Y:69 P:A5 SP:FB PPU:2308,6924,CYC: 2308
CF0D  B0 0D     BCS $CF1C                       A:55 X:55 Y:69 P:24 SP:FB PPU:2310,6930,CYC: 2310
CF0F  F0 0B     BEQ $CF1C                       A:55 X:55 Y:69 P:24 SP:FB PPU:2312,6936,CYC: 2312
CF11  30 09     BMI $CF1C                       A:55 X:55 Y:69 P:24 SP:FB PPU:2314,6942,CYC: 2314
CF13  70 07     BVS $CF1C                       A:55 X:55 Y:69 P:24 SP:FB PPU:2316,6948,CYC: 2316
CF15  C9 55     CMP #$55                        A:55 X:55 Y:69 P:24 SP:FB PPU:2318,6954,CYC: 2318
CF17  D0 03     BNE $CF1C                       A:55 X:55 Y:69 P:27 SP:FB PPU:2320,6960,CYC: 2320
CF19  4C 20 CF  JMP $CF20                       A:55 X:55 Y:69 P:27 SP:FB PPU:2322,6966,CYC: 2322
CF20  EA        NOP                             A:55 X:55 Y:69 P:27 SP:FB PPU:2325,6975,CYC: 2325
CF21  24 01     BIT $01 = FF                    A:55 X:55 Y:69 P:27 SP:FB PPU:2327,6981,CYC: 2327
CF23  38        SEC                             A:55 X:55 Y:69 P:E5 SP:FB PPU:2330,6990,CYC: 2330
CF24  A9 80     LDA #$80                        A:55 X:55 Y:69 P:E5 SP:FB PPU:2332,6996,CYC: 2332
CF26  0A        ASL A                           A:80 X:55 Y:69 P:E5 SP:FB PPU:2334,7002,CYC: 2334
CF27  90 1E     BCC $CF47                       A:00 X:55 Y:69 P:67 SP:FB PPU:2336,7008,CYC: 2336
CF29  D0 1C     BNE $CF47                       A:00 X:55 Y:69 P:67 SP:FB PPU:2338,7014,CYC: 2338
CF2B  30 1A     BMI $CF47                       A:00 X:55 Y:69 P:67 SP:FB PPU:2340,7020,CYC: 2340
CF2D  50 18     BVC $CF47                       A:00 X:55 Y:69 P:67 SP:FB PPU:2342,7026,CYC: 2342
CF2F  C9 00     CMP #$00                        A:00 X:55 Y:69 P:67 SP:FB PPU:2344,7032,CYC: 2344
CF31  D0 14     BNE $CF47                       A:00 X:55 Y:69 P:67 SP:FB PPU:2346,7038,CYC: 2346
CF33  B8        CLV                             A:00 X:55 Y:69 P:67 SP:FB PPU:2348,7044,CYC: 2348
CF34  38        SEC                             A:00 X:55 Y:69 P:27 SP:FB PPU:2350,7050,CYC: 2350
CF35  A9 55     LDA #$55                        A:00 X:55 Y:69 P:27 SP:FB PPU:2352,7056,CYC: 2352
CF37  0A        ASL A                           A:55 X:55 Y:69 P:25 SP:FB PPU:2354,7062,CYC: 2354
CF38  B0 0D     BCS $CF47                       A:AA X:55 Y:69 P:A4 SP:FB PPU:2356,7068,CYC: 2356
CF3A  F0 0B     BEQ $CF47                       A:AA X:55 Y:69 P:A4 SP:FB PPU:2358,7074,CYC: 2358
CF3C  10 09     BPL $CF47                       A:AA X:55 Y:69 P:A4 SP:FB PPU:2360,7080,CYC: 2360
CF3E  70 07     BVS $CF47                       A:AA X:55 Y:69 P:A4 SP:FB PPU:2362,7086,CYC: 2362
CF40  C9 AA     CMP #$AA                        A:AA X:55 Y:69 P:A4 SP:FB PPU:2364,7092,CYC: 2364
CF42  D0 03     BNE $CF47                       A:AA X:55 Y:69 P:27 SP:FB PPU:2366,7098,CYC: 2366
CF44  4C 4B CF  JMP $CF4B                       A:AA X:55 Y:69 P:27 SP:FB PPU:2368,7104,CYC: 2368
CF4B  EA        NOP                             A:AA X:55 Y:69 P:27 SP:FB PPU:2371,7113,CYC: 2371
CF4C  24 01     BIT $01 = FF                    A:AA X:55 Y:69 P:27 SP:FB PPU:2373,7119,CYC: 2373
CF4E  38        SEC                             A:AA X:55 Y:69 P:E5 SP:FB PPU:2376,7128,CYC: 2376
CF4F  A9 01     LDA #$01                        A:AA X:55 Y:69 P:E5 SP:FB PPU:2378,7134,CYC: 2378
CF51  6A        ROR A                           A:01 X:55 Y:69 P:65 SP:FB PPU:2380,7140,CYC: 2380
CF52  90 1E     BCC $CF72                       A:80 X:55 Y:69 P:E5 SP:FB PPU:2382,7146,CYC: 2382
CF54  F0 1C     BEQ $CF72                       A:80 X:55 Y:69 P:E5 SP:FB PPU:2384,7152,CYC: 2384
CF56  10 1A     BPL $CF72                       A:80 X:55 Y:69 P:E5 SP:FB PPU:2386,7158,CYC: 2386
CF58  50 18     BVC $CF72                       A:80 X:55 Y:69 P:E5 SP:FB PPU:2388,7164,CYC: 2388
CF5A  C9 80     CMP #$80                        A:80 X:55 Y:69 P:E5 SP:FB PPU:2390,7170,CYC: 2390
CF5C  D0 14     BNE $CF72                       A:80 X:55 Y:69 P:67 SP:FB PPU:2392,7176,CYC: 2392
CF5E  B8        CLV                             A:80 X:55 Y:69 P:67 SP:FB PPU:2394,7182,CYC: 2394
CF5F  18        CLC                             A:80 X:55 Y:69 P:27 SP:FB PPU:2396,7188,CYC: 2396
CF60  A9 55     LDA #$55                        A:80 X:55 Y:69 P:26 SP:FB PPU:2398,7194,CYC: 2398
CF62  6A        ROR A                           A:55 X:55 Y:69 P:24 SP:FB PPU:2400,7200,CYC: 2400
CF63  90 0D     BCC $CF72                       A:2A X:55 Y:69 P:25 SP:FB PPU:2402,7206,CYC: 2402
CF65  F0 0B     BEQ $CF72                       A:2A X:55 Y:69 P:25 SP:FB PPU:2404,7212,CYC: 2404
CF67  30 09     BMI $CF72                       A:2A X:55 Y:69 P:25 SP:FB PPU:2406,7218,CYC: 2406
CF69  70 07     BVS $CF72                       A:2A X:55 Y:69 P:25 SP:FB PPU:2408,7224,CYC: 2408
CF6B  C9 2A     CMP #$2A                        A:2A X:55 Y:69 P:25 SP:FB PPU:2410,7230,CYC: 2410
CF6D  D0 03     BNE $CF72                       A:2A X:55 Y:69 P:27 SP:FB PPU:2412,7236,CYC: 2412
CF6F  4C 76 CF  JMP $CF76                       A:2A X:55 Y:69 P:27 SP:FB PPU:2414,7242,CYC: 2414
CF76  EA        NOP                             A:2A X:55 Y:69 P:27 SP:FB PPU:2417,7251,CYC: 2417
CF77  24 01     BIT $01 = FF                    A:2A X:55 Y:69 P:27 SP:FB PPU:2419,7257,CYC: 2419
CF79  38        SEC                             A:2A X:55 Y:69 P:E5 SP:FB PPU:2422,7266,CYC: 2422
CF7A  A9 80     LDA #$80                        A:2A X:55 Y:69 P:E5 SP:FB PPU:2424,7272,CYC: 2424
CF7C  2A        ROL A                           A:80 X:55 Y:69 P:E5 SP:FB PPU:2426,7278,CYC: 2426
CF7D  90 1E     BCC $CF9D                       A:01 X:55 Y:69 P:65 SP:FB PPU:2428,7284,CYC: 2428
CF7F  F0 1C     BEQ $CF9D                       A:01 X:55 Y:69 P:65 SP:FB PPU:2430,7290,CYC: 2430
CF81  30 1A     BMI $CF9D                       A:01 X:55 Y:69 P:65 SP:FB PPU:2432,7296,CYC: 2432
CF83  50 18     BVC $CF9D                       A:01 X:55 Y:69 P:65 SP:FB PPU:2434,7302,CYC: 2434
CF85  C9 01     CMP #$01                        A:01 X:55 Y:69 P:65 SP:FB PPU:2436,7308,CYC: 2436
CF87  D0 14     BNE $CF9D                       A:01 X:55 Y:69 P:67 SP:FB PPU:2438,7314,CYC: 2438
CF89  B8        CLV                             A:01 X:55 Y:69 P:67 SP:FB PPU:2440,7320,CYC: 2440
CF8A  18        CLC                             A:01 X:55 Y:69 P:27 SP:FB PPU:2442,7326,CYC: 2442
CF8B  A9 55     LDA #$55                        A:01 X:55 Y:69 P:26 SP:FB PPU:2444,7332,CYC: 2444
CF8D  2A        ROL A                           A:55 X:55 Y:69 P:24 SP:FB PPU:2446,7338,CYC: 2446
CF8E  B0 0D     BCS $CF9D                       A:AA X:55 Y:69 P:A4 SP:FB PPU:2448,7344,CYC: 2448
CF90  F0 0B     BEQ $CF9D                       A:AA X:55 Y:69 P:A4 SP:FB PPU:2450,7350,CYC: 2450
CF92  10 09     BPL $CF9D                       A:AA X:55 Y:69 P:A4 SP:FB PPU:2452,7356,CYC: 2452
CF94  70 07     BVS $CF9D                       A:AA X:55 Y:69 P:A4 SP:FB PPU:2454,7362,CYC: 2454
CF96  C9 AA     CMP #$AA                        A:AA X:55 Y:69 P:A4 SP:FB PPU:2456,7368,CYC: 2456
CF98  D0 03     BNE $CF9D                       A:AA X:55 Y:69 P:27 SP:FB PPU:2458,7374,CYC: 2458
CF9A  4C A1 CF  JMP $CFA1                       A:AA X:55 Y:69 P:27 SP:FB PPU:2460,7380,CYC: 2460
CFA1  60        RTS                             A:AA X:55 Y:69 P:27 SP:FB PPU:2463,7389,CYC: 2463
C60F  20 A2 CF  JSR $CFA2                       A:AA X:55 Y:69 P:27 SP:FD PPU:2469,7407,CYC: 2469
CFA2  A5 00     LDA $00 = 00                    A:AA X:55 Y:69 P:27 SP:FB PPU:2475,7425,CYC: 2475
CFA4  8D FF 07  STA $07FF = FB                  A:00 X:55 Y:69 P:27 SP:FB PPU:2478,7434,CYC: 2478
CFA7  A9 00     LDA #$00                        A:00 X:55 Y:69 P:27 SP:FB PPU:2482,7446,CYC: 2482
CFA9  85 80     STA $80 = 00                    A:00 X:55 Y:69 P:27 SP:FB PPU:2484,7452,CYC: 2484
CFAB  A9 02     LDA #$02                        A:00 X:55 Y:69 P:27 SP:FB PPU:2487,7461,CYC: 2487
CFAD  85 81     STA $81 = 00                    A:02 X:55 Y:69 P:25 SP:FB PPU:2489,7467,CYC: 2489
CFAF  A9 FF     LDA #$FF                        A:02 X:55 Y:69 P:25 SP:FB PPU:2492,7476,CYC: 2492
CFB1  85 01     STA $01 = FF                    A:FF X:55 Y:69 P:A5 SP:FB PPU:2494,7482,CYC: 2494
CFB3  A9 00     LDA #$00                        A:FF X:55 Y:69 P:A5 SP:FB PPU:2497,7491,CYC: 2497
CFB5  85 82     STA $82 = 00                    A:00 X:55 Y:69 P:27 SP:FB PPU:2499,7497,CYC: 2499
CFB7  A9 03     LDA #$03                        A:00 X:55 Y:69 P:27 SP:FB PPU:2502,7506,CYC: 2502
CFB9  85 83     STA $83 = 00                    A:03 X:55 Y:69 P:25 SP:FB PPU:2504,7512,CYC: 2504
CFBB  85 84     STA $84 = 00                    A:03 X:55 Y:69 P:25 SP:FB PPU:2507,7521,CYC: 2507
CFBD  A9 00     LDA #$00                        A:03 X:55 Y:69 P:25 SP:FB PPU:2510,7530,CYC: 2510
CFBF  85 FF     STA $FF = 00                    A:00 X:55 Y:69 P:27 SP:FB PPU:2512,7536,CYC: 2512
CFC1  A9 04     LDA #$04                        A:00 X:55 Y:69 P:27 SP:FB PPU:2515,7545,CYC: 2515
CFC3  85 00     STA $00 = 00                    A:04 X:55 Y:69 P:25 SP:FB PPU:2517,7551,CYC: 2517
CFC5  A9 5A     LDA #$5A                        A:04 X:55 Y:69 P:25 SP:FB PPU:2520,7560,CYC: 2520
CFC7  8D 00 02  STA $0200 = 00                  A:5A X:55 Y:69 P:25 SP:FB PPU:2522,7566,CYC: 2522
CFCA  A9 5B     LDA #$5B                        A:5A X:55 Y:69 P:25 SP:FB PPU:2526,7578,CYC: 2526
CFCC  8D 00 03  STA $0300 = 00                  A:5B X:55 Y:69 P:25 SP:FB PPU:2528,7584,CYC: 2528
CFCF  A9 5C     LDA #$5C                        A:5B X:55 Y:69 P:25 SP:FB PPU:2532,7596,CYC: 2532
CFD1  8D 03 03  STA $0303 = 00                  A:5C X:55 Y:69 P:25 SP:FB PPU:2534,7602,CYC: 2534
CFD4  A9 5D     LDA #$5D                        A:5C X:55 Y:69 P:25 SP:FB PPU:2538,7614,CYC: 2538
CFD6  8D 00 04  STA $0400 = 00                  A:5D X:55 Y:69 P:25 SP:FB PPU:2540,7620,CYC: 2540
CFD9  A2 00     LDX #$00                        A:5D X:55 Y:69 P:25 SP:FB PPU:2544,7632,CYC: 2544
CFDB  A1 80     LDA ($80,X) @ 80 = 0200 = 5A    A:5D X:00 Y:69 P:27 SP:FB PPU:2546,7638,CYC: 2546
CFDD  C9 5A     CMP #$5A                        A:5A X:00 Y:69 P:25 SP:FB PPU:2552,7656,CYC: 2552
CFDF  D0 1F     BNE $D000                       A:5A X:00 Y:69 P:27 SP:FB PPU:2554,7662,CYC: 2554
CFE1  E8        INX                             A:5A X:00 Y:69 P:27 SP:FB PPU:2556,7668,CYC: 2556
CFE2  E8        INX                             A:5A X:01 Y:69 P:25 SP:FB PPU:2558,7674,CYC: 2558
CFE3  A1 80     LDA ($80,X) @ 82 = 0300 = 5B    A:5A X:02 Y:69 P:25 SP:FB PPU:2560,7680,CYC: 2560
CFE5  C9 5B     CMP #$5B                        A:5B X:02 Y:69 P:25 SP:FB PPU:2566,7698,CYC: 2566
CFE7  D0 17     BNE $D000                       A:5B X:02 Y:69 P:27 SP:FB PPU:2568,7704,CYC: 2568
CFE9  E8        INX                             A:5B X:02 Y:69 P:27 SP:FB PPU:2570,7710,CYC: 2570
CFEA  A1 80     LDA ($80,X) @ 83 = 0303 = 5C    A:5B X:03 Y:69 P:25 SP:FB PPU:2572,7716,CYC: 2572
CFEC  C9 5C     CMP #$5C                        A:5C X:03 Y:69 P:25 SP:FB PPU:2578,7734,CYC: 2578
CFEE  D0 10     BNE $D000                       A:5C X:03 Y:69 P:27 SP:FB PPU:2580,7740,CYC: 2580
CFF0  A2 00     LDX #$00                        A:5C X:03 Y:69 P:27 SP:FB PPU:2582,7746,CYC: 2582
CFF2  A1 FF     LDA ($FF,X) @ FF = 0400 = 5D    A:5C X:00 Y:69 P:27 SP:FB PPU:2584,7752,CYC: 2584
CFF4  C9 5D     CMP #$5D                        A:5D X:00 Y:69 P:25 SP:FB PPU:2590,7770,CYC: 2590
CFF6  D0 08     BNE $D000                       A:5D X:00 Y:69 P:27 SP:FB PPU:2592,7776,CYC: 2592
CFF8  A2 81     LDX #$81                        A:5D X:00 Y:69 P:27 SP:FB PPU:2594,7782,CYC: 2594
CFFA  A1 FF     LDA ($FF,X) @ 80 = 0200 = 5A    A:5D X:81 Y:69 P:A5 SP:FB PPU:2596,7788,CYC: 2596
CFFC  C9 5A     CMP #$5A                        A:5A X:81 Y:69 P:25 SP:FB PPU:2602,7806,CYC: 2602
CFFE  F0 05     BEQ $D005                       A:5A X:81 Y:69 P:27 SP:FB PPU:2604,7812,CYC: 2604
D005  A9 AA     LDA #$AA                        A:5A X:81 Y:69 P:27 SP:FB PPU:2609,7827,CYC: 2609
D007  A2 00     LDX #$00                        A:AA X:81 Y:69 P:A5 SP:FB PPU:2611,7833,CYC: 2611
D009  81 80     STA ($80,X) @ 80 = 0200 = 5A    A:AA X:00 Y:69 P:27 SP:FB PPU:2613,7839,CYC: 2613
D00B  E8        INX                             A:AA X:00 Y:69 P:27 SP:FB PPU:2619,7857,CYC: 2619
D00C  E8        INX                             A:AA X:01 Y:69 P:25 SP:FB PPU:2621,7863,CYC: 2621
D00D  A9 AB     LDA #$AB                        A:AA X:02 Y:69 P:25 SP:FB PPU:2623,7869,CYC: 2623
D00F  81 80     STA ($80,X) @ 82 = 0300 = 5B    A:AB X:02 Y:69 P:A5 SP:FB PPU:2625,7875,CYC: 2625
D011  E8        INX                             A:AB X:02 Y:69 P:A5 SP:FB PPU:2631,7893,CYC: 2631
D012  A9 AC     LDA #$AC                        A:AB X:03 Y:69 P:25 SP:FB PPU:2633,7899,CYC: 2633
D014  81 80     STA ($80,X) @ 83 = 0303 = 5C    A:AC X:03 Y:69 P:A5 SP:FB PPU:2635,7905,CYC: 2635
D016  A2 00     LDX #$00                        A:AC X:03 Y:69 P:A5 SP:FB PPU:2641,7923,CYC: 2641
D018  A9 AD     LDA #$AD                        A:AC X:00 Y:69 P:27 SP:FB PPU:2643,7929,CYC: 2643
D01A  81 FF     STA ($FF,X) @ FF = 0400 = 5D    A:AD X:00 Y:69 P:A5 SP:FB PPU:2645,7935,CYC: 2645
D01C  AD 00 02  LDA $0200 = AA                  A:AD X:00 Y:69 P:A5 SP:FB PPU:2651,7953,CYC: 2651
D01F  C9 AA     CMP #$AA                        A:AA X:00 Y:69 P:A5 SP:FB PPU:2655,7965,CYC: 2655
D021  D0 15     BNE $D038                       A:AA X:00 Y:69 P:27 SP:FB PPU:2657,7971,CYC: 2657
D023  AD 00 03  LDA $0300 = AB                  A:AA X:00 Y:69 P:27 SP:FB PPU:2659,7977,CYC: 2659
D026  C9 AB     CMP #$AB                        A:AB X:00 Y:69 P:A5 SP:FB PPU:2663,7989,CYC: 2663
D028  D0 0E     BNE $D038                       A:AB X:00 Y:69 P:27 SP:FB PPU:2665,7995,CYC: 2665
D02A  AD 03 03  LDA $0303 = AC                  A:AB X:00 Y:69 P:27 SP:FB PPU:2667,8001,CYC: 2667
D02D  C9 AC     CMP #$AC                        A:AC X:00 Y:69 P:A5 SP:FB PPU:2671,8013,CYC: 2671
D02F  D0 07     BNE $D038                       A:AC X:00 Y:69 P:27 SP:FB PPU:2673,8019,CYC: 2673
D031  AD 00 04  LDA $0400 = AD                  A:AC X:00 Y:69 P:27 SP:FB PPU:2675,8025,CYC: 2675
D034  C9 AD     CMP #$AD                        A:AD X:00 Y:69 P:A5 SP:FB PPU:2679,8037,CYC: 2679
D036  F0 05     BEQ $D03D                       A:AD X:00 Y:69 P:27 SP:FB PPU:2681,8043,CYC: 2681
D03D  AD FF 07  LDA $07FF = 00                  A:AD X:00 Y:69 P:27 SP:FB PPU:2684,8052,CYC: 2684
D040  85 00     STA $00 = 04                    A:00 X:00 Y:69 P:27 SP:FB PPU:2688,8064,CYC: 2688
D042  A9 00     LDA #$00                        A:00 X:00 Y:69 P:27 SP:FB PPU:2691,8073,CYC: 2691
D044  8D 00 03  STA $0300 = AB                  A:00 X:00 Y:69 P:27 SP:FB PPU:2693,8079,CYC: 2693
D047  A9 AA     LDA #$AA                        A:00 X:00 Y:69 P:27 SP:FB PPU:2697,8091,CYC: 2697
D049  8D 00 02  STA $0200 = AA                  A:AA X:00 Y:69 P:A5 SP:FB PPU:2699,8097,CYC: 2699
D04C  A2 00     LDX #$00                        A:AA X:00 Y:69 P:A5 SP:FB PPU:2703,8109,CYC: 2703
D04E  A0 5A     LDY #$5A                        A:AA X:00 Y:69 P:27 SP:FB PPU:2705,8115,CYC: 2705
D050  20 B6 F7  JSR $F7B6                       A:AA X:00 Y:5A P:25 SP:FB PPU:2707,8121,CYC: 2707
F7B6  18        CLC                             A:AA X:00 Y:5A P:25 SP:F9 PPU:2713,8139,CYC: 2713
F7B7  A9 FF     LDA #$FF                        A:AA X:00 Y:5A P:24 SP:F9 PPU:2715,8145,CYC: 2715
F7B9  85 01     STA $01 = FF                    A:FF X:00 Y:5A P:A4 SP:F9 PPU:2717,8151,CYC: 2717
F7BB  24 01     BIT $01 = FF                    A:FF X:00 Y:5A P:A4 SP:F9 PPU:2720,8160,CYC: 2720
F7BD  A9 55     LDA #$55                        A:FF X:00 Y:5A P:E4 SP:F9 PPU:2723,8169,CYC: 2723
F7BF  60        RTS                             A:55 X:00 Y:5A P:64 SP:F9 PPU:2725,8175,CYC: 2725
D053  01 80     ORA ($80,X) @ 80 = 0200 = AA    A:55 X:00 Y:5A P:64 SP:FB PPU:2731,8193,CYC: 2731
D055  20 C0 F7  JSR $F7C0                       A:FF X:00 Y:5A P:E4 SP:FB PPU:2737,8211,CYC: 2737
F7C0  B0 09     BCS $F7CB                       A:FF X:00 Y:5A P:E4 SP:F9 PPU:2743,8229,CYC: 2743
F7C2  10 07     BPL $F7CB                       A:FF X:00 Y:5A P:E4 SP:F9 PPU:2745,8235,CYC: 2745
F7C4  C9 FF     CMP #$FF                        A:FF X:00 Y:5A P:E4 SP:F9 PPU:2747,8241,CYC: 2747
F7C6  D0 03     BNE $F7CB                       A:FF X:00 Y:5A P:67 SP:F9 PPU:2749,8247,CYC: 2749
F7C8  50 01     BVC $F7CB                       A:FF X:00 Y:5A P:67 SP:F9 PPU:2751,8253,CYC: 2751
F7CA  60        RTS                             A:FF X:00 Y:5A P:67 SP:F9 PPU:2753,8259,CYC: 2753
D058  C8        INY                             A:FF X:00 Y:5A P:67 SP:FB PPU:2759,8277,CYC: 2759
D059  20 CE F7  JSR $F7CE                       A:FF X:00 Y:5B P:65 SP:FB PPU:2761,8283,CYC: 2761
F7CE  38        SEC                             A:FF X:00 Y:5B P:65 SP:F9 PPU:2767,8301,CYC: 2767
F7CF  B8        CLV                             A:FF X:00 Y:5B P:65 SP:F9 PPU:2769,8307,CYC: 2769
F7D0  A9 00     LDA #$00                        A:FF X:00 Y:5B P:25 SP:F9 PPU:2771,8313,CYC: 2771
F7D2  60        RTS                             A:00 X:00 Y:5B P:27 SP:F9 PPU:2773,8319,CYC: 2773
D05C  01 82     ORA ($82,X) @ 82 = 0300 = 00    A:00 X:00 Y:5B P:27 SP:FB PPU:2779,8337,CYC: 2779
D05E  20 D3 F7  JSR $F7D3                       A:00 X:00 Y:5B P:27 SP:FB PPU:2785,8355,CYC: 2785
F7D3  D0 07     BNE $F7DC                       A:00 X:00 Y:5B P:27 SP:F9 PPU:2791,8373,CYC: 2791
F7D5  70 05     BVS $F7DC                       A:00 X:00 Y:5B P:27 SP:F9 PPU:2793,8379,CYC: 2793
F7D7  90 03     BCC $F7DC                       A:00 X:00 Y:5B P:27 SP:F9 PPU:2795,8385,CYC: 2795
F7D9  30 01     BMI $F7DC                       A:00 X:00 Y:5B P:27 SP:F9 PPU:2797,8391,CYC: 2797
F7DB  60        RTS                             A:00 X:00 Y:5B P:27 SP:F9 PPU:2799,8397,CYC: 2799
D061  C8        INY                             A:00 X:00 Y:5B P:27 SP:FB PPU:2805,8415,CYC: 2805
D062  20 DF F7  JSR $F7DF                       A:00 X:00 Y:5C P:25 SP:FB PPU:2807,8421,CYC: 2807
F7DF  18        CLC                             A:00 X:00 Y:5C P:25 SP:F9 PPU:2813,8439,CYC: 2813
F7E0  24 01     BIT $01 = FF                    A:00 X:00 Y:5C P:24 SP:F9 PPU:2815,8445,CYC: 2815
F7E2  A9 55     LDA #$55                        A:00 X:00 Y:5C P:E6 SP:F9 PPU:2818,8454,CYC: 2818
F7E4  60        RTS                             A:55 X:00 Y:5C P:64 SP:F9 PPU:2820,8460,CYC: 2820
D065  21 80     AND ($80,X) @ 80 = 0200 = AA    A:55 X:00 Y:5C P:64 SP:FB PPU:2826,8478,CYC: 2826
D067  20 E5 F7  JSR $F7E5                       A:00 X:00 Y:5C P:66 SP:FB PPU:2832,8496,CYC: 2832
F7E5  D0 07     BNE $F7EE                       A:00 X:00 Y:5C P:66 SP:F9 PPU:2838,8514,CYC: 2838
F7E7  50 05     BVC $F7EE                       A:00 X:00 Y:5C P:66 SP:F9 PPU:2840,8520,CYC: 2840
F7E9  B0 03     BCS $F7EE                       A:00 X:00 Y:5C P:66 SP:F9 PPU:2842,8526,CYC: 2842
F7EB  30 01     BMI $F7EE                       A:00 X:00 Y:5C P:66 SP:F9 PPU:2844,8532,CYC: 2844
F7ED  60        RTS                             A:00 X:00 Y:5C P:66 SP:F9 PPU:2846,8538,CYC: 2846
D06A  C8        INY                             A:00 X:00 Y:5C P:66 SP:FB PPU:2852,8556,CYC: 2852
D06B  A9 EF     LDA #$EF                        A:00 X:00 Y:5D P:64 SP:FB PPU:2854,8562,CYC: 2854
D06D  8D 00 03  STA $0300 = 00                  A:EF X:00 Y:5D P:E4 SP:FB PPU:2856,8568,CYC: 2856
D070  20 F1 F7  JSR $F7F1                       A:EF X:00 Y:5D P:E4 SP:FB PPU:2860,8580,CYC: 2860
F7F1  38        SEC                             A:EF X:00 Y:5D P:E4 SP:F9 PPU:2866,8598,CYC: 2866
F7F2  B8        CLV                             A:EF X:00 Y:5D P:E5 SP:F9 PPU:2868,8604,CYC: 2868
F7F3  A9 F8     LDA #$F8                        A:EF X:00 Y:5D P:A5 SP:F9 PPU:2870,8610,CYC: 2870
F7F5  60        RTS                             A:F8 X:00 Y:5D P:A5 SP:F9 PPU:2872,8616,CYC: 2872
D073  21 82     AND ($82,X) @ 82 = 0300 = EF    A:F8 X:00 Y:5D P:A5 SP:FB PPU:2878,8634,CYC: 2878
D075  20 F6 F7  JSR $F7F6                       A:E8 X:00 Y:5D P:A5 SP:FB PPU:2884,8652,CYC: 2884
F7F6  90 09     BCC $F801                       A:E8 X:00 Y:5D P:A5 SP:F9 PPU:2890,8670,CYC: 2890
F7F8  10 07     BPL $F801                       A:E8 X:00 Y:5D P:A5 SP:F9 PPU:2892,8676,CYC: 2892
F7FA  C9 E8     CMP #$E8                        A:E8 X:00 Y:5D P:A5 SP:F9 PPU:2894,8682,CYC: 2894
F7FC  D0 03     BNE $F801                       A:E8 X:00 Y:5D P:27 SP:F9 PPU:2896,8688,CYC: 2896
F7FE  70 01     BVS $F801                       A:E8 X:00 Y:5D P:27 SP:F9 PPU:2898,8694,CYC: 2898
F800  60        RTS                             A:E8 X:00 Y:5D P:27 SP:F9 PPU:2900,8700,CYC: 2900
D078  C8        INY                             A:E8 X:00 Y:5D P:27 SP:FB PPU:2906,8718,CYC: 2906
D079  20 04 F8  JSR $F804                       A:E8 X:00 Y:5E P:25 SP:FB PPU:2908,8724,CYC: 2908
F804  18        CLC                             A:E8 X:00 Y:5E P:25 SP:F9 PPU:2914,8742,CYC: 2914
F805  24 01     BIT $01 = FF                    A:E8 X:00 Y:5E P:24 SP:F9 PPU:2916,8748,CYC: 2916
F807  A9 5F     LDA #$5F                        A:E8 X:00 Y:5E P:E4 SP:F9 PPU:2919,8757,CYC: 2919
F809  60        RTS                             A:5F X:00 Y:5E P:64 SP:F9 PPU:2921,8763,CYC: 2921
D07C  41 80     EOR ($80,X) @ 80 = 0200 = AA    A:5F X:00 Y:5E P:64 SP:FB PPU:2927,8781,CYC: 2927
D07E  20 0A F8  JSR $F80A                       A:F5 X:00 Y:5E P:E4 SP:FB PPU:2933,8799,CYC: 2933
F80A  B0 09     BCS $F815                       A:F5 X:00 Y:5E P:E4 SP:F9 PPU:2939,8817,CYC: 2939
F80C  10 07     BPL $F815                       A:F5 X:00 Y:5E P:E4 SP:F9 PPU:2941,8823,CYC: 2941
F80E  C9 F5     CMP #$F5                        A:F5 X:00 Y:5E P:E4 SP:F9 PPU:2943,8829,CYC: 2943
F810  D0 03     BNE $F815                       A:F5 X:00 Y:5E P:67 SP:F9 PPU:2945,8835,CYC: 2945
F812  50 01     BVC $F815                       A:F5 X:00 Y:5E P:67 SP:F9 PPU:2947,8841,CYC: 2947
F814  60        RTS                             A:F5 X:00 Y:5E P:67 SP:F9 PPU:2949,8847,CYC: 2949
D081  C8        INY                             A:F5 X:00 Y:5E P:67 SP:FB PPU:2955,8865,CYC: 2955
D082  A9 70     LDA #$70                        A:F5 X:00 Y:5F P:65 SP:FB PPU:2957,8871,CYC: 2957
D084  8D 00 03  STA $0300 = EF                  A:70 X:00 Y:5F P:65 SP:FB PPU:2959,8877,CYC: 2959
D087  20 18 F8  JSR $F818                       A:70 X:00 Y:5F P:65 SP:FB PPU:2963,8889,CYC: 2963
F818  38        SEC                             A:70 X:00 Y:5F P:65 SP:F9 PPU:2969,8907,CYC: 2969
F819  B8        CLV                             A:70 X:00 Y:5F P:65 SP:F9 PPU:2971,8913,CYC: 2971
F81A  A9 70     LDA #$70                        A:70 X:00 Y:5F P:25 SP:F9 PPU:2973,8919,CYC: 2973
F81C  60        RTS                             A:70 X:00 Y:5F P:25 SP:F9 PPU:2975,8925,CYC: 2975
D08A  41 82     EOR ($82,X) @ 82 = 0300 = 70    A:70 X:00 Y:5F P:25 SP:FB PPU:2981,8943,CYC: 2981
D08C  20 1D F8  JSR $F81D                       A:00 X:00 Y:5F P:27 SP:FB PPU:2987,8961,CYC: 2987
F81D  D0 07     BNE $F826                       A:00 X:00 Y:5F P:27 SP:F9 PPU:2993,8979,CYC: 2993
F81F  70 05     BVS $F826                       A:00 X:00 Y:5F P:27 SP:F9 PPU:2995,8985,CYC: 2995
F821  90 03     BCC $F826                       A:00 X:00 Y:5F P:27 SP:F9 PPU:2997,8991,CYC: 2997
F823  30 01     BMI $F826                       A:00 X:00 Y:5F P:27 SP:F9 PPU:2999,8997,CYC: 2999
F825  60        RTS                             A:00 X:00 Y:5F P:27 SP:F9 PPU:3001,9003,CYC: 3001
D08F  C8        INY                             A:00 X:00 Y:5F P:27 SP:FB PPU:3007,9021,CYC: 3007
D090  A9 69     LDA #$69                        A:00 X:00 Y:60 P:25 SP:FB PPU:3009,9027,CYC: 3009
D092  8D 00 02  STA $0200 = AA                  A:69 X:00 Y:60 P:25 SP:FB PPU:3011,9033,CYC: 3011
D095  20 29 F8  JSR $F829                       A:69 X:00 Y:60 P:25 SP:FB PPU:3015,9045,CYC: 3015
F829  18        CLC                             A:69 X:00 Y:60 P:25 SP:F9 PPU:3021,9063,CYC: 3021
F82A  24 01     BIT $01 = FF                    A:69 X:00 Y:60 P:24 SP:F9 PPU:3023,9069,CYC: 3023
F82C  A9 00     LDA #$00                        A:69 X:00 Y:60 P:E4 SP:F9 PPU:3026,9078,CYC: 3026
F82E  60        RTS                             A:00 X:00 Y:60 P:66 SP:F9 PPU:3028,9084,CYC: 3028
D098  61 80     ADC ($80,X) @ 80 = 0200 = 69    A:00 X:00 Y:60 P:66 SP:FB PPU:3034,9102,CYC: 3034
D09A  20 2F F8  JSR $F82F                       A:69 X:00 Y:60 P:24 SP:FB PPU:3040,9120,CYC: 3040
F82F  30 09     BMI $F83A                       A:69 X:00 Y:60 P:24 SP:F9 PPU:3046,9138,CYC: 3046
F831  B0 07     BCS $F83A                       A:69 X:00 Y:60 P:24 SP:F9 PPU:3048,9144,CYC: 3048
F833  C9 69     CMP #$69                        A:69 X:00 Y:60 P:24 SP:F9 PPU:3050,9150,CYC: 3050
F835  D0 03     BNE $F83A                       A:69 X:00 Y:60 P:27 SP:F9 PPU:3052,9156,CYC: 3052
F837  70 01     BVS $F83A                       A:69 X:00 Y:60 P:27 SP:F9 PPU:3054,9162,CYC: 3054
F839  60        RTS                             A:69 X:00 Y:60 P:27 SP:F9 PPU:3056,9168,CYC: 3056
D09D  C8        INY                             A:69 X:00 Y:60 P:27 SP:FB PPU:3062,9186,CYC: 3062
D09E  20 3D F8  JSR $F83D                       A:69 X:00 Y:61 P:25 SP:FB PPU:3064,9192,CYC: 3064
F83D  38        SEC                             A:69 X:00 Y:61 P:25 SP:F9 PPU:3070,9210,CYC: 3070
F83E  24 01     BIT $01 = FF                    A:69 X:00 Y:61 P:25 SP:F9 PPU:3072,9216,CYC: 3072
F840  A9 00     LDA #$00                        A:69 X:00 Y:61 P:E5 SP:F9 PPU:3075,9225,CYC: 3075
F842  60        RTS                             A:00 X:00 Y:61 P:67 SP:F9 PPU:3077,9231,CYC: 3077
D0A1  61 80     ADC ($80,X) @ 80 = 0200 = 69    A:00 X:00 Y:61 P:67 SP:FB PPU:3083,9249,CYC: 3083
D0A3  20 43 F8  JSR $F843                       A:6A X:00 Y:61 P:24 SP:FB PPU:3089,9267,CYC: 3089
F843  30 09     BMI $F84E                       A:6A X:00 Y:61 P:24 SP:F9 PPU:3095,9285,CYC: 3095
F845  B0 07     BCS $F84E                       A:6A X:00 Y:61 P:24 SP:F9 PPU:3097,9291,CYC: 3097
F847  C9 6A     CMP #$6A                        A:6A X:00 Y:61 P:24 SP:F9 PPU:3099,9297,CYC: 3099
F849  D0 03     BNE $F84E                       A:6A X:00 Y:61 P:27 SP:F9 PPU:3101,9303,CYC: 3101
F84B  70 01     BVS $F84E                       A:6A X:00 Y:61 P:27 SP:F9 PPU:3103,9309,CYC: 3103
F84D  60        RTS                             A:6A X:00 Y:61 P:27 SP:F9 PPU:3105,9315,CYC: 3105
D0A6  C8        INY                             A:6A X:00 Y:61 P:27 SP:FB PPU:3111,9333,CYC: 3111
D0A7  A9 7F     LDA #$7F                        A:6A X:00 Y:62 P:25 SP:FB PPU:3113,9339,CYC: 3113
D0A9  8D 00 02  STA $0200 = 69                  A:7F X:00 Y:62 P:25 SP:FB PPU:3115,9345,CYC: 3115
D0AC  20 51 F8  JSR $F851                       A:7F X:00 Y:62 P:25 SP:FB PPU:3119,9357,CYC: 3119
F851  38        SEC                             A:7F X:00 Y:62 P:25 SP:F9 PPU:3125,9375,CYC: 3125
F852  B8        CLV                             A:7F X:00 Y:62 P:25 SP:F9 PPU:3127,9381,CYC: 3127
F853  A9 7F     LDA #$7F                        A:7F X:00 Y:62 P:25 SP:F9 PPU:3129,9387,CYC: 3129
F855  60        RTS                             A:7F X:00 Y:62 P:25 SP:F9 PPU:3131,9393,CYC: 3131
D0AF  61 80     ADC ($80,X) @ 80 = 0200 = 7F    A:7F X:00 Y:62 P:25 SP:FB PPU:3137,9411,CYC: 3137
D0B1  20 56 F8  JSR $F856                       A:FF X:00 Y:62 P:E4 SP:FB PPU:3143,9429,CYC: 3143
F856  10 09     BPL $F861                       A:FF X:00 Y:62 P:E4 SP:F9 PPU:3149,9447,CYC: 3149
F858  B0 07     BCS $F861                       A:FF X:00 Y:62 P:E4 SP:F9 PPU:3151,9453,CYC: 3151
F85A  C9 FF     CMP #$FF                        A:FF X:00 Y:62 P:E4 SP:F9 PPU:3153,9459,CYC: 3153
F85C  D0 03     BNE $F861                       A:FF X:00 Y:62 P:67 SP:F9 PPU:3155,9465,CYC: 3155
F85E  50 01     BVC $F861                       A:FF X:00 Y:62 P:67 SP:F9 PPU:3157,9471,CYC: 3157
F860  60        RTS                             A:FF X:00 Y:62 P:67 SP:F9 PPU:3159,9477,CYC: 3159
D0B4  C8        INY                             A:FF X:00 Y:62 P:67 SP:FB PPU:3165,9495,CYC: 3165
D0B5  A9 80     LDA #$80                        A:FF X:00 Y:63 P:65 SP:FB PPU:3167,9501,CYC: 3167
D0B7  8D 00 02  STA $0200 = 7F                  A:80 X:00 Y:63 P:E5 SP:FB PPU:3169,9507,CYC: 3169
D0BA  20 64 F8  JSR $F864                       A:80 X:00 Y:63 P:E5 SP:FB PPU:3173,9519,CYC: 3173
F864  18        CLC                             A:80 X:00 Y:63 P:E5 SP:F9 PPU:3179,9537,CYC: 3179
F865  24 01     BIT $01 = FF                    A:80 X:00 Y:63 P:E4 SP:F9 PPU:3181,9543,CYC: 3181
F867  A9 7F     LDA #$7F                        A:80 X:00 Y:63 P:E4 SP:F9 PPU:3184,9552,CYC: 3184
F869  60        RTS                             A:7F X:00 Y:63 P:64 SP:F9 PPU:3186,9558,CYC: 3186
D0BD  61 80     ADC ($80,X) @ 80 = 0200 = 80    A:7F X:00 Y:63 P:64 SP:FB PPU:3192,9576,CYC: 3192
D0BF  20 6A F8  JSR $F86A                       A:FF X:00 Y:63 P:A4 SP:FB PPU:3198,9594,CYC: 3198
F86A  10 09     BPL $F875                       A:FF X:00 Y:63 P:A4 SP:F9 PPU:3204,9612,CYC: 3204
F86C  B0 07     BCS $F875                       A:FF X:00 Y:63 P:A4 SP:F9 PPU:3206,9618,CYC: 3206
F86E  C9 FF     CMP #$FF                        A:FF X:00 Y:63 P:A4 SP:F9 PPU:3208,9624,CYC: 3208
F870  D0 03     BNE $F875                       A:FF X:00 Y:63 P:27 SP:F9 PPU:3210,9630,CYC: 3210
F872  70 01     BVS $F875                       A:FF X:00 Y:63 P:27 SP:F9 PPU:3212,9636,CYC: 3212
F874  60        RTS                             A:FF X:00 Y:63 P:27 SP:F9 PPU:3214,9642,CYC: 3214
D0C2  C8        INY                             A:FF X:00 Y:63 P:27 SP:FB PPU:3220,9660,CYC: 3220
D0C3  20 78 F8  JSR $F878                       A:FF X:00 Y:64 P:25 SP:FB PPU:3222,9666,CYC: 3222
F878  38        SEC                             A:FF X:00 Y:64 P:25 SP:F9 PPU:3228,9684,CYC: 3228
F879  B8        CLV                             A:FF X:00 Y:64 P:25 SP:F9 PPU:3230,9690,CYC: 3230
F87A  A9 7F     LDA #$7F                        A:FF X:00 Y:64 P:25 SP:F9 PPU:3232,9696,CYC: 3232
F87C  60        RTS                             A:7F X:00 Y:64 P:25 SP:F9 PPU:3234,9702,CYC: 3234
D0C6  61 80     ADC ($80,X) @ 80 = 0200 = 80    A:7F X:00 Y:64 P:25 SP:FB PPU:3240,9720,CYC: 3240
D0C8  20 7D F8  JSR $F87D                       A:00 X:00 Y:64 P:27 SP:FB PPU:3246,9738,CYC: 3246
F87D  D0 07     BNE $F886                       A:00 X:00 Y:64 P:27 SP:F9 PPU:3252,9756,CYC: 3252
F87F  30 05     BMI $F886                       A:00 X:00 Y:64 P:27 SP:F9 PPU:3254,9762,CYC: 3254
F881  70 03     BVS $F886                       A:00 X:00 Y:64 P:27 SP:F9 PPU:3256,9768,CYC: 3256
F883  90 01     BCC $F886                       A:00 X:00 Y:64 P:27 SP:F9 PPU:3258,9774,CYC: 3258
F885  60        RTS                             A:00 X:00 Y:64 P:27 SP:F9 PPU:3260,9780,CYC: 3260
D0CB  C8        INY                             A:00 X:00 Y:64 P:27 SP:FB PPU:3266,9798,CYC: 3266
D0CC  A9 40     LDA #$40                        A:00 X:00 Y:65 P:25 SP:FB PPU:3268,9804,CYC: 3268
D0CE  8D 00 02  STA $0200 = 80                  A:40 X:00 Y:65 P:25 SP:FB PPU:3270,9810,CYC: 3270
D0D1  20 89 F8  JSR $F889                       A:40 X:00 Y:65 P:25 SP:FB PPU:3274,9822,CYC: 3274
F889  24 01     BIT $01 = FF                    A:40 X:00 Y:65 P:25 SP:F9 PPU:3280,9840,CYC: 3280
F88B  A9 40     LDA #$40                        A:40 X:00 Y:65 P:E5 SP:F9 PPU:3283,9849,CYC: 3283
F88D  60        RTS                             A:40 X:00 Y:65 P:65 SP:F9 PPU:3285,9855,CYC: 3285
D0D4  C1 80     CMP ($80,X) @ 80 = 0200 = 40    A:40 X:00 Y:65 P:65 SP:FB PPU:3291,9873,CYC: 3291
D0D6  20 8E F8  JSR $F88E                       A:40 X:00 Y:65 P:67 SP:FB PPU:3297,9891,CYC: 3297
F88E  30 07     BMI $F897                       A:40 X:00 Y:65 P:67 SP:F9 PPU:3303,9909,CYC: 3303
F890  90 05     BCC $F897                       A:40 X:00 Y:65 P:67 SP:F9 PPU:3305,9915,CYC: 3305
F892  D0 03     BNE $F897                       A:40 X:00 Y:65 P:67 SP:F9 PPU:3307,9921,CYC: 3307
F894  50 01     BVC $F897                       A:40 X:00 Y:65 P:67 SP:F9 PPU:3309,9927,CYC: 3309
F896  60        RTS                             A:40 X:00 Y:65 P:67 SP:F9 PPU:3311,9933,CYC: 3311
D0D9  C8        INY                             A:40 X:00 Y:65 P:67 SP:FB PPU:3317,9951,CYC: 3317
D0DA  48        PHA                             A:40 X:00 Y:66 P:65 SP:FB PPU:3319,9957,CYC: 3319
D0DB  A9 3F     LDA #$3F                        A:40 X:00 Y:66 P:65 SP:FA PPU:3322,9966,CYC: 3322
D0DD  8D 00 02  STA $0200 = 40                  A:3F X:00 Y:66 P:65 SP:FA PPU:3324,9972,CYC: 3324
D0E0  68        PLA                             A:3F X:00 Y:66 P:65 SP:FA PPU:3328,9984,CYC: 3328
D0E1  20 9A F8  JSR $F89A                       A:40 X:00 Y:66 P:65 SP:FB PPU:3332,9996,CYC: 3332
F89A  B8        CLV                             A:40 X:00 Y:66 P:65 SP:F9 PPU:3338,10014,CYC: 3338
F89B  60        RTS                             A:40 X:00 Y:66 P:25 SP:F9 PPU:3340,10020,CYC: 3340
D0E4  C1 80     CMP ($80,X) @ 80 = 0200 = 3F    A:40 X:00 Y:66 P:25 SP:FB PPU:3346,10038,CYC: 3346
D0E6  20 9C F8  JSR $F89C                       A:40 X:00 Y:66 P:25 SP:FB PPU:3352,10056,CYC: 3352
F89C  F0 07     BEQ $F8A5                       A:40 X:00 Y:66 P:25 SP:F9 PPU:3358,10074,CYC: 3358
F89E  30 05     BMI $F8A5                       A:40 X:00 Y:66 P:25 SP:F9 PPU:3360,10080,CYC: 3360
F8A0  90 03     BCC $F8A5                       A:40 X:00 Y:66 P:25 SP:F9 PPU:3362,10086,CYC: 3362
F8A2  70 01     BVS $F8A5                       A:40 X:00 Y:66 P:25 SP:F9 PPU:3364,10092,CYC: 3364
F8A4  60        RTS                             A:40 X:00 Y:66 P:25 SP:F9 PPU:3366,10098,CYC: 3366
D0E9  C8        INY                             A:40 X:00 Y:66 P:25 SP:FB PPU:3372,10116,CYC: 3372
D0EA  48        PHA                             A:40 X:00 Y:67 P:25 SP:FB PPU:3374,10122,CYC: 3374
D0EB  A9 41     LDA #$41                        A:40 X:00 Y:67 P:25 SP:FA PPU:3377,10131,CYC: 3377
D0ED  8D 00 02  STA $0200 = 3F                  A:41 X:00 Y:67 P:25 SP:FA PPU:3379,10137,CYC: 3379
D0F0  68        PLA                             A:41 X:00 Y:67 P:25 SP:FA PPU:3383,10149,CYC: 3383
D0F1  C1 80     CMP ($80,X) @ 80 = 0200 = 41    A:40 X:00 Y:67 P:25 SP:FB PPU:3387,10161,CYC: 3387
D0F3  20 A8 F8  JSR $F8A8                       A:40 X:00 Y:67 P:A4 SP:FB PPU:3393,10179,CYC: 3393
F8A8  F0 05     BEQ $F8AF                       A:40 X:00 Y:67 P:A4 SP:F9 PPU:3399,10197,CYC: 3399
F8AA  10 03     BPL $F8AF                       A:40 X:00 Y:67 P:A4 SP:F9 PPU:3401,10203,CYC: 3401
F8AC  10 01     BPL $F8AF                       A:40 X:00 Y:67 P:A4 SP:F9 PPU:3403,10209,CYC: 3403
F8AE  60        RTS                             A:40 X:00 Y:67 P:A4 SP:F9 PPU:3405,10215,CYC: 3405
D0F6  C8        INY                             A:40 X:00 Y:67 P:A4 SP:FB PPU:3411,10233,CYC: 3411
D0F7  48        PHA                             A:40 X:00 Y:68 P:24 SP:FB PPU:3413,10239,CYC: 3413
D0F8  A9 00     LDA #$00                        A:40 X:00 Y:68 P:24 SP:FA PPU:3416,10248,CYC: 3416
D0FA  8D 00 02  STA $0200 = 41                  A:00 X:00 Y:68 P:26 SP:FA PPU:3418,10254,CYC: 3418
D0FD  68        PLA                             A:00 X:00 Y:68 P:26 SP:FA PPU:3422,10266,CYC: 3422
D0FE  20 B2 F8  JSR $F8B2                       A:40 X:00 Y:68 P:24 SP:FB PPU:3426,10278,CYC: 3426
F8B2  A9 80     LDA #$80                        A:40 X:00 Y:68 P:24 SP:F9 PPU:3432,10296,CYC: 3432
F8B4  60        RTS                             A:80 X:00 Y:68 P:A4 SP:F9 PPU:3434,10302,CYC: 3434
D101  C1 80     CMP ($80,X) @ 80 = 0200 = 00    A:80 X:00 Y:68 P:A4 SP:FB PPU:3440,10320,CYC: 3440
D103  20 B5 F8  JSR $F8B5                       A:80 X:00 Y:68 P:A5 SP:FB PPU:3446,10338,CYC: 3446
F8B5  F0 05     BEQ $F8BC                       A:80 X:00 Y:68 P:A5 SP:F9 PPU:3452,10356,CYC: 3452
F8B7  10 03     BPL $F8BC                       A:80 X:00 Y:68 P:A5 SP:F9 PPU:3454,10362,CYC: 3454
F8B9  90 01     BCC $F8BC                       A:80 X:00 Y:68 P:A5 SP:F9 PPU:3456,10368,CYC: 3456
F8BB  60        RTS                             A:80 X:00 Y:68 P:A5 SP:F9 PPU:3458,10374,CYC: 3458
D106  C8        INY                             A:80 X:00 Y:68 P:A5 SP:FB PPU:3464,10392,CYC: 3464
D107  48        PHA                             A:80 X:00 Y:69 P:25 SP:FB PPU:3466,10398,CYC: 3466
D108  A9 80     LDA #$80                        A:80 X:00 Y:69 P:25 SP:FA PPU:3469,10407,CYC: 3469
D10A  8D 00 02  STA $0200 = 00                  A:80 X:00 Y:69 P:A5 SP:FA PPU:3471,10413,CYC: 3471
D10D  68        PLA                             A:80 X:00 Y:69 P:A5 SP:FA PPU:3475,10425,CYC: 3475
D10E  C1 80     CMP ($80,X) @ 80 = 0200 = 80    A:80 X:00 Y:69 P:A5 SP:FB PPU:3479,10437,CYC: 3479
D110  20 BF F8  JSR $F8BF                       A:80 X:00 Y:69 P:27 SP:FB PPU:3485,10455,CYC: 3485
F8BF  D0 05     BNE $F8C6                       A:80 X:00 Y:69 P:27 SP:F9 PPU:3491,10473,CYC: 3491
F8C1  30 03     BMI $F8C6                       A:80 X:00 Y:69 P:27 SP:F9 PPU:3493,10479,CYC: 3493
F8C3  90 01     BCC $F8C6                       A:80 X:00 Y:69 P:27 SP:F9 PPU:3495,10485,CYC: 3495
F8C5  60        RTS                             A:80 X:00 Y:69 P:27 SP:F9 PPU:3497,10491,CYC: 3497
D113  C8        INY                             A:80 X:00 Y:69 P:27 SP:FB PPU:3503,10509,CYC: 3503
D114  48        PHA                             A:80 X:00 Y:6A P:25 SP:FB PPU:3505,10515,CYC: 3505
D115  A9 81     LDA #$81                        A:80 X:00 Y:6A P:25 SP:FA PPU:3508,10524,CYC: 3508
D117  8D 00 02  STA $0200 = 80                  A:81 X:00 Y:6A P:A5 SP:FA PPU:3510,10530,CYC: 3510
D11A  68        PLA                             A:81 X:00 Y:6A P:A5 SP:FA PPU:3514,10542,CYC: 3514
D11B  C1 80     CMP ($80,X) @ 80 = 0200 = 81    A:80 X:00 Y:6A P:A5 SP:FB PPU:3518,10554,CYC: 3518
D11D  20 C9 F8  JSR $F8C9                       A:80 X:00 Y:6A P:A4 SP:FB PPU:3524,10572,CYC: 3524
F8C9  B0 05     BCS $F8D0                       A:80 X:00 Y:6A P:A4 SP:F9 PPU:3530,10590,CYC: 3530
F8CB  F0 03     BEQ $F8D0                       A:80 X:00 Y:6A P:A4 SP:F9 PPU:3532,10596,CYC: 3532
F8CD  10 01     BPL $F8D0                       A:80 X:00 Y:6A P:A4 SP:F9 PPU:3534,10602,CYC: 3534
F8CF  60        RTS                             A:80 X:00 Y:6A P:A4 SP:F9 PPU:3536,10608,CYC: 3536
D120  C8        INY                             A:80 X:00 Y:6A P:A4 SP:FB PPU:3542,10626,CYC: 3542
D121  48        PHA                             A:80 X:00 Y:6B P:24 SP:FB PPU:3544,10632,CYC: 3544
D122  A9 7F     LDA #$7F                        A:80 X:00 Y:6B P:24 SP:FA PPU:3547,10641,CYC: 3547
D124  8D 00 02  STA $0200 = 81                  A:7F X:00 Y:6B P:24 SP:FA PPU:3549,10647,CYC: 3549
D127  68        PLA                             A:7F X:00 Y:6B P:24 SP:FA PPU:3553,10659,CYC: 3553
D128  C1 80     CMP ($80,X) @ 80 = 0200 = 7F    A:80 X:00 Y:6B P:A4 SP:FB PPU:3557,10671,CYC: 3557
D12A  20 D3 F8  JSR $F8D3                       A:80 X:00 Y:6B P:25 SP:FB PPU:3563,10689,CYC: 3563
F8D3  90 05     BCC $F8DA                       A:80 X:00 Y:6B P:25 SP:F9 PPU:3569,10707,CYC: 3569
F8D5  F0 03     BEQ $F8DA                       A:80 X:00 Y:6B P:25 SP:F9 PPU:3571,10713,CYC: 3571
F8D7  30 01     BMI $F8DA                       A:80 X:00 Y:6B P:25 SP:F9 PPU:3573,10719,CYC: 3573
F8D9  60        RTS                             A:80 X:00 Y:6B P:25 SP:F9 PPU:3575,10725,CYC: 3575
D12D  C8        INY                             A:80 X:00 Y:6B P:25 SP:FB PPU:3581,10743,CYC: 3581
D12E  A9 40     LDA #$40                        A:80 X:00 Y:6C P:25 SP:FB PPU:3583,10749,CYC: 3583
D130  8D 00 02  STA $0200 = 7F                  A:40 X:00 Y:6C P:25 SP:FB PPU:3585,10755,CYC: 3585
D133  20 31 F9  JSR $F931                       A:40 X:00 Y:6C P:25 SP:FB PPU:3589,10767,CYC: 3589
F931  24 01     BIT $01 = FF                    A:40 X:00 Y:6C P:25 SP:F9 PPU:3595,10785,CYC: 3595
F933  A9 40     LDA #$40                        A:40 X:00 Y:6C P:E5 SP:F9 PPU:3598,10794,CYC: 3598
F935  38        SEC                             A:40 X:00 Y:6C P:65 SP:F9 PPU:3600,10800,CYC: 3600
F936  60        RTS                             A:40 X:00 Y:6C P:65 SP:F9 PPU:3602,10806,CYC: 3602
D136  E1 80     SBC ($80,X) @ 80 = 0200 = 40    A:40 X:00 Y:6C P:65 SP:FB PPU:3608,10824,CYC: 3608
D138  20 37 F9  JSR $F937                       A:00 X:00 Y:6C P:27 SP:FB PPU:3614,10842,CYC: 3614
F937  30 0B     BMI $F944                       A:00 X:00 Y:6C P:27 SP:F9 PPU:3620,10860,CYC: 3620
F939  90 09     BCC $F944                       A:00 X:00 Y:6C P:27 SP:F9 PPU:3622,10866,CYC: 3622
F93B  D0 07     BNE $F944                       A:00 X:00 Y:6C P:27 SP:F9 PPU:3624,10872,CYC: 3624
F93D  70 05     BVS $F944                       A:00 X:00 Y:6C P:27 SP:F9 PPU:3626,10878,CYC: 3626
F93F  C9 00     CMP #$00                        A:00 X:00 Y:6C P:27 SP:F9 PPU:3628,10884,CYC: 3628
F941  D0 01     BNE $F944                       A:00 X:00 Y:6C P:27 SP:F9 PPU:3630,10890,CYC: 3630
F943  60        RTS                             A:00 X:00 Y:6C P:27 SP:F9 PPU:3632,10896,CYC: 3632
D13B  C8        INY                             A:00 X:00 Y:6C P:27 SP:FB PPU:3638,10914,CYC: 3638
D13C  A9 3F     LDA #$3F                        A:00 X:00 Y:6D P:25 SP:FB PPU:3640,10920,CYC: 3640
D13E  8D 00 02  STA $0200 = 40                  A:3F X:00 Y:6D P:25 SP:FB PPU:3642,10926,CYC: 3642
D141  20 47 F9  JSR $F947                       A:3F X:00 Y:6D P:25 SP:FB PPU:3646,10938,CYC: 3646
F947  B8        CLV                             A:3F X:00 Y:6D P:25 SP:F9 PPU:3652,10956,CYC: 3652
F948  38        SEC                             A:3F X:00 Y:6D P:25 SP:F9 PPU:3654,10962,CYC: 3654
F949  A9 40     LDA #$40                        A:3F X:00 Y:6D P:25 SP:F9 PPU:3656,10968,CYC: 3656
F94B  60        RTS                             A:40 X:00 Y:6D P:25 SP:F9 PPU:3658,10974,CYC: 3658
D144  E1 80     SBC ($80,X) @ 80 = 0200 = 3F    A:40 X:00 Y:6D P:25 SP:FB PPU:3664,10992,CYC: 3664
D146  20 4C F9  JSR $F94C                       A:01 X:00 Y:6D P:25 SP:FB PPU:3670,11010,CYC: 3670
F94C  F0 0B     BEQ $F959                       A:01 X:00 Y:6D P:25 SP:F9 PPU:3676,11028,CYC: 3676
F94E  30 09     BMI $F959                       A:01 X:00 Y:6D P:25 SP:F9 PPU:3678,11034,CYC: 3678
F950  90 07     BCC $F959                       A:01 X:00 Y:6D P:25 SP:F9 PPU:3680,11040,CYC: 3680
F952  70 05     BVS $F959                       A:01 X:00 Y:6D P:25 SP:F9 PPU:3682,11046,CYC: 3682
F954  C9 01     CMP #$01                        A:01 X:00 Y:6D P:25 SP:F9 PPU:3684,11052,CYC: 3684
F956  D0 01     BNE $F959                       A:01 X:00 Y:6D P:27 SP:F9 PPU:3686,11058,CYC: 3686
F958  60        RTS                             A:01 X:00 Y:6D P:27 SP:F9 PPU:3688,11064,CYC: 3688
D149  C8        INY                             A:01 X:00 Y:6D P:27 SP:FB PPU:3694,11082,CYC: 3694
D14A  A9 41     LDA #$41                        A:01 X:00 Y:6E P:25 SP:FB PPU:3696,11088,CYC: 3696
D14C  8D 00 02  STA $0200 = 3F                  A:41 X:00 Y:6E P:25 SP:FB PPU:3698,11094,CYC: 3698
D14F  20 5C F9  JSR $F95C                       A:41 X:00 Y:6E P:25 SP:FB PPU:3702,11106,CYC: 3702
F95C  A9 40     LDA #$40                        A:41 X:00 Y:6E P:25 SP:F9 PPU:3708,11124,CYC: 3708
F95E  38        SEC                             A:40 X:00 Y:6E P:25 SP:F9 PPU:3710,11130,CYC: 3710
F95F  24 01     BIT $01 = FF                    A:40 X:00 Y:6E P:25 SP:F9 PPU:3712,11136,CYC: 3712
F961  60        RTS                             A:40 X:00 Y:6E P:E5 SP:F9 PPU:3715,11145,CYC: 3715
D152  E1 80     SBC ($80,X) @ 80 = 0200 = 41    A:40 X:00 Y:6E P:E5 SP:FB PPU:3721,11163,CYC: 3721
D154  20 62 F9  JSR $F962                       A:FF X:00 Y:6E P:A4 SP:FB PPU:3727,11181,CYC: 3727
F962  B0 0B     BCS $F96F                       A:FF X:00 Y:6E P:A4 SP:F9 PPU:3733,11199,CYC: 3733
F964  F0 09     BEQ $F96F                       A:FF X:00 Y:6E P:A4 SP:F9 PPU:3735,11205,CYC: 3735
F966  10 07     BPL $F96F                       A:FF X:00 Y:6E P:A4 SP:F9 PPU:3737,11211,CYC: 3737
F968  70 05     BVS $F96F                       A:FF X:00 Y:6E P:A4 SP:F9 PPU:3739,11217,CYC: 3739
F96A  C9 FF     CMP #$FF                        A:FF X:00 Y:6E P:A4 SP:F9 PPU:3741,11223,CYC: 3741
F96C  D0 01     BNE $F96F                       A:FF X:00 Y:6E P:27 SP:F9 PPU:3743,11229,CYC: 3743
F96E  60        RTS                             A:FF X:00 Y:6E P:27 SP:F9 PPU:3745,11235,CYC: 3745
D157  C8        INY                             A:FF X:00 Y:6E P:27 SP:FB PPU:3751,11253,CYC: 3751
D158  A9 00     LDA #$00                        A:FF X:00 Y:6F P:25 SP:FB PPU:3753,11259,CYC: 3753
D15A  8D 00 02  STA $0200 = 41                  A:00 X:00 Y:6F P:27 SP:FB PPU:3755,11265,CYC: 3755
D15D  20 72 F9  JSR $F972                       A:00 X:00 Y:6F P:27 SP:FB PPU:3759,11277,CYC: 3759
F972  18        CLC                             A:00 X:00 Y:6F P:27 SP:F9 PPU:3765,11295,CYC: 3765
F973  A9 80     LDA #$80                        A:00 X:00 Y:6F P:26 SP:F9 PPU:3767,11301,CYC: 3767
F975  60        RTS                             A:80 X:00 Y:6F P:A4 SP:F9 PPU:3769,11307,CYC: 3769
D160  E1 80     SBC ($80,X) @ 80 = 0200 = 00    A:80 X:00 Y:6F P:A4 SP:FB PPU:3775,11325,CYC: 3775
D162  20 76 F9  JSR $F976                       A:7F X:00 Y:6F P:65 SP:FB PPU:3781,11343,CYC: 3781
F976  90 05     BCC $F97D                       A:7F X:00 Y:6F P:65 SP:F9 PPU:3787,11361,CYC: 3787
F978  C9 7F     CMP #$7F                        A:7F X:00 Y:6F P:65 SP:F9 PPU:3789,11367,CYC: 3789
F97A  D0 01     BNE $F97D                       A:7F X:00 Y:6F P:67 SP:F9 PPU:3791,11373,CYC: 3791
F97C  60        RTS                             A:7F X:00 Y:6F P:67 SP:F9 PPU:3793,11379,CYC: 3793
D165  C8        INY                             A:7F X:00 Y:6F P:67 SP:FB PPU:3799,11397,CYC: 3799
D166  A9 7F     LDA #$7F                        A:7F X:00 Y:70 P:65 SP:FB PPU:3801,11403,CYC: 3801
D168  8D 00 02  STA $0200 = 00                  A:7F X:00 Y:70 P:65 SP:FB PPU:3803,11409,CYC: 3803
D16B  20 80 F9  JSR $F980                       A:7F X:00 Y:70 P:65 SP:FB PPU:3807,11421,CYC: 3807
F980  38        SEC                             A:7F X:00 Y:70 P:65 SP:F9 PPU:3813,11439,CYC: 3813
F981  A9 81     LDA #$81                        A:7F X:00 Y:70 P:65 SP:F9 PPU:3815,11445,CYC: 3815
F983  60        RTS                             A:81 X:00 Y:70 P:E5 SP:F9 PPU:3817,11451,CYC: 3817
D16E  E1 80     SBC ($80,X) @ 80 = 0200 = 7F    A:81 X:00 Y:70 P:E5 SP:FB PPU:3823,11469,CYC: 3823
D170  20 84 F9  JSR $F984                       A:02 X:00 Y:70 P:65 SP:FB PPU:3829,11487,CYC: 3829
F984  50 07     BVC $F98D                       A:02 X:00 Y:70 P:65 SP:F9 PPU:3835,11505,CYC: 3835
F986  90 05     BCC $F98D                       A:02 X:00 Y:70 P:65 SP:F9 PPU:3837,11511,CYC: 3837
F988  C9 02     CMP #$02                        A:02 X:00 Y:70 P:65 SP:F9 PPU:3839,11517,CYC: 3839
F98A  D0 01     BNE $F98D                       A:02 X:00 Y:70 P:67 SP:F9 PPU:3841,11523,CYC: 3841
F98C  60        RTS                             A:02 X:00 Y:70 P:67 SP:F9 PPU:3843,11529,CYC: 3843
D173  60        RTS                             A:02 X:00 Y:70 P:67 SP:FB PPU:3849,11547,CYC: 3849
C612  20 74 D1  JSR $D174                       A:02 X:00 Y:70 P:67 SP:FD PPU:3855,11565,CYC: 3855
D174  A9 55     LDA #$55                        A:02 X:00 Y:70 P:67 SP:FB PPU:3861,11583,CYC: 3861
D176  85 78     STA $78 = 00                    A:55 X:00 Y:70 P:65 SP:FB PPU:3863,11589,CYC: 3863
D178  A9 FF     LDA #$FF                        A:55 X:00 Y:70 P:65 SP:FB PPU:3866,11598,CYC: 3866
D17A  85 01     STA $01 = FF                    A:FF X:00 Y:70 P:E5 SP:FB PPU:3868,11604,CYC: 3868
D17C  24 01     BIT $01 = FF                    A:FF X:00 Y:70 P:E5 SP:FB PPU:3871,11613,CYC: 3871
D17E  A0 11     LDY #$11                        A:FF X:00 Y:70 P:E5 SP:FB PPU:3874,11622,CYC: 3874
D180  A2 23     LDX #$23                        A:FF X:00 Y:11 P:65 SP:FB PPU:3876,11628,CYC: 3876
D182  A9 00     LDA #$00                        A:FF X:23 Y:11 P:65 SP:FB PPU:3878,11634,CYC: 3878
D184  A5 78     LDA $78 = 55                    A:00 X:23 Y:11 P:67 SP:FB PPU:3880,11640,CYC: 3880
D186  F0 10     BEQ $D198                       A:55 X:23 Y:11 P:65 SP:FB PPU:3883,11649,CYC: 3883
D188  30 0E     BMI $D198                       A:55 X:23 Y:11 P:65 SP:FB PPU:3885,11655,CYC: 3885
D18A  C9 55     CMP #$55                        A:55 X:23 Y:11 P:65 SP:FB PPU:3887,11661,CYC: 3887
D18C  D0 0A     BNE $D198                       A:55 X:23 Y:11 P:67 SP:FB PPU:3889,11667,CYC: 3889
D18E  C0 11     CPY #$11                        A:55 X:23 Y:11 P:67 SP:FB PPU:3891,11673,CYC: 3891
D190  D0 06     BNE $D198                       A:55 X:23 Y:11 P:67 SP:FB PPU:3893,11679,CYC: 3893
D192  E0 23     CPX #$23                        A:55 X:23 Y:11 P:67 SP:FB PPU:3895,11685,CYC: 3895
D194  50 02     BVC $D198                       A:55 X:23 Y:11 P:67 SP:FB PPU:3897,11691,CYC: 3897
D196  F0 04     BEQ $D19C                       A:55 X:23 Y:11 P:67 SP:FB PPU:3899,11697,CYC: 3899
D19C  A9 46     LDA #$46                        A:55 X:23 Y:11 P:67 SP:FB PPU:3902,11706,CYC: 3902
D19E  24 01     BIT $01 = FF                    A:46 X:23 Y:11 P:65 SP:FB PPU:3904,11712,CYC: 3904
D1A0  85 78     STA $78 = 55                    A:46 X:23 Y:11 P:E5 SP:FB PPU:3907,11721,CYC: 3907
D1A2  F0 0A     BEQ $D1AE                       A:46 X:23 Y:11 P:E5 SP:FB PPU:3910,11730,CYC: 3910
D1A4  10 08     BPL $D1AE                       A:46 X:23 Y:11 P:E5 SP:FB PPU:3912,11736,CYC: 3912
D1A6  50 06     BVC $D1AE                       A:46 X:23 Y:11 P:E5 SP:FB PPU:3914,11742,CYC: 3914
D1A8  A5 78     LDA $78 = 46                    A:46 X:23 Y:11 P:E5 SP:FB PPU:3916,11748,CYC: 3916
D1AA  C9 46     CMP #$46                        A:46 X:23 Y:11 P:65 SP:FB PPU:3919,11757,CYC: 3919
D1AC  F0 04     BEQ $D1B2                       A:46 X:23 Y:11 P:67 SP:FB PPU:3921,11763,CYC: 3921
D1B2  A9 55     LDA #$55                        A:46 X:23 Y:11 P:67 SP:FB PPU:3924,11772,CYC: 3924
D1B4  85 78     STA $78 = 46                    A:55 X:23 Y:11 P:65 SP:FB PPU:3926,11778,CYC: 3926
D1B6  24 01     BIT $01 = FF                    A:55 X:23 Y:11 P:65 SP:FB PPU:3929,11787,CYC: 3929
D1B8  A9 11     LDA #$11                        A:55 X:23 Y:11 P:E5 SP:FB PPU:3932,11796,CYC: 3932
D1BA  A2 23     LDX #$23                        A:11 X:23 Y:11 P:65 SP:FB PPU:3934,11802,CYC: 3934
D1BC  A0 00     LDY #$00                        A:11 X:23 Y:11 P:65 SP:FB PPU:3936,11808,CYC: 3936
D1BE  A4 78     LDY $78 = 55                    A:11 X:23 Y:00 P:67 SP:FB PPU:3938,11814,CYC: 3938
D1C0  F0 10     BEQ $D1D2                       A:11 X:23 Y:55 P:65 SP:FB PPU:3941,11823,CYC: 3941
D1C2  30 0E     BMI $D1D2                       A:11 X:23 Y:55 P:65 SP:FB PPU:3943,11829,CYC: 3943
D1C4  C0 55     CPY #$55                        A:11 X:23 Y:55 P:65 SP:FB PPU:3945,11835,CYC: 3945
D1C6  D0 0A     BNE $D1D2                       A:11 X:23 Y:55 P:67 SP:FB PPU:3947,11841,CYC: 3947
D1C8  C9 11     CMP #$11                        A:11 X:23 Y:55 P:67 SP:FB PPU:3949,11847,CYC: 3949
D1CA  D0 06     BNE $D1D2                       A:11 X:23 Y:55 P:67 SP:FB PPU:3951,11853,CYC: 3951
D1CC  E0 23     CPX #$23                        A:11 X:23 Y:55 P:67 SP:FB PPU:3953,11859,CYC: 3953
D1CE  50 02     BVC $D1D2                       A:11 X:23 Y:55 P:67 SP:FB PPU:3955,11865,CYC: 3955
D1D0  F0 04     BEQ $D1D6                       A:11 X:23 Y:55 P:67 SP:FB PPU:3957,11871,CYC: 3957
D1D6  A0 46     LDY #$46                        A:11 X:23 Y:55 P:67 SP:FB PPU:3960,11880,CYC: 3960
D1D8  24 01     BIT $01 = FF                    A:11 X:23 Y:46 P:65 SP:FB PPU:3962,11886,CYC: 3962
D1DA  84 78     STY $78 = 55                    A:11 X:23 Y:46 P:E5 SP:FB PPU:3965,11895,CYC: 3965
D1DC  F0 0A     BEQ $D1E8                       A:11 X:23 Y:46 P:E5 SP:FB PPU:3968,11904,CYC: 3968
D1DE  10 08     BPL $D1E8                       A:11 X:23 Y:46 P:E5 SP:FB PPU:3970,11910,CYC: 3970
D1E0  50 06     BVC $D1E8                       A:11 X:23 Y:46 P:E5 SP:FB PPU:3972,11916,CYC: 3972
D1E2  A4 78     LDY $78 = 46                    A:11 X:23 Y:46 P:E5 SP:FB PPU:3974,11922,CYC: 3974
D1E4  C0 46     CPY #$46                        A:11 X:23 Y:46 P:65 SP:FB PPU:3977,11931,CYC: 3977
D1E6  F0 04     BEQ $D1EC                       A:11 X:23 Y:46 P:67 SP:FB PPU:3979,11937,CYC: 3979
D1EC  24 01     BIT $01 = FF                    A:11 X:23 Y:46 P:67 SP:FB PPU:3982,11946,CYC: 3982
D1EE  A9 55     LDA #$55                        A:11 X:23 Y:46 P:E5 SP:FB PPU:3985,11955,CYC: 3985
D1F0  85 78     STA $78 = 46                    A:55 X:23 Y:46 P:65 SP:FB PPU:3987,11961,CYC: 3987
D1F2  A0 11     LDY #$11                        A:55 X:23 Y:46 P:65 SP:FB PPU:3990,11970,CYC: 3990
D1F4  A9 23     LDA #$23                        A:55 X:23 Y:11 P:65 SP:FB PPU:3992,11976,CYC: 3992
D1F6  A2 00     LDX #$00                        A:23 X:23 Y:11 P:65 SP:FB PPU:3994,11982,CYC: 3994
D1F8  A6 78     LDX $78 = 55                    A:23 X:00 Y:11 P:67 SP:FB PPU:3996,11988,CYC: 3996
D1FA  F0 10     BEQ $D20C                       A:23 X:55 Y:11 P:65 SP:FB PPU:3999,11997,CYC: 3999
D1FC  30 0E     BMI $D20C                       A:23 X:55 Y:11 P:65 SP:FB PPU:4001,12003,CYC: 4001
D1FE  E0 55     CPX #$55                        A:23 X:55 Y:11 P:65 SP:FB PPU:4003,12009,CYC: 4003
D200  D0 0A     BNE $D20C                       A:23 X:55 Y:11 P:67 SP:FB PPU:4005,12015,CYC: 4005
D202  C0 11     CPY #$11                        A:23 X:55 Y:11 P:67 SP:FB PPU:4007,12021,CYC: 4007
D204  D0 06     BNE $D20C                       A:23 X:55 Y:11 P:67 SP:FB PPU:4009,12027,CYC: 4009
D206  C9 23     CMP #$23                        A:23 X:55 Y:11 P:67 SP:FB PPU:4011,12033,CYC: 4011
D208  50 02     BVC $D20C                       A:23 X:55 Y:11 P:67 SP:FB PPU:4013,12039,CYC: 4013
D20A  F0 04     BEQ $D210                       A:23 X:55 Y:11 P:67 SP:FB PPU:4015,12045,CYC: 4015
D210  A2 46     LDX #$46                        A:23 X:55 Y:11 P:67 SP:FB PPU:4018,12054,CYC: 4018
D212  24 01     BIT $01 = FF                    A:23 X:46 Y:11 P:65 SP:FB PPU:4020,12060,CYC: 4020
D214  86 78     STX $78 = 55                    A:23 X:46 Y:11 P:E5 SP:FB PPU:4023,12069,CYC: 4023
D216  F0 0A     BEQ $D222                       A:23 X:46 Y:11 P:E5 SP:FB PPU:4026,12078,CYC: 4026
D218  10 08     BPL $D222                       A:23 X:46 Y:11 P:E5 SP:FB PPU:4028,12084,CYC: 4028
D21A  50 06     BVC $D222                       A:23 X:46 Y:11 P:E5 SP:FB PPU:4030,12090,CYC: 4030
D21C  A6 78     LDX $78 = 46                    A:23 X:46 Y:11 P:E5 SP:FB PPU:4032,12096,CYC: 4032
D21E  E0 46     CPX #$46                        A:23 X:46 Y:11 P:65 SP:FB PPU:4035,12105,CYC: 4035
D220  F0 04     BEQ $D226                       A:23 X:46 Y:11 P:67 SP:FB PPU:4037,12111,CYC: 4037
D226  A9 C0     LDA #$C0                        A:23 X:46 Y:11 P:67 SP:FB PPU:4040,12120,CYC: 4040
D228  85 78     STA $78 = 46                    A:C0 X:46 Y:11 P:E5 SP:FB PPU:4042,12126,CYC: 4042
D22A  A2 33     LDX #$33                        A:C0 X:46 Y:11 P:E5 SP:FB PPU:4045,12135,CYC: 4045
D22C  A0 88     LDY #$88                        A:C0 X:33 Y:11 P:65 SP:FB PPU:4047,12141,CYC: 4047
D22E  A9 05     LDA #$05                        A:C0 X:33 Y:88 P:E5 SP:FB PPU:4049,12147,CYC: 4049
D230  24 78     BIT $78 = C0                    A:05 X:33 Y:88 P:65 SP:FB PPU:4051,12153,CYC: 4051
D232  10 10     BPL $D244                       A:05 X:33 Y:88 P:E7 SP:FB PPU:4054,12162,CYC: 4054
D234  50 0E     BVC $D244                       A:05 X:33 Y:88 P:E7 SP:FB PPU:4056,12168,CYC: 4056
D236  D0 0C     BNE $D244                       A:05 X:33 Y:88 P:E7 SP:FB PPU:4058,12174,CYC: 4058
D238  C9 05     CMP #$05                        A:05 X:33 Y:88 P:E7 SP:FB PPU:4060,12180,CYC: 4060
D23A  D0 08     BNE $D244                       A:05 X:33 Y:88 P:67 SP:FB PPU:4062,12186,CYC: 4062
D23C  E0 33     CPX #$33                        A:05 X:33 Y:88 P:67 SP:FB PPU:4064,12192,CYC: 4064
D23E  D0 04     BNE $D244                       A:05 X:33 Y:88 P:67 SP:FB PPU:4066,12198,CYC: 4066
D240  C0 88     CPY #$88                        A:05 X:33 Y:88 P:67 SP:FB PPU:4068,12204,CYC: 4068
D242  F0 04     BEQ $D248                       A:05 X:33 Y:88 P:67 SP:FB PPU:4070,12210,CYC: 4070
D248  A9 03     LDA #$03                        A:05 X:33 Y:88 P:67 SP:FB PPU:4073,12219,CYC: 4073
D24A  85 78     STA $78 = C0                    A:03 X:33 Y:88 P:65 SP:FB PPU:4075,12225,CYC: 4075
D24C  A9 01     LDA #$01                        A:03 X:33 Y:88 P:65 SP:FB PPU:4078,12234,CYC: 4078
D24E  24 78     BIT $78 = 03                    A:01 X:33 Y:88 P:65 SP:FB PPU:4080,12240,CYC: 4080
D250  30 08     BMI $D25A                       A:01 X:33 Y:88 P:25 SP:FB PPU:4083,12249,CYC: 4083
D252  70 06     BVS $D25A                       A:01 X:33 Y:88 P:25 SP:FB PPU:4085,12255,CYC: 4085
D254  F0 04     BEQ $D25A                       A:01 X:33 Y:88 P:25 SP:FB PPU:4087,12261,CYC: 4087
D256  C9 01     CMP #$01                        A:01 X:33 Y:88 P:25 SP:FB PPU:4089,12267,CYC: 4089
D258  F0 04     BEQ $D25E                       A:01 X:33 Y:88 P:27 SP:FB PPU:4091,12273,CYC: 4091
D25E  A0 7E     LDY #$7E                        A:01 X:33 Y:88 P:27 SP:FB PPU:4094,12282,CYC: 4094
D260  A9 AA     LDA #$AA                        A:01 X:33 Y:7E P:25 SP:FB PPU:4096,12288,CYC: 4096
D262  85 78     STA $78 = 03                    A:AA X:33 Y:7E P:A5 SP:FB PPU:4098,12294,CYC: 4098
D264  20 B6 F7  JSR $F7B6                       A:AA X:33 Y:7E P:A5 SP:FB PPU:4101,12303,CYC: 4101
F7B6  18        CLC                             A:AA X:33 Y:7E P:A5 SP:F9 PPU:4107,12321,CYC: 4107
F7B7  A9 FF     LDA #$FF                        A:AA X:33 Y:7E P:A4 SP:F9 PPU:4109,12327,CYC: 4109
F7B9  85 01     STA $01 = FF                    A:FF X:33 Y:7E P:A4 SP:F9 PPU:4111,12333,CYC: 4111
F7BB  24 01     BIT $01 = FF                    A:FF X:33 Y:7E P:A4 SP:F9 PPU:4114,12342,CYC: 4114
F7BD  A9 55     LDA #$55                        A:FF X:33 Y:7E P:E4 SP:F9 PPU:4117,12351,CYC: 4117
F7BF  60        RTS                             A:55 X:33 Y:7E P:64 SP:F9 PPU:4119,12357,CYC: 4119
D267  05 78     ORA $78 = AA                    A:55 X:33 Y:7E P:64 SP:FB PPU:4125,12375,CYC: 4125
D269  20 C0 F7  JSR $F7C0                       A:FF X:33 Y:7E P:E4 SP:FB PPU:4128,12384,CYC: 4128
F7C0  B0 09     BCS $F7CB                       A:FF X:33 Y:7E P:E4 SP:F9 PPU:4134,12402,CYC: 4134
F7C2  10 07     BPL $F7CB                       A:FF X:33 Y:7E P:E4 SP:F9 PPU:4136,12408,CYC: 4136
F7C4  C9 FF     CMP #$FF                        A:FF X:33 Y:7E P:E4 SP:F9 PPU:4138,12414,CYC: 4138
F7C6  D0 03     BNE $F7CB                       A:FF X:33 Y:7E P:67 SP:F9 PPU:4140,12420,CYC: 4140
F7C8  50 01     BVC $F7CB                       A:FF X:33 Y:7E P:67 SP:F9 PPU:4142,12426,CYC: 4142
F7CA  60        RTS                             A:FF X:33 Y:7E P:67 SP:F9 PPU:4144,12432,CYC: 4144
D26C  C8        INY                             A:FF X:33 Y:7E P:67 SP:FB PPU:4150,12450,CYC: 4150
D26D  A9 00     LDA #$00                        A:FF X:33 Y:7F P:65 SP:FB PPU:4152,12456,CYC: 4152
D26F  85 78     STA $78 = AA                    A:00 X:33 Y:7F P:67 SP:FB PPU:4154,12462,CYC: 4154
D271  20 CE F7  JSR $F7CE                       A:00 X:33 Y:7F P:67 SP:FB PPU:4157,12471,CYC: 4157
F7CE  38        SEC                             A:00 X:33 Y:7F P:67 SP:F9 PPU:4163,12489,CYC: 4163
F7CF  B8        CLV                             A:00 X:33 Y:7F P:67 SP:F9 PPU:4165,12495,CYC: 4165
F7D0  A9 00     LDA #$00                        A:00 X:33 Y:7F P:27 SP:F9 PPU:4167,12501,CYC: 4167
F7D2  60        RTS                             A:00 X:33 Y:7F P:27 SP:F9 PPU:4169,12507,CYC: 4169
D274  05 78     ORA $78 = 00                    A:00 X:33 Y:7F P:27 SP:FB PPU:4175,12525,CYC: 4175
D276  20 D3 F7  JSR $F7D3                       A:00 X:33 Y:7F P:27 SP:FB PPU:4178,12534,CYC: 4178
F7D3  D0 07     BNE $F7DC                       A:00 X:33 Y:7F P:27 SP:F9 PPU:4184,12552,CYC: 4184
F7D5  70 05     BVS $F7DC                       A:00 X:33 Y:7F P:27 SP:F9 PPU:4186,12558,CYC: 4186
F7D7  90 03     BCC $F7DC                       A:00 X:33 Y:7F P:27 SP:F9 PPU:4188,12564,CYC: 4188
F7D9  30 01     BMI $F7DC                       A:00 X:33 Y:7F P:27 SP:F9 PPU:4190,12570,CYC: 4190
F7DB  60        RTS                             A:00 X:33 Y:7F P:27 SP:F9 PPU:4192,12576,CYC: 4192
D279  C8        INY                             A:00 X:33 Y:7F P:27 SP:FB PPU:4198,12594,CYC: 4198
D27A  A9 AA     LDA #$AA                        A:00 X:33 Y:80 P:A5 SP:FB PPU:4200,12600,CYC: 4200
D27C  85 78     STA $78 = 00                    A:AA X:33 Y:80 P:A5 SP:FB PPU:4202,12606,CYC: 4202
D27E  20 DF F7  JSR $F7DF                       A:AA X:33 Y:80 P:A5 SP:FB PPU:4205,12615,CYC: 4205
F7DF  18        CLC                             A:AA X:33 Y:80 P:A5 SP:F9 PPU:4211,12633,CYC: 4211
F7E0  24 01     BIT $01 = FF                    A:AA X:33 Y:80 P:A4 SP:F9 PPU:4213,12639,CYC: 4213
F7E2  A9 55     LDA #$55                        A:AA X:33 Y:80 P:E4 SP:F9 PPU:4216,12648,CYC: 4216
F7E4  60        RTS                             A:55 X:33 Y:80 P:64 SP:F9 PPU:4218,12654,CYC: 4218
D281  25 78     AND $78 = AA                    A:55 X:33 Y:80 P:64 SP:FB PPU:4224,12672,CYC: 4224
D283  20 E5 F7  JSR $F7E5                       A:00 X:33 Y:80 P:66 SP:FB PPU:4227,12681,CYC: 4227
F7E5  D0 07     BNE $F7EE                       A:00 X:33 Y:80 P:66 SP:F9 PPU:4233,12699,CYC: 4233
F7E7  50 05     BVC $F7EE                       A:00 X:33 Y:80 P:66 SP:F9 PPU:4235,12705,CYC: 4235
F7E9  B0 03     BCS $F7EE                       A:00 X:33 Y:80 P:66 SP:F9 PPU:4237,12711,CYC: 4237
F7EB  30 01     BMI $F7EE                       A:00 X:33 Y:80 P:66 SP:F9 PPU:4239,12717,CYC: 4239
F7ED  60        RTS                             A:00 X:33 Y:80 P:66 SP:F9 PPU:4241,12723,CYC: 4241
D286  C8        INY                             A:00 X:33 Y:80 P:66 SP:FB PPU:4247,12741,CYC: 4247
D287  A9 EF     LDA #$EF                        A:00 X:33 Y:81 P:E4 SP:FB PPU:4249,12747,CYC: 4249
D289  85 78     STA $78 = AA                    A:EF X:33 Y:81 P:E4 SP:FB PPU:4251,12753,CYC: 4251
D28B  20 F1 F7  JSR $F7F1                       A:EF X:33 Y:81 P:E4 SP:FB PPU:4254,12762,CYC: 4254
F7F1  38        SEC                             A:EF X:33 Y:81 P:E4 SP:F9 PPU:4260,12780,CYC: 4260
F7F2  B8        CLV                             A:EF X:33 Y:81 P:E5 SP:F9 PPU:4262,12786,CYC: 4262
F7F3  A9 F8     LDA #$F8                        A:EF X:33 Y:81 P:A5 SP:F9 PPU:4264,12792,CYC: 4264
F7F5  60        RTS                             A:F8 X:33 Y:81 P:A5 SP:F9 PPU:4266,12798,CYC: 4266
D28E  25 78     AND $78 = EF                    A:F8 X:33 Y:81 P:A5 SP:FB PPU:4272,12816,CYC: 4272
D290  20 F6 F7  JSR $F7F6                       A:E8 X:33 Y:81 P:A5 SP:FB PPU:4275,12825,CYC: 4275
F7F6  90 09     BCC $F801                       A:E8 X:33 Y:81 P:A5 SP:F9 PPU:4281,12843,CYC: 4281
F7F8  10 07     BPL $F801                       A:E8 X:33 Y:81 P:A5 SP:F9 PPU:4283,12849,CYC: 4283
F7FA  C9 E8     CMP #$E8                        A:E8 X:33 Y:81 P:A5 SP:F9 PPU:4285,12855,CYC: 4285
F7FC  D0 03     BNE $F801                       A:E8 X:33 Y:81 P:27 SP:F9 PPU:4287,12861,CYC: 4287
F7FE  70 01     BVS $F801                       A:E8 X:33 Y:81 P:27 SP:F9 PPU:4289,12867,CYC: 4289
F800  60        RTS                             A:E8 X:33 Y:81 P:27 SP:F9 PPU:4291,12873,CYC: 4291
D293  C8        INY                             A:E8 X:33 Y:81 P:27 SP:FB PPU:4297,12891,CYC: 4297
D294  A9 AA     LDA #$AA                        A:E8 X:33 Y:82 P:A5 SP:FB PPU:4299,12897,CYC: 4299
D296  85 78     STA $78 = EF                    A:AA X:33 Y:82 P:A5 SP:FB PPU:4301,12903,CYC: 4301
D298  20 04 F8  JSR $F804                       A:AA X:33 Y:82 P:A5 SP:FB PPU:4304,12912,CYC: 4304
F804  18        CLC                             A:AA X:33 Y:82 P:A5 SP:F9 PPU:4310,12930,CYC: 4310
F805  24 01     BIT $01 = FF                    A:AA X:33 Y:82 P:A4 SP:F9 PPU:4312,12936,CYC: 4312
F807  A9 5F     LDA #$5F                        A:AA X:33 Y:82 P:E4 SP:F9 PPU:4315,12945,CYC: 4315
F809  60        RTS                             A:5F X:33 Y:82 P:64 SP:F9 PPU:4317,12951,CYC: 4317
D29B  45 78     EOR $78 = AA                    A:5F X:33 Y:82 P:64 SP:FB PPU:4323,12969,CYC: 4323
D29D  20 0A F8  JSR $F80A                       A:F5 X:33 Y:82 P:E4 SP:FB PPU:4326,12978,CYC: 4326
F80A  B0 09     BCS $F815                       A:F5 X:33 Y:82 P:E4 SP:F9 PPU:4332,12996,CYC: 4332
F80C  10 07     BPL $F815                       A:F5 X:33 Y:82 P:E4 SP:F9 PPU:4334,13002,CYC: 4334
F80E  C9 F5     CMP #$F5                        A:F5 X:33 Y:82 P:E4 SP:F9 PPU:4336,13008,CYC: 4336
F810  D0 03     BNE $F815                       A:F5 X:33 Y:82 P:67 SP:F9 PPU:4338,13014,CYC: 4338
F812  50 01     BVC $F815                       A:F5 X:33 Y:82 P:67 SP:F9 PPU:4340,13020,CYC: 4340
F814  60        RTS                             A:F5 X:33 Y:82 P:67 SP:F9 PPU:4342,13026,CYC: 4342
D2A0  C8        INY                             A:F5 X:33 Y:82 P:67 SP:FB PPU:4348,13044,CYC: 4348
D2A1  A9 70     LDA #$70                        A:F5 X:33 Y:83 P:E5 SP:FB PPU:4350,13050,CYC: 4350
D2A3  85 78     STA $78 = AA                    A:70 X:33 Y:83 P:65 SP:FB PPU:4352,13056,CYC: 4352
D2A5  20 18 F8  JSR $F818                       A:70 X:33 Y:83 P:65 SP:FB PPU:4355,13065,CYC: 4355
F818  38        SEC                             A:70 X:33 Y:83 P:65 SP:F9 PPU:4361,13083,CYC: 4361
F819  B8        CLV                             A:70 X:33 Y:83 P:65 SP:F9 PPU:4363,13089,CYC: 4363
F81A  A9 70     LDA #$70                        A:70 X:33 Y:83 P:25 SP:F9 PPU:4365,13095,CYC: 4365
F81C  60        RTS                             A:70 X:33 Y:83 P:25 SP:F9 PPU:4367,13101,CYC: 4367
D2A8  45 78     EOR $78 = 70                    A:70 X:33 Y:83 P:25 SP:FB PPU:4373,13119,CYC: 4373
D2AA  20 1D F8  JSR $F81D                       A:00 X:33 Y:83 P:27 SP:FB PPU:4376,13128,CYC: 4376
F81D  D0 07     BNE $F826                       A:00 X:33 Y:83 P:27 SP:F9 PPU:4382,13146,CYC: 4382
F81F  70 05     BVS $F826                       A:00 X:33 Y:83 P:27 SP:F9 PPU:4384,13152,CYC: 4384
F821  90 03     BCC $F826                       A:00 X:33 Y:83 P:27 SP:F9 PPU:4386,13158,CYC: 4386
F823  30 01     BMI $F826                       A:00 X:33 Y:83 P:27 SP:F9 PPU:4388,13164,CYC: 4388
F825  60        RTS                             A:00 X:33 Y:83 P:27 SP:F9 PPU:4390,13170,CYC: 4390
D2AD  C8        INY                             A:00 X:33 Y:83 P:27 SP:FB PPU:4396,13188,CYC: 4396
D2AE  A9 69     LDA #$69                        A:00 X:33 Y:84 P:A5 SP:FB PPU:4398,13194,CYC: 4398
D2B0  85 78     STA $78 = 70                    A:69 X:33 Y:84 P:25 SP:FB PPU:4400,13200,CYC: 4400
D2B2  20 29 F8  JSR $F829                       A:69 X:33 Y:84 P:25 SP:FB PPU:4403,13209,CYC: 4403
F829  18        CLC                             A:69 X:33 Y:84 P:25 SP:F9 PPU:4409,13227,CYC: 4409
F82A  24 01     BIT $01 = FF                    A:69 X:33 Y:84 P:24 SP:F9 PPU:4411,13233,CYC: 4411
F82C  A9 00     LDA #$00                        A:69 X:33 Y:84 P:E4 SP:F9 PPU:4414,13242,CYC: 4414
F82E  60        RTS                             A:00 X:33 Y:84 P:66 SP:F9 PPU:4416,13248,CYC: 4416
D2B5  65 78     ADC $78 = 69                    A:00 X:33 Y:84 P:66 SP:FB PPU:4422,13266,CYC: 4422
D2B7  20 2F F8  JSR $F82F                       A:69 X:33 Y:84 P:24 SP:FB PPU:4425,13275,CYC: 4425
F82F  30 09     BMI $F83A                       A:69 X:33 Y:84 P:24 SP:F9 PPU:4431,13293,CYC: 4431
F831  B0 07     BCS $F83A                       A:69 X:33 Y:84 P:24 SP:F9 PPU:4433,13299,CYC: 4433
F833  C9 69     CMP #$69                        A:69 X:33 Y:84 P:24 SP:F9 PPU:4435,13305,CYC: 4435
F835  D0 03     BNE $F83A                       A:69 X:33 Y:84 P:27 SP:F9 PPU:4437,13311,CYC: 4437
F837  70 01     BVS $F83A                       A:69 X:33 Y:84 P:27 SP:F9 PPU:4439,13317,CYC: 4439
F839  60        RTS                             A:69 X:33 Y:84 P:27 SP:F9 PPU:4441,13323,CYC: 4441
D2BA  C8        INY                             A:69 X:33 Y:84 P:27 SP:FB PPU:4447,13341,CYC: 4447
D2BB  20 3D F8  JSR $F83D                       A:69 X:33 Y:85 P:A5 SP:FB PPU:4449,13347,CYC: 4449
F83D  38        SEC                             A:69 X:33 Y:85 P:A5 SP:F9 PPU:4455,13365,CYC: 4455
F83E  24 01     BIT $01 = FF                    A:69 X:33 Y:85 P:A5 SP:F9 PPU:4457,13371,CYC: 4457
F840  A9 00     LDA #$00                        A:69 X:33 Y:85 P:E5 SP:F9 PPU:4460,13380,CYC: 4460
F842  60        RTS                             A:00 X:33 Y:85 P:67 SP:F9 PPU:4462,13386,CYC: 4462
D2BE  65 78     ADC $78 = 69                    A:00 X:33 Y:85 P:67 SP:FB PPU:4468,13404,CYC: 4468
D2C0  20 43 F8  JSR $F843                       A:6A X:33 Y:85 P:24 SP:FB PPU:4471,13413,CYC: 4471
F843  30 09     BMI $F84E                       A:6A X:33 Y:85 P:24 SP:F9 PPU:4477,13431,CYC: 4477
F845  B0 07     BCS $F84E                       A:6A X:33 Y:85 P:24 SP:F9 PPU:4479,13437,CYC: 4479
F847  C9 6A     CMP #$6A                        A:6A X:33 Y:85 P:24 SP:F9 PPU:4481,13443,CYC: 4481
F849  D0 03     BNE $F84E                       A:6A X:33 Y:85 P:27 SP:F9 PPU:4483,13449,CYC: 4483
F84B  70 01     BVS $F84E                       A:6A X:33 Y:85 P:27 SP:F9 PPU:4485,13455,CYC: 4485
F84D  60        RTS                             A:6A X:33 Y:85 P:27 SP:F9 PPU:4487,13461,CYC: 4487
D2C3  C8        INY                             A:6A X:33 Y:85 P:27 SP:FB PPU:4493,13479,CYC: 4493
D2C4  A9 7F     LDA #$7F                        A:6A X:33 Y:86 P:A5 SP:FB PPU:4495,13485,CYC: 4495
D2C6  85 78     STA $78 = 69                    A:7F X:33 Y:86 P:25 SP:FB PPU:4497,13491,CYC: 4497
D2C8  20 51 F8  JSR $F851                       A:7F X:33 Y:86 P:25 SP:FB PPU:4500,13500,CYC: 4500
F851  38        SEC                             A:7F X:33 Y:86 P:25 SP:F9 PPU:4506,13518,CYC: 4506
F852  B8        CLV                             A:7F X:33 Y:86 P:25 SP:F9 PPU:4508,13524,CYC: 4508
F853  A9 7F     LDA #$7F                        A:7F X:33 Y:86 P:25 SP:F9 PPU:4510,13530,CYC: 4510
F855  60        RTS                             A:7F X:33 Y:86 P:25 SP:F9 PPU:4512,13536,CYC: 4512
D2CB  65 78     ADC $78 = 7F                    A:7F X:33 Y:86 P:25 SP:FB PPU:4518,13554,CYC: 4518
D2CD  20 56 F8  JSR $F856                       A:FF X:33 Y:86 P:E4 SP:FB PPU:4521,13563,CYC: 4521
F856  10 09     BPL $F861                       A:FF X:33 Y:86 P:E4 SP:F9 PPU:4527,13581,CYC: 4527
F858  B0 07     BCS $F861                       A:FF X:33 Y:86 P:E4 SP:F9 PPU:4529,13587,CYC: 4529
F85A  C9 FF     CMP #$FF                        A:FF X:33 Y:86 P:E4 SP:F9 PPU:4531,13593,CYC: 4531
F85C  D0 03     BNE $F861                       A:FF X:33 Y:86 P:67 SP:F9 PPU:4533,13599,CYC: 4533
F85E  50 01     BVC $F861                       A:FF X:33 Y:86 P:67 SP:F9 PPU:4535,13605,CYC: 4535
F860  60        RTS                             A:FF X:33 Y:86 P:67 SP:F9 PPU:4537,13611,CYC: 4537
D2D0  C8        INY                             A:FF X:33 Y:86 P:67 SP:FB PPU:4543,13629,CYC: 4543
D2D1  A9 80     LDA #$80                        A:FF X:33 Y:87 P:E5 SP:FB PPU:4545,13635,CYC: 4545
D2D3  85 78     STA $78 = 7F                    A:80 X:33 Y:87 P:E5 SP:FB PPU:4547,13641,CYC: 4547
D2D5  20 64 F8  JSR $F864                       A:80 X:33 Y:87 P:E5 SP:FB PPU:4550,13650,CYC: 4550
F864  18        CLC                             A:80 X:33 Y:87 P:E5 SP:F9 PPU:4556,13668,CYC: 4556
F865  24 01     BIT $01 = FF                    A:80 X:33 Y:87 P:E4 SP:F9 PPU:4558,13674,CYC: 4558
F867  A9 7F     LDA #$7F                        A:80 X:33 Y:87 P:E4 SP:F9 PPU:4561,13683,CYC: 4561
F869  60        RTS                             A:7F X:33 Y:87 P:64 SP:F9 PPU:4563,13689,CYC: 4563
D2D8  65 78     ADC $78 = 80                    A:7F X:33 Y:87 P:64 SP:FB PPU:4569,13707,CYC: 4569
D2DA  20 6A F8  JSR $F86A                       A:FF X:33 Y:87 P:A4 SP:FB PPU:4572,13716,CYC: 4572
F86A  10 09     BPL $F875                       A:FF X:33 Y:87 P:A4 SP:F9 PPU:4578,13734,CYC: 4578
F86C  B0 07     BCS $F875                       A:FF X:33 Y:87 P:A4 SP:F9 PPU:4580,13740,CYC: 4580
F86E  C9 FF     CMP #$FF                        A:FF X:33 Y:87 P:A4 SP:F9 PPU:4582,13746,CYC: 4582
F870  D0 03     BNE $F875                       A:FF X:33 Y:87 P:27 SP:F9 PPU:4584,13752,CYC: 4584
F872  70 01     BVS $F875                       A:FF X:33 Y:87 P:27 SP:F9 PPU:4586,13758,CYC: 4586
F874  60        RTS                             A:FF X:33 Y:87 P:27 SP:F9 PPU:4588,13764,CYC: 4588
D2DD  C8        INY                             A:FF X:33 Y:87 P:27 SP:FB PPU:4594,13782,CYC: 4594
D2DE  20 78 F8  JSR $F878                       A:FF X:33 Y:88 P:A5 SP:FB PPU:4596,13788,CYC: 4596
F878  38        SEC                             A:FF X:33 Y:88 P:A5 SP:F9 PPU:4602,13806,CYC: 4602
F879  B8        CLV                             A:FF X:33 Y:88 P:A5 SP:F9 PPU:4604,13812,CYC: 4604
F87A  A9 7F     LDA #$7F                        A:FF X:33 Y:88 P:A5 SP:F9 PPU:4606,13818,CYC: 4606
F87C  60        RTS                             A:7F X:33 Y:88 P:25 SP:F9 PPU:4608,13824,CYC: 4608
D2E1  65 78     ADC $78 = 80                    A:7F X:33 Y:88 P:25 SP:FB PPU:4614,13842,CYC: 4614
D2E3  20 7D F8  JSR $F87D                       A:00 X:33 Y:88 P:27 SP:FB PPU:4617,13851,CYC: 4617
F87D  D0 07     BNE $F886                       A:00 X:33 Y:88 P:27 SP:F9 PPU:4623,13869,CYC: 4623
F87F  30 05     BMI $F886                       A:00 X:33 Y:88 P:27 SP:F9 PPU:4625,13875,CYC: 4625
F881  70 03     BVS $F886                       A:00 X:33 Y:88 P:27 SP:F9 PPU:4627,13881,CYC: 4627
F883  90 01     BCC $F886                       A:00 X:33 Y:88 P:27 SP:F9 PPU:4629,13887,CYC: 4629
F885  60        RTS                             A:00 X:33 Y:88 P:27 SP:F9 PPU:4631,13893,CYC: 4631
D2E6  C8        INY                             A:00 X:33 Y:88 P:27 SP:FB PPU:4637,13911,CYC: 4637
D2E7  A9 40     LDA #$40                        A:00 X:33 Y:89 P:A5 SP:FB PPU:4639,13917,CYC: 4639
D2E9  85 78     STA $78 = 80                    A:40 X:33 Y:89 P:25 SP:FB PPU:4641,13923,CYC: 4641
D2EB  20 89 F8  JSR $F889                       A:40 X:33 Y:89 P:25 SP:FB PPU:4644,13932,CYC: 4644
F889  24 01     BIT $01 = FF                    A:40 X:33 Y:89 P:25 SP:F9 PPU:4650,13950,CYC: 4650
F88B  A9 40     LDA #$40                        A:40 X:33 Y:89 P:E5 SP:F9 PPU:4653,13959,CYC: 4653
F88D  60        RTS                             A:40 X:33 Y:89 P:65 SP:F9 PPU:4655,13965,CYC: 4655
D2EE  C5 78     CMP $78 = 40                    A:40 X:33 Y:89 P:65 SP:FB PPU:4661,13983,CYC: 4661
D2F0  20 8E F8  JSR $F88E                       A:40 X:33 Y:89 P:67 SP:FB PPU:4664,13992,CYC: 4664
F88E  30 07     BMI $F897                       A:40 X:33 Y:89 P:67 SP:F9 PPU:4670,14010,CYC: 4670
F890  90 05     BCC $F897                       A:40 X:33 Y:89 P:67 SP:F9 PPU:4672,14016,CYC: 4672
F892  D0 03     BNE $F897                       A:40 X:33 Y:89 P:67 SP:F9 PPU:4674,14022,CYC: 4674
F894  50 01     BVC $F897                       A:40 X:33 Y:89 P:67 SP:F9 PPU:4676,14028,CYC: 4676
F896  60        RTS                             A:40 X:33 Y:89 P:67 SP:F9 PPU:4678,14034,CYC: 4678
D2F3  C8        INY                             A:40 X:33 Y:89 P:67 SP:FB PPU:4684,14052,CYC: 4684
D2F4  48        PHA                             A:40 X:33 Y:8A P:E5 SP:FB PPU:4686,14058,CYC: 4686
D2F5  A9 3F     LDA #$3F                        A:40 X:33 Y:8A P:E5 SP:FA PPU:4689,14067,CYC: 4689
D2F7  85 78     STA $78 = 40                    A:3F X:33 Y:8A P:65 SP:FA PPU:4691,14073,CYC: 4691
D2F9  68        PLA                             A:3F X:33 Y:8A P:65 SP:FA PPU:4694,14082,CYC: 4694
D2FA  20 9A F8  JSR $F89A                       A:40 X:33 Y:8A P:65 SP:FB PPU:4698,14094,CYC: 4698
F89A  B8        CLV                             A:40 X:33 Y:8A P:65 SP:F9 PPU:4704,14112,CYC: 4704
F89B  60        RTS                             A:40 X:33 Y:8A P:25 SP:F9 PPU:4706,14118,CYC: 4706
D2FD  C5 78     CMP $78 = 3F                    A:40 X:33 Y:8A P:25 SP:FB PPU:4712,14136,CYC: 4712
D2FF  20 9C F8  JSR $F89C                       A:40 X:33 Y:8A P:25 SP:FB PPU:4715,14145,CYC: 4715
F89C  F0 07     BEQ $F8A5                       A:40 X:33 Y:8A P:25 SP:F9 PPU:4721,14163,CYC: 4721
F89E  30 05     BMI $F8A5                       A:40 X:33 Y:8A P:25 SP:F9 PPU:4723,14169,CYC: 4723
F8A0  90 03     BCC $F8A5                       A:40 X:33 Y:8A P:25 SP:F9 PPU:4725,14175,CYC: 4725
F8A2  70 01     BVS $F8A5                       A:40 X:33 Y:8A P:25 SP:F9 PPU:4727,14181,CYC: 4727
F8A4  60        RTS                             A:40 X:33 Y:8A P:25 SP:F9 PPU:4729,14187,CYC: 4729
D302  C8        INY                             A:40 X:33 Y:8A P:25 SP:FB PPU:4735,14205,CYC: 4735
D303  48        PHA                             A:40 X:33 Y:8B P:A5 SP:FB PPU:4737,14211,CYC: 4737
D304  A9 41     LDA #$41                        A:40 X:33 Y:8B P:A5 SP:FA PPU:4740,14220,CYC: 4740
D306  85 78     STA $78 = 3F                    A:41 X:33 Y:8B P:25 SP:FA PPU:4742,14226,CYC: 4742
D308  68        PLA                             A:41 X:33 Y:8B P:25 SP:FA PPU:4745,14235,CYC: 4745
D309  C5 78     CMP $78 = 41                    A:40 X:33 Y:8B P:25 SP:FB PPU:4749,14247,CYC: 4749
D30B  20 A8 F8  JSR $F8A8                       A:40 X:33 Y:8B P:A4 SP:FB PPU:4752,14256,CYC: 4752
F8A8  F0 05     BEQ $F8AF                       A:40 X:33 Y:8B P:A4 SP:F9 PPU:4758,14274,CYC: 4758
F8AA  10 03     BPL $F8AF                       A:40 X:33 Y:8B P:A4 SP:F9 PPU:4760,14280,CYC: 4760
F8AC  10 01     BPL $F8AF                       A:40 X:33 Y:8B P:A4 SP:F9 PPU:4762,14286,CYC: 4762
F8AE  60        RTS                             A:40 X:33 Y:8B P:A4 SP:F9 PPU:4764,14292,CYC: 4764
D30E  C8        INY                             A:40 X:33 Y:8B P:A4 SP:FB PPU:4770,14310,CYC: 4770
D30F  48        PHA                             A:40 X:33 Y:8C P:A4 SP:FB PPU:4772,14316,CYC: 4772
D310  A9 00     LDA #$00                        A:40 X:33 Y:8C P:A4 SP:FA PPU:4775,14325,CYC: 4775
D312  85 78     STA $78 = 41                    A:00 X:33 Y:8C P:26 SP:FA PPU:4777,14331,CYC: 4777
D314  68        PLA                             A:00 X:33 Y:8C P:26 SP:FA PPU:4780,14340,CYC: 4780
D315  20 B2 F8  JSR $F8B2                       A:40 X:33 Y:8C P:24 SP:FB PPU:4784,14352,CYC: 4784
F8B2  A9 80     LDA #$80                        A:40 X:33 Y:8C P:24 SP:F9 PPU:4790,14370,CYC: 4790
F8B4  60        RTS                             A:80 X:33 Y:8C P:A4 SP:F9 PPU:4792,14376,CYC: 4792
D318  C5 78     CMP $78 = 00                    A:80 X:33 Y:8C P:A4 SP:FB PPU:4798,14394,CYC: 4798
D31A  20 B5 F8  JSR $F8B5                       A:80 X:33 Y:8C P:A5 SP:FB PPU:4801,14403,CYC: 4801
F8B5  F0 05     BEQ $F8BC                       A:80 X:33 Y:8C P:A5 SP:F9 PPU:4807,14421,CYC: 4807
F8B7  10 03     BPL $F8BC                       A:80 X:33 Y:8C P:A5 SP:F9 PPU:4809,14427,CYC: 4809
F8B9  90 01     BCC $F8BC                       A:80 X:33 Y:8C P:A5 SP:F9 PPU:4811,14433,CYC: 4811
F8BB  60        RTS                             A:80 X:33 Y:8C P:A5 SP:F9 PPU:4813,14439,CYC: 4813
D31D  C8        INY                             A:80 X:33 Y:8C P:A5 SP:FB PPU:4819,14457,CYC: 4819
D31E  48        PHA                             A:80 X:33 Y:8D P:A5 SP:FB PPU:4821,14463,CYC: 4821
D31F  A9 80     LDA #$80                        A:80 X:33 Y:8D P:A5 SP:FA PPU:4824,14472,CYC: 4824
D321  85 78     STA $78 = 00                    A:80 X:33 Y:8D P:A5 SP:FA PPU:4826,14478,CYC: 4826
D323  68        PLA                             A:80 X:33 Y:8D P:A5 SP:FA PPU:4829,14487,CYC: 4829
D324  C5 78     CMP $78 = 80                    A:80 X:33 Y:8D P:A5 SP:FB PPU:4833,14499,CYC: 4833
D326  20 BF F8  JSR $F8BF                       A:80 X:33 Y:8D P:27 SP:FB PPU:4836,14508,CYC: 4836
F8BF  D0 05     BNE $F8C6                       A:80 X:33 Y:8D P:27 SP:F9 PPU:4842,14526,CYC: 4842
F8C1  30 03     BMI $F8C6                       A:80 X:33 Y:8D P:27 SP:F9 PPU:4844,14532,CYC: 4844
F8C3  90 01     BCC $F8C6                       A:80 X:33 Y:8D P:27 SP:F9 PPU:4846,14538,CYC: 4846
F8C5  60        RTS                             A:80 X:33 Y:8D P:27 SP:F9 PPU:4848,14544,CYC: 4848
D329  C8        INY                             A:80 X:33 Y:8D P:27 SP:FB PPU:4854,14562,CYC: 4854
D32A  48        PHA                             A:80 X:33 Y:8E P:A5 SP:FB PPU:4856,14568,CYC: 4856
D32B  A9 81     LDA #$81                        A:80 X:33 Y:8E P:A5 SP:FA PPU:4859,14577,CYC: 4859
D32D  85 78     STA $78 = 80                    A:81 X:33 Y:8E P:A5 SP:FA PPU:4861,14583,CYC: 4861
D32F  68        PLA                             A:81 X:33 Y:8E P:A5 SP:FA PPU:4864,14592,CYC: 4864
D330  C5 78     CMP $78 = 81                    A:80 X:33 Y:8E P:A5 SP:FB PPU:4868,14604,CYC: 4868
D332  20 C9 F8  JSR $F8C9                       A:80 X:33 Y:8E P:A4 SP:FB PPU:4871,14613,CYC: 4871
F8C9  B0 05     BCS $F8D0                       A:80 X:33 Y:8E P:A4 SP:F9 PPU:4877,14631,CYC: 4877
F8CB  F0 03     BEQ $F8D0                       A:80 X:33 Y:8E P:A4 SP:F9 PPU:4879,14637,CYC: 4879
F8CD  10 01     BPL $F8D0                       A:80 X:33 Y:8E P:A4 SP:F9 PPU:4881,14643,CYC: 4881
F8CF  60        RTS                             A:80 X:33 Y:8E P:A4 SP:F9 PPU:4883,14649,CYC: 4883
D335  C8        INY                             A:80 X:33 Y:8E P:A4 SP:FB PPU:4889,14667,CYC: 4889
D336  48        PHA                             A:80 X:33 Y:8F P:A4 SP:FB PPU:4891,14673,CYC: 4891
D337  A9 7F     LDA #$7F                        A:80 X:33 Y:8F P:A4 SP:FA PPU:4894,14682,CYC: 4894
D339  85 78     STA $78 = 81                    A:7F X:33 Y:8F P:24 SP:FA PPU:4896,14688,CYC: 4896
D33B  68        PLA                             A:7F X:33 Y:8F P:24 SP:FA PPU:4899,14697,CYC: 4899
D33C  C5 78     CMP $78 = 7F                    A:80 X:33 Y:8F P:A4 SP:FB PPU:4903,14709,CYC: 4903
D33E  20 D3 F8  JSR $F8D3                       A:80 X:33 Y:8F P:25 SP:FB PPU:4906,14718,CYC: 4906
F8D3  90 05     BCC $F8DA                       A:80 X:33 Y:8F P:25 SP:F9 PPU:4912,14736,CYC: 4912
F8D5  F0 03     BEQ $F8DA                       A:80 X:33 Y:8F P:25 SP:F9 PPU:4914,14742,CYC: 4914
F8D7  30 01     BMI $F8DA                       A:80 X:33 Y:8F P:25 SP:F9 PPU:4916,14748,CYC: 4916
F8D9  60        RTS                             A:80 X:33 Y:8F P:25 SP:F9 PPU:4918,14754,CYC: 4918
D341  C8        INY                             A:80 X:33 Y:8F P:25 SP:FB PPU:4924,14772,CYC: 4924
D342  A9 40     LDA #$40                        A:80 X:33 Y:90 P:A5 SP:FB PPU:4926,14778,CYC: 4926
D344  85 78     STA $78 = 7F                    A:40 X:33 Y:90 P:25 SP:FB PPU:4928,14784,CYC: 4928
D346  20 31 F9  JSR $F931                       A:40 X:33 Y:90 P:25 SP:FB PPU:4931,14793,CYC: 4931
F931  24 01     BIT $01 = FF                    A:40 X:33 Y:90 P:25 SP:F9 PPU:4937,14811,CYC: 4937
F933  A9 40     LDA #$40                        A:40 X:33 Y:90 P:E5 SP:F9 PPU:4940,14820,CYC: 4940
F935  38        SEC                             A:40 X:33 Y:90 P:65 SP:F9 PPU:4942,14826,CYC: 4942
F936  60        RTS                             A:40 X:33 Y:90 P:65 SP:F9 PPU:4944,14832,CYC: 4944
D349  E5 78     SBC $78 = 40                    A:40 X:33 Y:90 P:65 SP:FB PPU:4950,14850,CYC: 4950
D34B  20 37 F9  JSR $F937                       A:00 X:33 Y:90 P:27 SP:FB PPU:4953,14859,CYC: 4953
F937  30 0B     BMI $F944                       A:00 X:33 Y:90 P:27 SP:F9 PPU:4959,14877,CYC: 4959
F939  90 09     BCC $F944                       A:00 X:33 Y:90 P:27 SP:F9 PPU:4961,14883,CYC: 4961
F93B  D0 07     BNE $F944                       A:00 X:33 Y:90 P:27 SP:F9 PPU:4963,14889,CYC: 4963
F93D  70 05     BVS $F944                       A:00 X:33 Y:90 P:27 SP:F9 PPU:4965,14895,CYC: 4965
F93F  C9 00     CMP #$00                        A:00 X:33 Y:90 P:27 SP:F9 PPU:4967,14901,CYC: 4967
F941  D0 01     BNE $F944                       A:00 X:33 Y:90 P:27 SP:F9 PPU:4969,14907,CYC: 4969
F943  60        RTS                             A:00 X:33 Y:90 P:27 SP:F9 PPU:4971,14913,CYC: 4971
D34E  C8        INY                             A:00 X:33 Y:90 P:27 SP:FB PPU:4977,14931,CYC: 4977
D34F  A9 3F     LDA #$3F                        A:00 X:33 Y:91 P:A5 SP:FB PPU:4979,14937,CYC: 4979
D351  85 78     STA $78 = 40                    A:3F X:33 Y:91 P:25 SP:FB PPU:4981,14943,CYC: 4981
D353  20 47 F9  JSR $F947                       A:3F X:33 Y:91 P:25 SP:FB PPU:4984,14952,CYC: 4984
F947  B8        CLV                             A:3F X:33 Y:91 P:25 SP:F9 PPU:4990,14970,CYC: 4990
F948  38        SEC                             A:3F X:33 Y:91 P:25 SP:F9 PPU:4992,14976,CYC: 4992
F949  A9 40     LDA #$40                        A:3F X:33 Y:91 P:25 SP:F9 PPU:4994,14982,CYC: 4994
F94B  60        RTS                             A:40 X:33 Y:91 P:25 SP:F9 PPU:4996,14988,CYC: 4996
D356  E5 78     SBC $78 = 3F                    A:40 X:33 Y:91 P:25 SP:FB PPU:5002,15006,CYC: 5002
D358  20 4C F9  JSR $F94C                       A:01 X:33 Y:91 P:25 SP:FB PPU:5005,15015,CYC: 5005
F94C  F0 0B     BEQ $F959                       A:01 X:33 Y:91 P:25 SP:F9 PPU:5011,15033,CYC: 5011
F94E  30 09     BMI $F959                       A:01 X:33 Y:91 P:25 SP:F9 PPU:5013,15039,CYC: 5013
F950  90 07     BCC $F959                       A:01 X:33 Y:91 P:25 SP:F9 PPU:5015,15045,CYC: 5015
F952  70 05     BVS $F959                       A:01 X:33 Y:91 P:25 SP:F9 PPU:5017,15051,CYC: 5017
F954  C9 01     CMP #$01                        A:01 X:33 Y:91 P:25 SP:F9 PPU:5019,15057,CYC: 5019
F956  D0 01     BNE $F959                       A:01 X:33 Y:91 P:27 SP:F9 PPU:5021,15063,CYC: 5021
F958  60        RTS                             A:01 X:33 Y:91 P:27 SP:F9 PPU:5023,15069,CYC: 5023
D35B  C8        INY                             A:01 X:33 Y:91 P:27 SP:FB PPU:5029,15087,CYC: 5029
D35C  A9 41     LDA #$41                        A:01 X:33 Y:92 P:A5 SP:FB PPU:5031,15093,CYC: 5031
D35E  85 78     STA $78 = 3F                    A:41 X:33 Y:92 P:25 SP:FB PPU:5033,15099,CYC: 5033
D360  20 5C F9  JSR $F95C                       A:41 X:33 Y:92 P:25 SP:FB PPU:5036,15108,CYC: 5036
F95C  A9 40     LDA #$40                        A:41 X:33 Y:92 P:25 SP:F9 PPU:5042,15126,CYC: 5042
F95E  38        SEC                             A:40 X:33 Y:92 P:25 SP:F9 PPU:5044,15132,CYC: 5044
F95F  24 01     BIT $01 = FF                    A:40 X:33 Y:92 P:25 SP:F9 PPU:5046,15138,CYC: 5046
F961  60        RTS                             A:40 X:33 Y:92 P:E5 SP:F9 PPU:5049,15147,CYC: 5049
D363  E5 78     SBC $78 = 41                    A:40 X:33 Y:92 P:E5 SP:FB PPU:5055,15165,CYC: 5055
D365  20 62 F9  JSR $F962                       A:FF X:33 Y:92 P:A4 SP:FB PPU:5058,15174,CYC: 5058
F962  B0 0B     BCS $F96F                       A:FF X:33 Y:92 P:A4 SP:F9 PPU:5064,15192,CYC: 5064
F964  F0 09     BEQ $F96F                       A:FF X:33 Y:92 P:A4 SP:F9 PPU:5066,15198,CYC: 5066
F966  10 07     BPL $F96F                       A:FF X:33 Y:92 P:A4 SP:F9 PPU:5068,15204,CYC: 5068
F968  70 05     BVS $F96F                       A:FF X:33 Y:92 P:A4 SP:F9 PPU:5070,15210,CYC: 5070
F96A  C9 FF     CMP #$FF                        A:FF X:33 Y:92 P:A4 SP:F9 PPU:5072,15216,CYC: 5072
F96C  D0 01     BNE $F96F                       A:FF X:33 Y:92 P:27 SP:F9 PPU:5074,15222,CYC: 5074
F96E  60        RTS                             A:FF X:33 Y:92 P:27 SP:F9 PPU:5076,15228,CYC: 5076
D368  C8        INY                             A:FF X:33 Y:92 P:27 SP:FB PPU:5082,15246,CYC: 5082
D369  A9 00     LDA #$00                        A:FF X:33 Y:93 P:A5 SP:FB PPU:5084,15252,CYC: 5084
D36B  85 78     STA $78 = 41                    A:00 X:33 Y:93 P:27 SP:FB PPU:5086,15258,CYC: 5086
D36D  20 72 F9  JSR $F972                       A:00 X:33 Y:93 P:27 SP:FB PPU:5089,15267,CYC: 5089
F972  18        CLC                             A:00 X:33 Y:93 P:27 SP:F9 PPU:5095,15285,CYC: 5095
F973  A9 80     LDA #$80                        A:00 X:33 Y:93 P:26 SP:F9 PPU:5097,15291,CYC: 5097
F975  60        RTS                             A:80 X:33 Y:93 P:A4 SP:F9 PPU:5099,15297,CYC: 5099
D370  E5 78     SBC $78 = 00                    A:80 X:33 Y:93 P:A4 SP:FB PPU:5105,15315,CYC: 5105
D372  20 76 F9  JSR $F976                       A:7F X:33 Y:93 P:65 SP:FB PPU:5108,15324,CYC: 5108
F976  90 05     BCC $F97D                       A:7F X:33 Y:93 P:65 SP:F9 PPU:5114,15342,CYC: 5114
F978  C9 7F     CMP #$7F                        A:7F X:33 Y:93 P:65 SP:F9 PPU:5116,15348,CYC: 5116
F97A  D0 01     BNE $F97D                       A:7F X:33 Y:93 P:67 SP:F9 PPU:5118,15354,CYC: 5118
F97C  60        RTS                             A:7F X:33 Y:93 P:67 SP:F9 PPU:5120,15360,CYC: 5120
D375  C8        INY                             A:7F X:33 Y:93 P:67 SP:FB PPU:5126,15378,CYC: 5126
D376  A9 7F     LDA #$7F                        A:7F X:33 Y:94 P:E5 SP:FB PPU:5128,15384,CYC: 5128
D378  85 78     STA $78 = 00                    A:7F X:33 Y:94 P:65 SP:FB PPU:5130,15390,CYC: 5130
D37A  20 80 F9  JSR $F980                       A:7F X:33 Y:94 P:65 SP:FB PPU:5133,15399,CYC: 5133
F980  38        SEC                             A:7F X:33 Y:94 P:65 SP:F9 PPU:5139,15417,CYC: 5139
F981  A9 81     LDA #$81                        A:7F X:33 Y:94 P:65 SP:F9 PPU:5141,15423,CYC: 5141
F983  60        RTS                             A:81 X:33 Y:94 P:E5 SP:F9 PPU:5143,15429,CYC: 5143
D37D  E5 78     SBC $78 = 7F                    A:81 X:33 Y:94 P:E5 SP:FB PPU:5149,15447,CYC: 5149
D37F  20 84 F9  JSR $F984                       A:02 X:33 Y:94 P:65 SP:FB PPU:5152,15456,CYC: 5152
F984  50 07     BVC $F98D                       A:02 X:33 Y:94 P:65 SP:F9 PPU:5158,15474,CYC: 5158
F986  90 05     BCC $F98D                       A:02 X:33 Y:94 P:65 SP:F9 PPU:5160,15480,CYC: 5160
F988  C9 02     CMP #$02                        A:02 X:33 Y:94 P:65 SP:F9 PPU:5162,15486,CYC: 5162
F98A  D0 01     BNE $F98D                       A:02 X:33 Y:94 P:67 SP:F9 PPU:5164,15492,CYC: 5164
F98C  60        RTS                             A:02 X:33 Y:94 P:67 SP:F9 PPU:5166,15498,CYC: 5166
D382  C8        INY                             A:02 X:33 Y:94 P:67 SP:FB PPU:5172,15516,CYC: 5172
D383  A9 40     LDA #$40                        A:02 X:33 Y:95 P:E5 SP:FB PPU:5174,15522,CYC: 5174
D385  85 78     STA $78 = 7F                    A:40 X:33 Y:95 P:65 SP:FB PPU:5176,15528,CYC: 5176
D387  20 89 F8  JSR $F889                       A:40 X:33 Y:95 P:65 SP:FB PPU:5179,15537,CYC: 5179
F889  24 01     BIT $01 = FF                    A:40 X:33 Y:95 P:65 SP:F9 PPU:5185,15555,CYC: 5185
F88B  A9 40     LDA #$40                        A:40 X:33 Y:95 P:E5 SP:F9 PPU:5188,15564,CYC: 5188
F88D  60        RTS                             A:40 X:33 Y:95 P:65 SP:F9 PPU:5190,15570,CYC: 5190
D38A  AA        TAX                             A:40 X:33 Y:95 P:65 SP:FB PPU:5196,15588,CYC: 5196
D38B  E4 78     CPX $78 = 40                    A:40 X:40 Y:95 P:65 SP:FB PPU:5198,15594,CYC: 5198
D38D  20 8E F8  JSR $F88E                       A:40 X:40 Y:95 P:67 SP:FB PPU:5201,15603,CYC: 5201
F88E  30 07     BMI $F897                       A:40 X:40 Y:95 P:67 SP:F9 PPU:5207,15621,CYC: 5207
F890  90 05     BCC $F897                       A:40 X:40 Y:95 P:67 SP:F9 PPU:5209,15627,CYC: 5209
F892  D0 03     BNE $F897                       A:40 X:40 Y:95 P:67 SP:F9 PPU:5211,15633,CYC: 5211
F894  50 01     BVC $F897                       A:40 X:40 Y:95 P:67 SP:F9 PPU:5213,15639,CYC: 5213
F896  60        RTS                             A:40 X:40 Y:95 P:67 SP:F9 PPU:5215,15645,CYC: 5215
D390  C8        INY                             A:40 X:40 Y:95 P:67 SP:FB PPU:5221,15663,CYC: 5221
D391  A9 3F     LDA #$3F                        A:40 X:40 Y:96 P:E5 SP:FB PPU:5223,15669,CYC: 5223
D393  85 78     STA $78 = 40                    A:3F X:40 Y:96 P:65 SP:FB PPU:5225,15675,CYC: 5225
D395  20 9A F8  JSR $F89A                       A:3F X:40 Y:96 P:65 SP:FB PPU:5228,15684,CYC: 5228
F89A  B8        CLV                             A:3F X:40 Y:96 P:65 SP:F9 PPU:5234,15702,CYC: 5234
F89B  60        RTS                             A:3F X:40 Y:96 P:25 SP:F9 PPU:5236,15708,CYC: 5236
D398  E4 78     CPX $78 = 3F                    A:3F X:40 Y:96 P:25 SP:FB PPU:5242,15726,CYC: 5242
D39A  20 9C F8  JSR $F89C                       A:3F X:40 Y:96 P:25 SP:FB PPU:5245,15735,CYC: 5245
F89C  F0 07     BEQ $F8A5                       A:3F X:40 Y:96 P:25 SP:F9 PPU:5251,15753,CYC: 5251
F89E  30 05     BMI $F8A5                       A:3F X:40 Y:96 P:25 SP:F9 PPU:5253,15759,CYC: 5253
F8A0  90 03     BCC $F8A5                       A:3F X:40 Y:96 P:25 SP:F9 PPU:5255,15765,CYC: 5255
F8A2  70 01     BVS $F8A5                       A:3F X:40 Y:96 P:25 SP:F9 PPU:5257,15771,CYC: 5257
F8A4  60        RTS                             A:3F X:40 Y:96 P:25 SP:F9 PPU:5259,15777,CYC: 5259
D39D  C8        INY                             A:3F X:40 Y:96 P:25 SP:FB PPU:5265,15795,CYC: 5265
D39E  A9 41     LDA #$41                        A:3F X:40 Y:97 P:A5 SP:FB PPU:5267,15801,CYC: 5267
D3A0  85 78     STA $78 = 3F                    A:41 X:40 Y:97 P:25 SP:FB PPU:5269,15807,CYC: 5269
D3A2  E4 78     CPX $78 = 41                    A:41 X:40 Y:97 P:25 SP:FB PPU:5272,15816,CYC: 5272
D3A4  20 A8 F8  JSR $F8A8                       A:41 X:40 Y:97 P:A4 SP:FB PPU:5275,15825,CYC: 5275
F8A8  F0 05     BEQ $F8AF                       A:41 X:40 Y:97 P:A4 SP:F9 PPU:5281,15843,CYC: 5281
F8AA  10 03     BPL $F8AF                       A:41 X:40 Y:97 P:A4 SP:F9 PPU:5283,15849,CYC: 5283
F8AC  10 01     BPL $F8AF                       A:41 X:40 Y:97 P:A4 SP:F9 PPU:5285,15855,CYC: 5285
F8AE  60        RTS                             A:41 X:40 Y:97 P:A4 SP:F9 PPU:5287,15861,CYC: 5287
D3A7  C8        INY                             A:41 X:40 Y:97 P:A4 SP:FB PPU:5293,15879,CYC: 5293
D3A8  A9 00     LDA #$00                        A:41 X:40 Y:98 P:A4 SP:FB PPU:5295,15885,CYC: 5295
D3AA  85 78     STA $78 = 41                    A:00 X:40 Y:98 P:26 SP:FB PPU:5297,15891,CYC: 5297
D3AC  20 B2 F8  JSR $F8B2                       A:00 X:40 Y:98 P:26 SP:FB PPU:5300,15900,CYC: 5300
F8B2  A9 80     LDA #$80                        A:00 X:40 Y:98 P:26 SP:F9 PPU:5306,15918,CYC: 5306
F8B4  60        RTS                             A:80 X:40 Y:98 P:A4 SP:F9 PPU:5308,15924,CYC: 5308
D3AF  AA        TAX                             A:80 X:40 Y:98 P:A4 SP:FB PPU:5314,15942,CYC: 5314
D3B0  E4 78     CPX $78 = 00                    A:80 X:80 Y:98 P:A4 SP:FB PPU:5316,15948,CYC: 5316
D3B2  20 B5 F8  JSR $F8B5                       A:80 X:80 Y:98 P:A5 SP:FB PPU:5319,15957,CYC: 5319
F8B5  F0 05     BEQ $F8BC                       A:80 X:80 Y:98 P:A5 SP:F9 PPU:5325,15975,CYC: 5325
F8B7  10 03     BPL $F8BC                       A:80 X:80 Y:98 P:A5 SP:F9 PPU:5327,15981,CYC: 5327
F8B9  90 01     BCC $F8BC                       A:80 X:80 Y:98 P:A5 SP:F9 PPU:5329,15987,CYC: 5329
F8BB  60        RTS                             A:80 X:80 Y:98 P:A5 SP:F9 PPU:5331,15993,CYC: 5331
D3B5  C8        INY                             A:80 X:80 Y:98 P:A5 SP:FB PPU:5337,16011,CYC: 5337
D3B6  A9 80     LDA #$80                        A:80 X:80 Y:99 P:A5 SP:FB PPU:5339,16017,CYC: 5339
D3B8  85 78     STA $78 = 00                    A:80 X:80 Y:99 P:A5 SP:FB PPU:5341,16023,CYC: 5341
D3BA  E4 78     CPX $78 = 80                    A:80 X:80 Y:99 P:A5 SP:FB PPU:5344,16032,CYC: 5344
D3BC  20 BF F8  JSR $F8BF                       A:80 X:80 Y:99 P:27 SP:FB PPU:5347,16041,CYC: 5347
F8BF  D0 05     BNE $F8C6                       A:80 X:80 Y:99 P:27 SP:F9 PPU:5353,16059,CYC: 5353
F8C1  30 03     BMI $F8C6                       A:80 X:80 Y:99 P:27 SP:F9 PPU:5355,16065,CYC: 5355
F8C3  90 01     BCC $F8C6                       A:80 X:80 Y:99 P:27 SP:F9 PPU:5357,16071,CYC: 5357
F8C5  60        RTS                             A:80 X:80 Y:99 P:27 SP:F9 PPU:5359,16077,CYC: 5359
D3BF  C8        INY                             A:80 X:80 Y:99 P:27 SP:FB PPU:5365,16095,CYC: 5365
D3C0  A9 81     LDA #$81                        A:80 X:80 Y:9A P:A5 SP:FB PPU:5367,16101,CYC: 5367
D3C2  85 78     STA $78 = 80                    A:81 X:80 Y:9A P:A5 SP:FB PPU:5369,16107,CYC: 5369
D3C4  E4 78     CPX $78 = 81                    A:81 X:80 Y:9A P:A5 SP:FB PPU:5372,16116,CYC: 5372
D3C6  20 C9 F8  JSR $F8C9                       A:81 X:80 Y:9A P:A4 SP:FB PPU:5375,16125,CYC: 5375
F8C9  B0 05     BCS $F8D0                       A:81 X:80 Y:9A P:A4 SP:F9 PPU:5381,16143,CYC: 5381
F8CB  F0 03     BEQ $F8D0                       A:81 X:80 Y:9A P:A4 SP:F9 PPU:5383,16149,CYC: 5383
F8CD  10 01     BPL $F8D0                       A:81 X:80 Y:9A P:A4 SP:F9 PPU:5385,16155,CYC: 5385
F8CF  60        RTS                             A:81 X:80 Y:9A P:A4 SP:F9 PPU:5387,16161,CYC: 5387
D3C9  C8        INY                             A:81 X:80 Y:9A P:A4 SP:FB PPU:5393,16179,CYC: 5393
D3CA  A9 7F     LDA #$7F                        A:81 X:80 Y:9B P:A4 SP:FB PPU:5395,16185,CYC: 5395
D3CC  85 78     STA $78 = 81                    A:7F X:80 Y:9B P:24 SP:FB PPU:5397,16191,CYC: 5397
D3CE  E4 78     CPX $78 = 7F                    A:7F X:80 Y:9B P:24 SP:FB PPU:5400,16200,CYC: 5400
D3D0  20 D3 F8  JSR $F8D3                       A:7F X:80 Y:9B P:25 SP:FB PPU:5403,16209,CYC: 5403
F8D3  90 05     BCC $F8DA                       A:7F X:80 Y:9B P:25 SP:F9 PPU:5409,16227,CYC: 5409
F8D5  F0 03     BEQ $F8DA                       A:7F X:80 Y:9B P:25 SP:F9 PPU:5411,16233,CYC: 5411
F8D7  30 01     BMI $F8DA                       A:7F X:80 Y:9B P:25 SP:F9 PPU:5413,16239,CYC: 5413
F8D9  60        RTS                             A:7F X:80 Y:9B P:25 SP:F9 PPU:5415,16245,CYC: 5415
D3D3  C8        INY                             A:7F X:80 Y:9B P:25 SP:FB PPU:5421,16263,CYC: 5421
D3D4  98        TYA                             A:7F X:80 Y:9C P:A5 SP:FB PPU:5423,16269,CYC: 5423
D3D5  AA        TAX                             A:9C X:80 Y:9C P:A5 SP:FB PPU:5425,16275,CYC: 5425
D3D6  A9 40     LDA #$40                        A:9C X:9C Y:9C P:A5 SP:FB PPU:5427,16281,CYC: 5427
D3D8  85 78     STA $78 = 7F                    A:40 X:9C Y:9C P:25 SP:FB PPU:5429,16287,CYC: 5429
D3DA  20 DD F8  JSR $F8DD                       A:40 X:9C Y:9C P:25 SP:FB PPU:5432,16296,CYC: 5432
F8DD  24 01     BIT $01 = FF                    A:40 X:9C Y:9C P:25 SP:F9 PPU:5438,16314,CYC: 5438
F8DF  A0 40     LDY #$40                        A:40 X:9C Y:9C P:E5 SP:F9 PPU:5441,16323,CYC: 5441
F8E1  60        RTS                             A:40 X:9C Y:40 P:65 SP:F9 PPU:5443,16329,CYC: 5443
D3DD  C4 78     CPY $78 = 40                    A:40 X:9C Y:40 P:65 SP:FB PPU:5449,16347,CYC: 5449
D3DF  20 E2 F8  JSR $F8E2                       A:40 X:9C Y:40 P:67 SP:FB PPU:5452,16356,CYC: 5452
F8E2  30 07     BMI $F8EB                       A:40 X:9C Y:40 P:67 SP:F9 PPU:5458,16374,CYC: 5458
F8E4  90 05     BCC $F8EB                       A:40 X:9C Y:40 P:67 SP:F9 PPU:5460,16380,CYC: 5460
F8E6  D0 03     BNE $F8EB                       A:40 X:9C Y:40 P:67 SP:F9 PPU:5462,16386,CYC: 5462
F8E8  50 01     BVC $F8EB                       A:40 X:9C Y:40 P:67 SP:F9 PPU:5464,16392,CYC: 5464
F8EA  60        RTS                             A:40 X:9C Y:40 P:67 SP:F9 PPU:5466,16398,CYC: 5466
D3E2  E8        INX                             A:40 X:9C Y:40 P:67 SP:FB PPU:5472,16416,CYC: 5472
D3E3  A9 3F     LDA #$3F                        A:40 X:9D Y:40 P:E5 SP:FB PPU:5474,16422,CYC: 5474
D3E5  85 78     STA $78 = 40                    A:3F X:9D Y:40 P:65 SP:FB PPU:5476,16428,CYC: 5476
D3E7  20 EE F8  JSR $F8EE                       A:3F X:9D Y:40 P:65 SP:FB PPU:5479,16437,CYC: 5479
F8EE  B8        CLV                             A:3F X:9D Y:40 P:65 SP:F9 PPU:5485,16455,CYC: 5485
F8EF  60        RTS                             A:3F X:9D Y:40 P:25 SP:F9 PPU:5487,16461,CYC: 5487
D3EA  C4 78     CPY $78 = 3F                    A:3F X:9D Y:40 P:25 SP:FB PPU:5493,16479,CYC: 5493
D3EC  20 F0 F8  JSR $F8F0                       A:3F X:9D Y:40 P:25 SP:FB PPU:5496,16488,CYC: 5496
F8F0  F0 07     BEQ $F8F9                       A:3F X:9D Y:40 P:25 SP:F9 PPU:5502,16506,CYC: 5502
F8F2  30 05     BMI $F8F9                       A:3F X:9D Y:40 P:25 SP:F9 PPU:5504,16512,CYC: 5504
F8F4  90 03     BCC $F8F9                       A:3F X:9D Y:40 P:25 SP:F9 PPU:5506,16518,CYC: 5506
F8F6  70 01     BVS $F8F9                       A:3F X:9D Y:40 P:25 SP:F9 PPU:5508,16524,CYC: 5508
F8F8  60        RTS                             A:3F X:9D Y:40 P:25 SP:F9 PPU:5510,16530,CYC: 5510
D3EF  E8        INX                             A:3F X:9D Y:40 P:25 SP:FB PPU:5516,16548,CYC: 5516
D3F0  A9 41     LDA #$41                        A:3F X:9E Y:40 P:A5 SP:FB PPU:5518,16554,CYC: 5518
D3F2  85 78     STA $78 = 3F                    A:41 X:9E Y:40 P:25 SP:FB PPU:5520,16560,CYC: 5520
D3F4  C4 78     CPY $78 = 41                    A:41 X:9E Y:40 P:25 SP:FB PPU:5523,16569,CYC: 5523
D3F6  20 FC F8  JSR $F8FC                       A:41 X:9E Y:40 P:A4 SP:FB PPU:5526,16578,CYC: 5526
F8FC  F0 05     BEQ $F903                       A:41 X:9E Y:40 P:A4 SP:F9 PPU:5532,16596,CYC: 5532
F8FE  10 03     BPL $F903                       A:41 X:9E Y:40 P:A4 SP:F9 PPU:5534,16602,CYC: 5534
F900  10 01     BPL $F903                       A:41 X:9E Y:40 P:A4 SP:F9 PPU:5536,16608,CYC: 5536
F902  60        RTS                             A:41 X:9E Y:40 P:A4 SP:F9 PPU:5538,16614,CYC: 5538
D3F9  E8        INX                             A:41 X:9E Y:40 P:A4 SP:FB PPU:5544,16632,CYC: 5544
D3FA  A9 00     LDA #$00                        A:41 X:9F Y:40 P:A4 SP:FB PPU:5546,16638,CYC: 5546
D3FC  85 78     STA $78 = 41                    A:00 X:9F Y:40 P:26 SP:FB PPU:5548,16644,CYC: 5548
D3FE  20 06 F9  JSR $F906                       A:00 X:9F Y:40 P:26 SP:FB PPU:5551,16653,CYC: 5551
F906  A0 80     LDY #$80                        A:00 X:9F Y:40 P:26 SP:F9 PPU:5557,16671,CYC: 5557
F908  60        RTS                             A:00 X:9F Y:80 P:A4 SP:F9 PPU:5559,16677,CYC: 5559
D401  C4 78     CPY $78 = 00                    A:00 X:9F Y:80 P:A4 SP:FB PPU:5565,16695,CYC: 5565
D403  20 09 F9  JSR $F909                       A:00 X:9F Y:80 P:A5 SP:FB PPU:5568,16704,CYC: 5568
F909  F0 05     BEQ $F910                       A:00 X:9F Y:80 P:A5 SP:F9 PPU:5574,16722,CYC: 5574
F90B  10 03     BPL $F910                       A:00 X:9F Y:80 P:A5 SP:F9 PPU:5576,16728,CYC: 5576
F90D  90 01     BCC $F910                       A:00 X:9F Y:80 P:A5 SP:F9 PPU:5578,16734,CYC: 5578
F90F  60        RTS                             A:00 X:9F Y:80 P:A5 SP:F9 PPU:5580,16740,CYC: 5580
D406  E8        INX                             A:00 X:9F Y:80 P:A5 SP:FB PPU:5586,16758,CYC: 5586
D407  A9 80     LDA #$80                        A:00 X:A0 Y:80 P:A5 SP:FB PPU:5588,16764,CYC: 5588
D409  85 78     STA $78 = 00                    A:80 X:A0 Y:80 P:A5 SP:FB PPU:5590,16770,CYC: 5590
D40B  C4 78     CPY $78 = 80                    A:80 X:A0 Y:80 P:A5 SP:FB PPU:5593,16779,CYC: 5593
D40D  20 13 F9  JSR $F913                       A:80 X:A0 Y:80 P:27 SP:FB PPU:5596,16788,CYC: 5596
F913  D0 05     BNE $F91A                       A:80 X:A0 Y:80 P:27 SP:F9 PPU:5602,16806,CYC: 5602
F915  30 03     BMI $F91A                       A:80 X:A0 Y:80 P:27 SP:F9 PPU:5604,16812,CYC: 5604
F917  90 01     BCC $F91A                       A:80 X:A0 Y:80 P:27 SP:F9 PPU:5606,16818,CYC: 5606
F919  60        RTS                             A:80 X:A0 Y:80 P:27 SP:F9 PPU:5608,16824,CYC: 5608
D410  E8        INX                             A:80 X:A0 Y:80 P:27 SP:FB PPU:5614,16842,CYC: 5614
D411  A9 81     LDA #$81                        A:80 X:A1 Y:80 P:A5 SP:FB PPU:5616,16848,CYC: 5616
D413  85 78     STA $78 = 80                    A:81 X:A1 Y:80 P:A5 SP:FB PPU:5618,16854,CYC: 5618
D415  C4 78     CPY $78 = 81                    A:81 X:A1 Y:80 P:A5 SP:FB PPU:5621,16863,CYC: 5621
D417  20 1D F9  JSR $F91D                       A:81 X:A1 Y:80 P:A4 SP:FB PPU:5624,16872,CYC: 5624
F91D  B0 05     BCS $F924                       A:81 X:A1 Y:80 P:A4 SP:F9 PPU:5630,16890,CYC: 5630
F91F  F0 03     BEQ $F924                       A:81 X:A1 Y:80 P:A4 SP:F9 PPU:5632,16896,CYC: 5632
F921  10 01     BPL $F924                       A:81 X:A1 Y:80 P:A4 SP:F9 PPU:5634,16902,CYC: 5634
F923  60        RTS                             A:81 X:A1 Y:80 P:A4 SP:F9 PPU:5636,16908,CYC: 5636
D41A  E8        INX                             A:81 X:A1 Y:80 P:A4 SP:FB PPU:5642,16926,CYC: 5642
D41B  A9 7F     LDA #$7F                        A:81 X:A2 Y:80 P:A4 SP:FB PPU:5644,16932,CYC: 5644
D41D  85 78     STA $78 = 81                    A:7F X:A2 Y:80 P:24 SP:FB PPU:5646,16938,CYC: 5646
D41F  C4 78     CPY $78 = 7F                    A:7F X:A2 Y:80 P:24 SP:FB PPU:5649,16947,CYC: 5649
D421  20 27 F9  JSR $F927                       A:7F X:A2 Y:80 P:25 SP:FB PPU:5652,16956,CYC: 5652
F927  90 05     BCC $F92E                       A:7F X:A2 Y:80 P:25 SP:F9 PPU:5658,16974,CYC: 5658
F929  F0 03     BEQ $F92E                       A:7F X:A2 Y:80 P:25 SP:F9 PPU:5660,16980,CYC: 5660
F92B  30 01     BMI $F92E                       A:7F X:A2 Y:80 P:25 SP:F9 PPU:5662,16986,CYC: 5662
F92D  60        RTS                             A:7F X:A2 Y:80 P:25 SP:F9 PPU:5664,16992,CYC: 5664
D424  E8        INX                             A:7F X:A2 Y:80 P:25 SP:FB PPU:5670,17010,CYC: 5670
D425  8A        TXA                             A:7F X:A3 Y:80 P:A5 SP:FB PPU:5672,17016,CYC: 5672
D426  A8        TAY                             A:A3 X:A3 Y:80 P:A5 SP:FB PPU:5674,17022,CYC: 5674
D427  20 90 F9  JSR $F990                       A:A3 X:A3 Y:A3 P:A5 SP:FB PPU:5676,17028,CYC: 5676
F990  A2 55     LDX #$55                        A:A3 X:A3 Y:A3 P:A5 SP:F9 PPU:5682,17046,CYC: 5682
F992  A9 FF     LDA #$FF                        A:A3 X:55 Y:A3 P:25 SP:F9 PPU:5684,17052,CYC: 5684
F994  85 01     STA $01 = FF                    A:FF X:55 Y:A3 P:A5 SP:F9 PPU:5686,17058,CYC: 5686
F996  EA        NOP                             A:FF X:55 Y:A3 P:A5 SP:F9 PPU:5689,17067,CYC: 5689
F997  24 01     BIT $01 = FF                    A:FF X:55 Y:A3 P:A5 SP:F9 PPU:5691,17073,CYC: 5691
F999  38        SEC                             A:FF X:55 Y:A3 P:E5 SP:F9 PPU:5694,17082,CYC: 5694
F99A  A9 01     LDA #$01                        A:FF X:55 Y:A3 P:E5 SP:F9 PPU:5696,17088,CYC: 5696
F99C  60        RTS                             A:01 X:55 Y:A3 P:65 SP:F9 PPU:5698,17094,CYC: 5698
D42A  85 78     STA $78 = 7F                    A:01 X:55 Y:A3 P:65 SP:FB PPU:5704,17112,CYC: 5704
D42C  46 78     LSR $78 = 01                    A:01 X:55 Y:A3 P:65 SP:FB PPU:5707,17121,CYC: 5707
D42E  A5 78     LDA $78 = 00                    A:01 X:55 Y:A3 P:67 SP:FB PPU:5712,17136,CYC: 5712
D430  20 9D F9  JSR $F99D                       A:00 X:55 Y:A3 P:67 SP:FB PPU:5715,17145,CYC: 5715
F99D  90 1B     BCC $F9BA                       A:00 X:55 Y:A3 P:67 SP:F9 PPU:5721,17163,CYC: 5721
F99F  D0 19     BNE $F9BA                       A:00 X:55 Y:A3 P:67 SP:F9 PPU:5723,17169,CYC: 5723
F9A1  30 17     BMI $F9BA                       A:00 X:55 Y:A3 P:67 SP:F9 PPU:5725,17175,CYC: 5725
F9A3  50 15     BVC $F9BA                       A:00 X:55 Y:A3 P:67 SP:F9 PPU:5727,17181,CYC: 5727
F9A5  C9 00     CMP #$00                        A:00 X:55 Y:A3 P:67 SP:F9 PPU:5729,17187,CYC: 5729
F9A7  D0 11     BNE $F9BA                       A:00 X:55 Y:A3 P:67 SP:F9 PPU:5731,17193,CYC: 5731
F9A9  B8        CLV                             A:00 X:55 Y:A3 P:67 SP:F9 PPU:5733,17199,CYC: 5733
F9AA  A9 AA     LDA #$AA                        A:00 X:55 Y:A3 P:27 SP:F9 PPU:5735,17205,CYC: 5735
F9AC  60        RTS                             A:AA X:55 Y:A3 P:A5 SP:F9 PPU:5737,17211,CYC: 5737
D433  C8        INY                             A:AA X:55 Y:A3 P:A5 SP:FB PPU:5743,17229,CYC: 5743
D434  85 78     STA $78 = 00                    A:AA X:55 Y:A4 P:A5 SP:FB PPU:5745,17235,CYC: 5745
D436  46 78     LSR $78 = AA                    A:AA X:55 Y:A4 P:A5 SP:FB PPU:5748,17244,CYC: 5748
D438  A5 78     LDA $78 = 55                    A:AA X:55 Y:A4 P:24 SP:FB PPU:5753,17259,CYC: 5753
D43A  20 AD F9  JSR $F9AD                       A:55 X:55 Y:A4 P:24 SP:FB PPU:5756,17268,CYC: 5756
F9AD  B0 0B     BCS $F9BA                       A:55 X:55 Y:A4 P:24 SP:F9 PPU:5762,17286,CYC: 5762
F9AF  F0 09     BEQ $F9BA                       A:55 X:55 Y:A4 P:24 SP:F9 PPU:5764,17292,CYC: 5764
F9B1  30 07     BMI $F9BA                       A:55 X:55 Y:A4 P:24 SP:F9 PPU:5766,17298,CYC: 5766
F9B3  70 05     BVS $F9BA                       A:55 X:55 Y:A4 P:24 SP:F9 PPU:5768,17304,CYC: 5768
F9B5  C9 55     CMP #$55                        A:55 X:55 Y:A4 P:24 SP:F9 PPU:5770,17310,CYC: 5770
F9B7  D0 01     BNE $F9BA                       A:55 X:55 Y:A4 P:27 SP:F9 PPU:5772,17316,CYC: 5772
F9B9  60        RTS                             A:55 X:55 Y:A4 P:27 SP:F9 PPU:5774,17322,CYC: 5774
D43D  C8        INY                             A:55 X:55 Y:A4 P:27 SP:FB PPU:5780,17340,CYC: 5780
D43E  20 BD F9  JSR $F9BD                       A:55 X:55 Y:A5 P:A5 SP:FB PPU:5782,17346,CYC: 5782
F9BD  24 01     BIT $01 = FF                    A:55 X:55 Y:A5 P:A5 SP:F9 PPU:5788,17364,CYC: 5788
F9BF  38        SEC                             A:55 X:55 Y:A5 P:E5 SP:F9 PPU:5791,17373,CYC: 5791
F9C0  A9 80     LDA #$80                        A:55 X:55 Y:A5 P:E5 SP:F9 PPU:5793,17379,CYC: 5793
F9C2  60        RTS                             A:80 X:55 Y:A5 P:E5 SP:F9 PPU:5795,17385,CYC: 5795
D441  85 78     STA $78 = 55                    A:80 X:55 Y:A5 P:E5 SP:FB PPU:5801,17403,CYC: 5801
D443  06 78     ASL $78 = 80                    A:80 X:55 Y:A5 P:E5 SP:FB PPU:5804,17412,CYC: 5804
D445  A5 78     LDA $78 = 00                    A:80 X:55 Y:A5 P:67 SP:FB PPU:5809,17427,CYC: 5809
D447  20 C3 F9  JSR $F9C3                       A:00 X:55 Y:A5 P:67 SP:FB PPU:5812,17436,CYC: 5812
F9C3  90 1C     BCC $F9E1                       A:00 X:55 Y:A5 P:67 SP:F9 PPU:5818,17454,CYC: 5818
F9C5  D0 1A     BNE $F9E1                       A:00 X:55 Y:A5 P:67 SP:F9 PPU:5820,17460,CYC: 5820
F9C7  30 18     BMI $F9E1                       A:00 X:55 Y:A5 P:67 SP:F9 PPU:5822,17466,CYC: 5822
F9C9  50 16     BVC $F9E1                       A:00 X:55 Y:A5 P:67 SP:F9 PPU:5824,17472,CYC: 5824
F9CB  C9 00     CMP #$00                        A:00 X:55 Y:A5 P:67 SP:F9 PPU:5826,17478,CYC: 5826
F9CD  D0 12     BNE $F9E1                       A:00 X:55 Y:A5 P:67 SP:F9 PPU:5828,17484,CYC: 5828
F9CF  B8        CLV                             A:00 X:55 Y:A5 P:67 SP:F9 PPU:5830,17490,CYC: 5830
F9D0  A9 55     LDA #$55                        A:00 X:55 Y:A5 P:27 SP:F9 PPU:5832,17496,CYC: 5832
F9D2  38        SEC                             A:55 X:55 Y:A5 P:25 SP:F9 PPU:5834,17502,CYC: 5834
F9D3  60        RTS                             A:55 X:55 Y:A5 P:25 SP:F9 PPU:5836,17508,CYC: 5836
D44A  C8        INY                             A:55 X:55 Y:A5 P:25 SP:FB PPU:5842,17526,CYC: 5842
D44B  85 78     STA $78 = 00                    A:55 X:55 Y:A6 P:A5 SP:FB PPU:5844,17532,CYC: 5844
D44D  06 78     ASL $78 = 55                    A:55 X:55 Y:A6 P:A5 SP:FB PPU:5847,17541,CYC: 5847
D44F  A5 78     LDA $78 = AA                    A:55 X:55 Y:A6 P:A4 SP:FB PPU:5852,17556,CYC: 5852
D451  20 D4 F9  JSR $F9D4                       A:AA X:55 Y:A6 P:A4 SP:FB PPU:5855,17565,CYC: 5855
F9D4  B0 0B     BCS $F9E1                       A:AA X:55 Y:A6 P:A4 SP:F9 PPU:5861,17583,CYC: 5861
F9D6  F0 09     BEQ $F9E1                       A:AA X:55 Y:A6 P:A4 SP:F9 PPU:5863,17589,CYC: 5863
F9D8  10 07     BPL $F9E1                       A:AA X:55 Y:A6 P:A4 SP:F9 PPU:5865,17595,CYC: 5865
F9DA  70 05     BVS $F9E1                       A:AA X:55 Y:A6 P:A4 SP:F9 PPU:5867,17601,CYC: 5867
F9DC  C9 AA     CMP #$AA                        A:AA X:55 Y:A6 P:A4 SP:F9 PPU:5869,17607,CYC: 5869
F9DE  D0 01     BNE $F9E1                       A:AA X:55 Y:A6 P:27 SP:F9 PPU:5871,17613,CYC: 5871
F9E0  60        RTS                             A:AA X:55 Y:A6 P:27 SP:F9 PPU:5873,17619,CYC: 5873
D454  C8        INY                             A:AA X:55 Y:A6 P:27 SP:FB PPU:5879,17637,CYC: 5879
D455  20 E4 F9  JSR $F9E4                       A:AA X:55 Y:A7 P:A5 SP:FB PPU:5881,17643,CYC: 5881
F9E4  24 01     BIT $01 = FF                    A:AA X:55 Y:A7 P:A5 SP:F9 PPU:5887,17661,CYC: 5887
F9E6  38        SEC                             A:AA X:55 Y:A7 P:E5 SP:F9 PPU:5890,17670,CYC: 5890
F9E7  A9 01     LDA #$01                        A:AA X:55 Y:A7 P:E5 SP:F9 PPU:5892,17676,CYC: 5892
F9E9  60        RTS                             A:01 X:55 Y:A7 P:65 SP:F9 PPU:5894,17682,CYC: 5894
D458  85 78     STA $78 = AA                    A:01 X:55 Y:A7 P:65 SP:FB PPU:5900,17700,CYC: 5900
D45A  66 78     ROR $78 = 01                    A:01 X:55 Y:A7 P:65 SP:FB PPU:5903,17709,CYC: 5903
D45C  A5 78     LDA $78 = 80                    A:01 X:55 Y:A7 P:E5 SP:FB PPU:5908,17724,CYC: 5908
D45E  20 EA F9  JSR $F9EA                       A:80 X:55 Y:A7 P:E5 SP:FB PPU:5911,17733,CYC: 5911
F9EA  90 1C     BCC $FA08                       A:80 X:55 Y:A7 P:E5 SP:F9 PPU:5917,17751,CYC: 5917
F9EC  F0 1A     BEQ $FA08                       A:80 X:55 Y:A7 P:E5 SP:F9 PPU:5919,17757,CYC: 5919
F9EE  10 18     BPL $FA08                       A:80 X:55 Y:A7 P:E5 SP:F9 PPU:5921,17763,CYC: 5921
F9F0  50 16     BVC $FA08                       A:80 X:55 Y:A7 P:E5 SP:F9 PPU:5923,17769,CYC: 5923
F9F2  C9 80     CMP #$80                        A:80 X:55 Y:A7 P:E5 SP:F9 PPU:5925,17775,CYC: 5925
F9F4  D0 12     BNE $FA08                       A:80 X:55 Y:A7 P:67 SP:F9 PPU:5927,17781,CYC: 5927
F9F6  B8        CLV                             A:80 X:55 Y:A7 P:67 SP:F9 PPU:5929,17787,CYC: 5929
F9F7  18        CLC                             A:80 X:55 Y:A7 P:27 SP:F9 PPU:5931,17793,CYC: 5931
F9F8  A9 55     LDA #$55                        A:80 X:55 Y:A7 P:26 SP:F9 PPU:5933,17799,CYC: 5933
F9FA  60        RTS                             A:55 X:55 Y:A7 P:24 SP:F9 PPU:5935,17805,CYC: 5935
D461  C8        INY                             A:55 X:55 Y:A7 P:24 SP:FB PPU:5941,17823,CYC: 5941
D462  85 78     STA $78 = 80                    A:55 X:55 Y:A8 P:A4 SP:FB PPU:5943,17829,CYC: 5943
D464  66 78     ROR $78 = 55                    A:55 X:55 Y:A8 P:A4 SP:FB PPU:5946,17838,CYC: 5946
D466  A5 78     LDA $78 = 2A                    A:55 X:55 Y:A8 P:25 SP:FB PPU:5951,17853,CYC: 5951
D468  20 FB F9  JSR $F9FB                       A:2A X:55 Y:A8 P:25 SP:FB PPU:5954,17862,CYC: 5954
F9FB  90 0B     BCC $FA08                       A:2A X:55 Y:A8 P:25 SP:F9 PPU:5960,17880,CYC: 5960
F9FD  F0 09     BEQ $FA08                       A:2A X:55 Y:A8 P:25 SP:F9 PPU:5962,17886,CYC: 5962
F9FF  30 07     BMI $FA08                       A:2A X:55 Y:A8 P:25 SP:F9 PPU:5964,17892,CYC: 5964
FA01  70 05     BVS $FA08                       A:2A X:55 Y:A8 P:25 SP:F9 PPU:5966,17898,CYC: 5966
FA03  C9 2A     CMP #$2A                        A:2A X:55 Y:A8 P:25 SP:F9 PPU:5968,17904,CYC: 5968
FA05  D0 01     BNE $FA08                       A:2A X:55 Y:A8 P:27 SP:F9 PPU:5970,17910,CYC: 5970
FA07  60        RTS                             A:2A X:55 Y:A8 P:27 SP:F9 PPU:5972,17916,CYC: 5972
D46B  C8        INY                             A:2A X:55 Y:A8 P:27 SP:FB PPU:5978,17934,CYC: 5978
D46C  20 0A FA  JSR $FA0A                       A:2A X:55 Y:A9 P:A5 SP:FB PPU:5980,17940,CYC: 5980
FA0A  24 01     BIT $01 = FF                    A:2A X:55 Y:A9 P:A5 SP:F9 PPU:5986,17958,CYC: 5986
FA0C  38        SEC                             A:2A X:55 Y:A9 P:E5 SP:F9 PPU:5989,17967,CYC: 5989
FA0D  A9 80     LDA #$80                        A:2A X:55 Y:A9 P:E5 SP:F9 PPU:5991,17973,CYC: 5991
FA0F  60        RTS                             A:80 X:55 Y:A9 P:E5 SP:F9 PPU:5993,17979,CYC: 5993
D46F  85 78     STA $78 = 2A                    A:80 X:55 Y:A9 P:E5 SP:FB PPU:5999,17997,CYC: 5999
D471  26 78     ROL $78 = 80                    A:80 X:55 Y:A9 P:E5 SP:FB PPU:6002,18006,CYC: 6002
D473  A5 78     LDA $78 = 01                    A:80 X:55 Y:A9 P:65 SP:FB PPU:6007,18021,CYC: 6007
D475  20 10 FA  JSR $FA10                       A:01 X:55 Y:A9 P:65 SP:FB PPU:6010,18030,CYC: 6010
FA10  90 1C     BCC $FA2E                       A:01 X:55 Y:A9 P:65 SP:F9 PPU:6016,18048,CYC: 6016
FA12  F0 1A     BEQ $FA2E                       A:01 X:55 Y:A9 P:65 SP:F9 PPU:6018,18054,CYC: 6018
FA14  30 18     BMI $FA2E                       A:01 X:55 Y:A9 P:65 SP:F9 PPU:6020,18060,CYC: 6020
FA16  50 16     BVC $FA2E                       A:01 X:55 Y:A9 P:65 SP:F9 PPU:6022,18066,CYC: 6022
FA18  C9 01     CMP #$01                        A:01 X:55 Y:A9 P:65 SP:F9 PPU:6024,18072,CYC: 6024
FA1A  D0 12     BNE $FA2E                       A:01 X:55 Y:A9 P:67 SP:F9 PPU:6026,18078,CYC: 6026
FA1C  B8        CLV                             A:01 X:55 Y:A9 P:67 SP:F9 PPU:6028,18084,CYC: 6028
FA1D  18        CLC                             A:01 X:55 Y:A9 P:27 SP:F9 PPU:6030,18090,CYC: 6030
FA1E  A9 55     LDA #$55                        A:01 X:55 Y:A9 P:26 SP:F9 PPU:6032,18096,CYC: 6032
FA20  60        RTS                             A:55 X:55 Y:A9 P:24 SP:F9 PPU:6034,18102,CYC: 6034
D478  C8        INY                             A:55 X:55 Y:A9 P:24 SP:FB PPU:6040,18120,CYC: 6040
D479  85 78     STA $78 = 01                    A:55 X:55 Y:AA P:A4 SP:FB PPU:6042,18126,CYC: 6042
D47B  26 78     ROL $78 = 55                    A:55 X:55 Y:AA P:A4 SP:FB PPU:6045,18135,CYC: 6045
D47D  A5 78     LDA $78 = AA                    A:55 X:55 Y:AA P:A4 SP:FB PPU:6050,18150,CYC: 6050
D47F  20 21 FA  JSR $FA21                       A:AA X:55 Y:AA P:A4 SP:FB PPU:6053,18159,CYC: 6053
FA21  B0 0B     BCS $FA2E                       A:AA X:55 Y:AA P:A4 SP:F9 PPU:6059,18177,CYC: 6059
FA23  F0 09     BEQ $FA2E                       A:AA X:55 Y:AA P:A4 SP:F9 PPU:6061,18183,CYC: 6061
FA25  10 07     BPL $FA2E                       A:AA X:55 Y:AA P:A4 SP:F9 PPU:6063,18189,CYC: 6063
FA27  70 05     BVS $FA2E                       A:AA X:55 Y:AA P:A4 SP:F9 PPU:6065,18195,CYC: 6065
FA29  C9 AA     CMP #$AA                        A:AA X:55 Y:AA P:A4 SP:F9 PPU:6067,18201,CYC: 6067
FA2B  D0 01     BNE $FA2E                       A:AA X:55 Y:AA P:27 SP:F9 PPU:6069,18207,CYC: 6069
FA2D  60        RTS                             A:AA X:55 Y:AA P:27 SP:F9 PPU:6071,18213,CYC: 6071
D482  A9 FF     LDA #$FF                        A:AA X:55 Y:AA P:27 SP:FB PPU:6077,18231,CYC: 6077
D484  85 78     STA $78 = AA                    A:FF X:55 Y:AA P:A5 SP:FB PPU:6079,18237,CYC: 6079
D486  85 01     STA $01 = FF                    A:FF X:55 Y:AA P:A5 SP:FB PPU:6082,18246,CYC: 6082
D488  24 01     BIT $01 = FF                    A:FF X:55 Y:AA P:A5 SP:FB PPU:6085,18255,CYC: 6085
D48A  38        SEC                             A:FF X:55 Y:AA P:E5 SP:FB PPU:6088,18264,CYC: 6088
D48B  E6 78     INC $78 = FF                    A:FF X:55 Y:AA P:E5 SP:FB PPU:6090,18270,CYC: 6090
D48D  D0 0C     BNE $D49B                       A:FF X:55 Y:AA P:67 SP:FB PPU:6095,18285,CYC: 6095
D48F  30 0A     BMI $D49B                       A:FF X:55 Y:AA P:67 SP:FB PPU:6097,18291,CYC: 6097
D491  50 08     BVC $D49B                       A:FF X:55 Y:AA P:67 SP:FB PPU:6099,18297,CYC: 6099
D493  90 06     BCC $D49B                       A:FF X:55 Y:AA P:67 SP:FB PPU:6101,18303,CYC: 6101
D495  A5 78     LDA $78 = 00                    A:FF X:55 Y:AA P:67 SP:FB PPU:6103,18309,CYC: 6103
D497  C9 00     CMP #$00                        A:00 X:55 Y:AA P:67 SP:FB PPU:6106,18318,CYC: 6106
D499  F0 04     BEQ $D49F                       A:00 X:55 Y:AA P:67 SP:FB PPU:6108,18324,CYC: 6108
D49F  A9 7F     LDA #$7F                        A:00 X:55 Y:AA P:67 SP:FB PPU:6111,18333,CYC: 6111
D4A1  85 78     STA $78 = 00                    A:7F X:55 Y:AA P:65 SP:FB PPU:6113,18339,CYC: 6113
D4A3  B8        CLV                             A:7F X:55 Y:AA P:65 SP:FB PPU:6116,18348,CYC: 6116
D4A4  18        CLC                             A:7F X:55 Y:AA P:25 SP:FB PPU:6118,18354,CYC: 6118
D4A5  E6 78     INC $78 = 7F                    A:7F X:55 Y:AA P:24 SP:FB PPU:6120,18360,CYC: 6120
D4A7  F0 0C     BEQ $D4B5                       A:7F X:55 Y:AA P:A4 SP:FB PPU:6125,18375,CYC: 6125
D4A9  10 0A     BPL $D4B5                       A:7F X:55 Y:AA P:A4 SP:FB PPU:6127,18381,CYC: 6127
D4AB  70 08     BVS $D4B5                       A:7F X:55 Y:AA P:A4 SP:FB PPU:6129,18387,CYC: 6129
D4AD  B0 06     BCS $D4B5                       A:7F X:55 Y:AA P:A4 SP:FB PPU:6131,18393,CYC: 6131
D4AF  A5 78     LDA $78 = 80                    A:7F X:55 Y:AA P:A4 SP:FB PPU:6133,18399,CYC: 6133
D4B1  C9 80     CMP #$80                        A:80 X:55 Y:AA P:A4 SP:FB PPU:6136,18408,CYC: 6136
D4B3  F0 04     BEQ $D4B9                       A:80 X:55 Y:AA P:27 SP:FB PPU:6138,18414,CYC: 6138
D4B9  A9 00     LDA #$00                        A:80 X:55 Y:AA P:27 SP:FB PPU:6141,18423,CYC: 6141
D4BB  85 78     STA $78 = 80                    A:00 X:55 Y:AA P:27 SP:FB PPU:6143,18429,CYC: 6143
D4BD  24 01     BIT $01 = FF                    A:00 X:55 Y:AA P:27 SP:FB PPU:6146,18438,CYC: 6146
D4BF  38        SEC                             A:00 X:55 Y:AA P:E7 SP:FB PPU:6149,18447,CYC: 6149
D4C0  C6 78     DEC $78 = 00                    A:00 X:55 Y:AA P:E7 SP:FB PPU:6151,18453,CYC: 6151
D4C2  F0 0C     BEQ $D4D0                       A:00 X:55 Y:AA P:E5 SP:FB PPU:6156,18468,CYC: 6156
D4C4  10 0A     BPL $D4D0                       A:00 X:55 Y:AA P:E5 SP:FB PPU:6158,18474,CYC: 6158
D4C6  50 08     BVC $D4D0                       A:00 X:55 Y:AA P:E5 SP:FB PPU:6160,18480,CYC: 6160
D4C8  90 06     BCC $D4D0                       A:00 X:55 Y:AA P:E5 SP:FB PPU:6162,18486,CYC: 6162
D4CA  A5 78     LDA $78 = FF                    A:00 X:55 Y:AA P:E5 SP:FB PPU:6164,18492,CYC: 6164
D4CC  C9 FF     CMP #$FF                        A:FF X:55 Y:AA P:E5 SP:FB PPU:6167,18501,CYC: 6167
D4CE  F0 04     BEQ $D4D4                       A:FF X:55 Y:AA P:67 SP:FB PPU:6169,18507,CYC: 6169
D4D4  A9 80     LDA #$80                        A:FF X:55 Y:AA P:67 SP:FB PPU:6172,18516,CYC: 6172
D4D6  85 78     STA $78 = FF                    A:80 X:55 Y:AA P:E5 SP:FB PPU:6174,18522,CYC: 6174
D4D8  B8        CLV                             A:80 X:55 Y:AA P:E5 SP:FB PPU:6177,18531,CYC: 6177
D4D9  18        CLC                             A:80 X:55 Y:AA P:A5 SP:FB PPU:6179,18537,CYC: 6179
D4DA  C6 78     DEC $78 = 80                    A:80 X:55 Y:AA P:A4 SP:FB PPU:6181,18543,CYC: 6181
D4DC  F0 0C     BEQ $D4EA                       A:80 X:55 Y:AA P:24 SP:FB PPU:6186,18558,CYC: 6186
D4DE  30 0A     BMI $D4EA                       A:80 X:55 Y:AA P:24 SP:FB PPU:6188,18564,CYC: 6188
D4E0  70 08     BVS $D4EA                       A:80 X:55 Y:AA P:24 SP:FB PPU:6190,18570,CYC: 6190
D4E2  B0 06     BCS $D4EA                       A:80 X:55 Y:AA P:24 SP:FB PPU:6192,18576,CYC: 6192
D4E4  A5 78     LDA $78 = 7F                    A:80 X:55 Y:AA P:24 SP:FB PPU:6194,18582,CYC: 6194
D4E6  C9 7F     CMP #$7F                        A:7F X:55 Y:AA P:24 SP:FB PPU:6197,18591,CYC: 6197
D4E8  F0 04     BEQ $D4EE                       A:7F X:55 Y:AA P:27 SP:FB PPU:6199,18597,CYC: 6199
D4EE  A9 01     LDA #$01                        A:7F X:55 Y:AA P:27 SP:FB PPU:6202,18606,CYC: 6202
D4F0  85 78     STA $78 = 7F                    A:01 X:55 Y:AA P:25 SP:FB PPU:6204,18612,CYC: 6204
D4F2  C6 78     DEC $78 = 01                    A:01 X:55 Y:AA P:25 SP:FB PPU:6207,18621,CYC: 6207
D4F4  F0 04     BEQ $D4FA                       A:01 X:55 Y:AA P:27 SP:FB PPU:6212,18636,CYC: 6212
D4FA  60        RTS                             A:01 X:55 Y:AA P:27 SP:FB PPU:6215,18645,CYC: 6215
C615  20 FB D4  JSR $D4FB                       A:01 X:55 Y:AA P:27 SP:FD PPU:6221,18663,CYC: 6221
D4FB  A9 55     LDA #$55                        A:01 X:55 Y:AA P:27 SP:FB PPU:6227,18681,CYC: 6227
D4FD  8D 78 06  STA $0678 = 00                  A:55 X:55 Y:AA P:25 SP:FB PPU:6229,18687,CYC: 6229
D500  A9 FF     LDA #$FF                        A:55 X:55 Y:AA P:25 SP:FB PPU:6233,18699,CYC: 6233
D502  85 01     STA $01 = FF                    A:FF X:55 Y:AA P:A5 SP:FB PPU:6235,18705,CYC: 6235
D504  24 01     BIT $01 = FF                    A:FF X:55 Y:AA P:A5 SP:FB PPU:6238,18714,CYC: 6238
D506  A0 11     LDY #$11                        A:FF X:55 Y:AA P:E5 SP:FB PPU:6241,18723,CYC: 6241
D508  A2 23     LDX #$23                        A:FF X:55 Y:11 P:65 SP:FB PPU:6243,18729,CYC: 6243
D50A  A9 00     LDA #$00                        A:FF X:23 Y:11 P:65 SP:FB PPU:6245,18735,CYC: 6245
D50C  AD 78 06  LDA $0678 = 55                  A:00 X:23 Y:11 P:67 SP:FB PPU:6247,18741,CYC: 6247
D50F  F0 10     BEQ $D521                       A:55 X:23 Y:11 P:65 SP:FB PPU:6251,18753,CYC: 6251
D511  30 0E     BMI $D521                       A:55 X:23 Y:11 P:65 SP:FB PPU:6253,18759,CYC: 6253
D513  C9 55     CMP #$55                        A:55 X:23 Y:11 P:65 SP:FB PPU:6255,18765,CYC: 6255
D515  D0 0A     BNE $D521                       A:55 X:23 Y:11 P:67 SP:FB PPU:6257,18771,CYC: 6257
D517  C0 11     CPY #$11                        A:55 X:23 Y:11 P:67 SP:FB PPU:6259,18777,CYC: 6259
D519  D0 06     BNE $D521                       A:55 X:23 Y:11 P:67 SP:FB PPU:6261,18783,CYC: 6261
D51B  E0 23     CPX #$23                        A:55 X:23 Y:11 P:67 SP:FB PPU:6263,18789,CYC: 6263
D51D  50 02     BVC $D521                       A:55 X:23 Y:11 P:67 SP:FB PPU:6265,18795,CYC: 6265
D51F  F0 04     BEQ $D525                       A:55 X:23 Y:11 P:67 SP:FB PPU:6267,18801,CYC: 6267
D525  A9 46     LDA #$46                        A:55 X:23 Y:11 P:67 SP:FB PPU:6270,18810,CYC: 6270
D527  24 01     BIT $01 = FF                    A:46 X:23 Y:11 P:65 SP:FB PPU:6272,18816,CYC: 6272
D529  8D 78 06  STA $0678 = 55                  A:46 X:23 Y:11 P:E5 SP:FB PPU:6275,18825,CYC: 6275
D52C  F0 0B     BEQ $D539                       A:46 X:23 Y:11 P:E5 SP:FB PPU:6279,18837,CYC: 6279
D52E  10 09     BPL $D539                       A:46 X:23 Y:11 P:E5 SP:FB PPU:6281,18843,CYC: 6281
D530  50 07     BVC $D539                       A:46 X:23 Y:11 P:E5 SP:FB PPU:6283,18849,CYC: 6283
D532  AD 78 06  LDA $0678 = 46                  A:46 X:23 Y:11 P:E5 SP:FB PPU:6285,18855,CYC: 6285
D535  C9 46     CMP #$46                        A:46 X:23 Y:11 P:65 SP:FB PPU:6289,18867,CYC: 6289
D537  F0 04     BEQ $D53D                       A:46 X:23 Y:11 P:67 SP:FB PPU:6291,18873,CYC: 6291
D53D  A9 55     LDA #$55                        A:46 X:23 Y:11 P:67 SP:FB PPU:6294,18882,CYC: 6294
D53F  8D 78 06  STA $0678 = 46                  A:55 X:23 Y:11 P:65 SP:FB PPU:6296,18888,CYC: 6296
D542  24 01     BIT $01 = FF                    A:55 X:23 Y:11 P:65 SP:FB PPU:6300,18900,CYC: 6300
D544  A9 11     LDA #$11                        A:55 X:23 Y:11 P:E5 SP:FB PPU:6303,18909,CYC: 6303
D546  A2 23     LDX #$23                        A:11 X:23 Y:11 P:65 SP:FB PPU:6305,18915,CYC: 6305
D548  A0 00     LDY #$00                        A:11 X:23 Y:11 P:65 SP:FB PPU:6307,18921,CYC: 6307
D54A  AC 78 06  LDY $0678 = 55                  A:11 X:23 Y:00 P:67 SP:FB PPU:6309,18927,CYC: 6309
D54D  F0 10     BEQ $D55F                       A:11 X:23 Y:55 P:65 SP:FB PPU:6313,18939,CYC: 6313
D54F  30 0E     BMI $D55F                       A:11 X:23 Y:55 P:65 SP:FB PPU:6315,18945,CYC: 6315
D551  C0 55     CPY #$55                        A:11 X:23 Y:55 P:65 SP:FB PPU:6317,18951,CYC: 6317
D553  D0 0A     BNE $D55F                       A:11 X:23 Y:55 P:67 SP:FB PPU:6319,18957,CYC: 6319
D555  C9 11     CMP #$11                        A:11 X:23 Y:55 P:67 SP:FB PPU:6321,18963,CYC: 6321
D557  D0 06     BNE $D55F                       A:11 X:23 Y:55 P:67 SP:FB PPU:6323,18969,CYC: 6323
D559  E0 23     CPX #$23                        A:11 X:23 Y:55 P:67 SP:FB PPU:6325,18975,CYC: 6325
D55B  50 02     BVC $D55F                       A:11 X:23 Y:55 P:67 SP:FB PPU:6327,18981,CYC: 6327
D55D  F0 04     BEQ $D563                       A:11 X:23 Y:55 P:67 SP:FB PPU:6329,18987,CYC: 6329
D563  A0 46     LDY #$46                        A:11 X:23 Y:55 P:67 SP:FB PPU:6332,18996,CYC: 6332
D565  24 01     BIT $01 = FF                    A:11 X:23 Y:46 P:65 SP:FB PPU:6334,19002,CYC: 6334
D567  8C 78 06  STY $0678 = 55                  A:11 X:23 Y:46 P:E5 SP:FB PPU:6337,19011,CYC: 6337
D56A  F0 0B     BEQ $D577                       A:11 X:23 Y:46 P:E5 SP:FB PPU:6341,19023,CYC: 6341
D56C  10 09     BPL $D577                       A:11 X:23 Y:46 P:E5 SP:FB PPU:6343,19029,CYC: 6343
D56E  50 07     BVC $D577                       A:11 X:23 Y:46 P:E5 SP:FB PPU:6345,19035,CYC: 6345
D570  AC 78 06  LDY $0678 = 46                  A:11 X:23 Y:46 P:E5 SP:FB PPU:6347,19041,CYC: 6347
D573  C0 46     CPY #$46                        A:11 X:23 Y:46 P:65 SP:FB PPU:6351,19053,CYC: 6351
D575  F0 04     BEQ $D57B                       A:11 X:23 Y:46 P:67 SP:FB PPU:6353,19059,CYC: 6353
D57B  24 01     BIT $01 = FF                    A:11 X:23 Y:46 P:67 SP:FB PPU:6356,19068,CYC: 6356
D57D  A9 55     LDA #$55                        A:11 X:23 Y:46 P:E5 SP:FB PPU:6359,19077,CYC: 6359
D57F  8D 78 06  STA $0678 = 46                  A:55 X:23 Y:46 P:65 SP:FB PPU:6361,19083,CYC: 6361
D582  A0 11     LDY #$11                        A:55 X:23 Y:46 P:65 SP:FB PPU:6365,19095,CYC: 6365
D584  A9 23     LDA #$23                        A:55 X:23 Y:11 P:65 SP:FB PPU:6367,19101,CYC: 6367
D586  A2 00     LDX #$00                        A:23 X:23 Y:11 P:65 SP:FB PPU:6369,19107,CYC: 6369
D588  AE 78 06  LDX $0678 = 55                  A:23 X:00 Y:11 P:67 SP:FB PPU:6371,19113,CYC: 6371
D58B  F0 10     BEQ $D59D                       A:23 X:55 Y:11 P:65 SP:FB PPU:6375,19125,CYC: 6375
D58D  30 0E     BMI $D59D                       A:23 X:55 Y:11 P:65 SP:FB PPU:6377,19131,CYC: 6377
D58F  E0 55     CPX #$55                        A:23 X:55 Y:11 P:65 SP:FB PPU:6379,19137,CYC: 6379
D591  D0 0A     BNE $D59D                       A:23 X:55 Y:11 P:67 SP:FB PPU:6381,19143,CYC: 6381
D593  C0 11     CPY #$11                        A:23 X:55 Y:11 P:67 SP:FB PPU:6383,19149,CYC: 6383
D595  D0 06     BNE $D59D                       A:23 X:55 Y:11 P:67 SP:FB PPU:6385,19155,CYC: 6385
D597  C9 23     CMP #$23                        A:23 X:55 Y:11 P:67 SP:FB PPU:6387,19161,CYC: 6387
D599  50 02     BVC $D59D                       A:23 X:55 Y:11 P:67 SP:FB PPU:6389,19167,CYC: 6389
D59B  F0 04     BEQ $D5A1                       A:23 X:55 Y:11 P:67 SP:FB PPU:6391,19173,CYC: 6391
D5A1  A2 46     LDX #$46                        A:23 X:55 Y:11 P:67 SP:FB PPU:6394,19182,CYC: 6394
D5A3  24 01     BIT $01 = FF                    A:23 X:46 Y:11 P:65 SP:FB PPU:6396,19188,CYC: 6396
D5A5  8E 78 06  STX $0678 = 55                  A:23 X:46 Y:11 P:E5 SP:FB PPU:6399,19197,CYC: 6399
D5A8  F0 0B     BEQ $D5B5                       A:23 X:46 Y:11 P:E5 SP:FB PPU:6403,19209,CYC: 6403
D5AA  10 09     BPL $D5B5                       A:23 X:46 Y:11 P:E5 SP:FB PPU:6405,19215,CYC: 6405
D5AC  50 07     BVC $D5B5                       A:23 X:46 Y:11 P:E5 SP:FB PPU:6407,19221,CYC: 6407
D5AE  AE 78 06  LDX $0678 = 46                  A:23 X:46 Y:11 P:E5 SP:FB PPU:6409,19227,CYC: 6409
D5B1  E0 46     CPX #$46                        A:23 X:46 Y:11 P:65 SP:FB PPU:6413,19239,CYC: 6413
D5B3  F0 04     BEQ $D5B9                       A:23 X:46 Y:11 P:67 SP:FB PPU:6415,19245,CYC: 6415
D5B9  A9 C0     LDA #$C0                        A:23 X:46 Y:11 P:67 SP:FB PPU:6418,19254,CYC: 6418
D5BB  8D 78 06  STA $0678 = 46                  A:C0 X:46 Y:11 P:E5 SP:FB PPU:6420,19260,CYC: 6420
D5BE  A2 33     LDX #$33                        A:C0 X:46 Y:11 P:E5 SP:FB PPU:6424,19272,CYC: 6424
D5C0  A0 88     LDY #$88                        A:C0 X:33 Y:11 P:65 SP:FB PPU:6426,19278,CYC: 6426
D5C2  A9 05     LDA #$05                        A:C0 X:33 Y:88 P:E5 SP:FB PPU:6428,19284,CYC: 6428
D5C4  2C 78 06  BIT $0678 = C0                  A:05 X:33 Y:88 P:65 SP:FB PPU:6430,19290,CYC: 6430
D5C7  10 10     BPL $D5D9                       A:05 X:33 Y:88 P:E7 SP:FB PPU:6434,19302,CYC: 6434
D5C9  50 0E     BVC $D5D9                       A:05 X:33 Y:88 P:E7 SP:FB PPU:6436,19308,CYC: 6436
D5CB  D0 0C     BNE $D5D9                       A:05 X:33 Y:88 P:E7 SP:FB PPU:6438,19314,CYC: 6438
D5CD  C9 05     CMP #$05                        A:05 X:33 Y:88 P:E7 SP:FB PPU:6440,19320,CYC: 6440
D5CF  D0 08     BNE $D5D9                       A:05 X:33 Y:88 P:67 SP:FB PPU:6442,19326,CYC: 6442
D5D1  E0 33     CPX #$33                        A:05 X:33 Y:88 P:67 SP:FB PPU:6444,19332,CYC: 6444
D5D3  D0 04     BNE $D5D9                       A:05 X:33 Y:88 P:67 SP:FB PPU:6446,19338,CYC: 6446
D5D5  C0 88     CPY #$88                        A:05 X:33 Y:88 P:67 SP:FB PPU:6448,19344,CYC: 6448
D5D7  F0 04     BEQ $D5DD                       A:05 X:33 Y:88 P:67 SP:FB PPU:6450,19350,CYC: 6450
D5DD  A9 03     LDA #$03                        A:05 X:33 Y:88 P:67 SP:FB PPU:6453,19359,CYC: 6453
D5DF  8D 78 06  STA $0678 = C0                  A:03 X:33 Y:88 P:65 SP:FB PPU:6455,19365,CYC: 6455
D5E2  A9 01     LDA #$01                        A:03 X:33 Y:88 P:65 SP:FB PPU:6459,19377,CYC: 6459
D5E4  2C 78 06  BIT $0678 = 03                  A:01 X:33 Y:88 P:65 SP:FB PPU:6461,19383,CYC: 6461
D5E7  30 08     BMI $D5F1                       A:01 X:33 Y:88 P:25 SP:FB PPU:6465,19395,CYC: 6465
D5E9  70 06     BVS $D5F1                       A:01 X:33 Y:88 P:25 SP:FB PPU:6467,19401,CYC: 6467
D5EB  F0 04     BEQ $D5F1                       A:01 X:33 Y:88 P:25 SP:FB PPU:6469,19407,CYC: 6469
D5ED  C9 01     CMP #$01                        A:01 X:33 Y:88 P:25 SP:FB PPU:6471,19413,CYC: 6471
D5EF  F0 04     BEQ $D5F5                       A:01 X:33 Y:88 P:27 SP:FB PPU:6473,19419,CYC: 6473
D5F5  A0 B8     LDY #$B8                        A:01 X:33 Y:88 P:27 SP:FB PPU:6476,19428,CYC: 6476
D5F7  A9 AA     LDA #$AA                        A:01 X:33 Y:B8 P:A5 SP:FB PPU:6478,19434,CYC: 6478
D5F9  8D 78 06  STA $0678 = 03                  A:AA X:33 Y:B8 P:A5 SP:FB PPU:6480,19440,CYC: 6480
D5FC  20 B6 F7  JSR $F7B6                       A:AA X:33 Y:B8 P:A5 SP:FB PPU:6484,19452,CYC: 6484
F7B6  18        CLC                             A:AA X:33 Y:B8 P:A5 SP:F9 PPU:6490,19470,CYC: 6490
F7B7  A9 FF     LDA #$FF                        A:AA X:33 Y:B8 P:A4 SP:F9 PPU:6492,19476,CYC: 6492
F7B9  85 01     STA $01 = FF                    A:FF X:33 Y:B8 P:A4 SP:F9 PPU:6494,19482,CYC: 6494
F7BB  24 01     BIT $01 = FF                    A:FF X:33 Y:B8 P:A4 SP:F9 PPU:6497,19491,CYC: 6497
F7BD  A9 55     LDA #$55                        A:FF X:33 Y:B8 P:E4 SP:F9 PPU:6500,19500,CYC: 6500
F7BF  60        RTS                             A:55 X:33 Y:B8 P:64 SP:F9 PPU:6502,19506,CYC: 6502
D5FF  0D 78 06  ORA $0678 = AA                  A:55 X:33 Y:B8 P:64 SP:FB PPU:6508,19524,CYC: 6508
D602  20 C0 F7  JSR $F7C0                       A:FF X:33 Y:B8 P:E4 SP:FB PPU:6512,19536,CYC: 6512
F7C0  B0 09     BCS $F7CB                       A:FF X:33 Y:B8 P:E4 SP:F9 PPU:6518,19554,CYC: 6518
F7C2  10 07     BPL $F7CB                       A:FF X:33 Y:B8 P:E4 SP:F9 PPU:6520,19560,CYC: 6520
F7C4  C9 FF     CMP #$FF                        A:FF X:33 Y:B8 P:E4 SP:F9 PPU:6522,19566,CYC: 6522
F7C6  D0 03     BNE $F7CB                       A:FF X:33 Y:B8 P:67 SP:F9 PPU:6524,19572,CYC: 6524
F7C8  50 01     BVC $F7CB                       A:FF X:33 Y:B8 P:67 SP:F9 PPU:6526,19578,CYC: 6526
F7CA  60        RTS                             A:FF X:33 Y:B8 P:67 SP:F9 PPU:6528,19584,CYC: 6528
D605  C8        INY                             A:FF X:33 Y:B8 P:67 SP:FB PPU:6534,19602,CYC: 6534
D606  A9 00     LDA #$00                        A:FF X:33 Y:B9 P:E5 SP:FB PPU:6536,19608,CYC: 6536
D608  8D 78 06  STA $0678 = AA                  A:00 X:33 Y:B9 P:67 SP:FB PPU:6538,19614,CYC: 6538
D60B  20 CE F7  JSR $F7CE                       A:00 X:33 Y:B9 P:67 SP:FB PPU:6542,19626,CYC: 6542
F7CE  38        SEC                             A:00 X:33 Y:B9 P:67 SP:F9 PPU:6548,19644,CYC: 6548
F7CF  B8        CLV                             A:00 X:33 Y:B9 P:67 SP:F9 PPU:6550,19650,CYC: 6550
F7D0  A9 00     LDA #$00                        A:00 X:33 Y:B9 P:27 SP:F9 PPU:6552,19656,CYC: 6552
F7D2  60        RTS                             A:00 X:33 Y:B9 P:27 SP:F9 PPU:6554,19662,CYC: 6554
D60E  0D 78 06  ORA $0678 = 00                  A:00 X:33 Y:B9 P:27 SP:FB PPU:6560,19680,CYC: 6560
D611  20 D3 F7  JSR $F7D3                       A:00 X:33 Y:B9 P:27 SP:FB PPU:6564,19692,CYC: 6564
F7D3  D0 07     BNE $F7DC                       A:00 X:33 Y:B9 P:27 SP:F9 PPU:6570,19710,CYC: 6570
F7D5  70 05     BVS $F7DC                       A:00 X:33 Y:B9 P:27 SP:F9 PPU:6572,19716,CYC: 6572
F7D7  90 03     BCC $F7DC                       A:00 X:33 Y:B9 P:27 SP:F9 PPU:6574,19722,CYC: 6574
F7D9  30 01     BMI $F7DC                       A:00 X:33 Y:B9 P:27 SP:F9 PPU:6576,19728,CYC: 6576
F7DB  60        RTS                             A:00 X:33 Y:B9 P:27 SP:F9 PPU:6578,19734,CYC: 6578
D614  C8        INY                             A:00 X:33 Y:B9 P:27 SP:FB PPU:6584,19752,CYC: 6584
D615  A9 AA     LDA #$AA                        A:00 X:33 Y:BA P:A5 SP:FB PPU:6586,19758,CYC: 6586
D617  8D 78 06  STA $0678 = 00                  A:AA X:33 Y:BA P:A5 SP:FB PPU:6588,19764,CYC: 6588
D61A  20 DF F7  JSR $F7DF                       A:AA X:33 Y:BA P:A5 SP:FB PPU:6592,19776,CYC: 6592
F7DF  18        CLC                             A:AA X:33 Y:BA P:A5 SP:F9 PPU:6598,19794,CYC: 6598
F7E0  24 01     BIT $01 = FF                    A:AA X:33 Y:BA P:A4 SP:F9 PPU:6600,19800,CYC: 6600
F7E2  A9 55     LDA #$55                        A:AA X:33 Y:BA P:E4 SP:F9 PPU:6603,19809,CYC: 6603
F7E4  60        RTS                             A:55 X:33 Y:BA P:64 SP:F9 PPU:6605,19815,CYC: 6605
D61D  2D 78 06  AND $0678 = AA                  A:55 X:33 Y:BA P:64 SP:FB PPU:6611,19833,CYC: 6611
D620  20 E5 F7  JSR $F7E5                       A:00 X:33 Y:BA P:66 SP:FB PPU:6615,19845,CYC: 6615
F7E5  D0 07     BNE $F7EE                       A:00 X:33 Y:BA P:66 SP:F9 PPU:6621,19863,CYC: 6621
F7E7  50 05     BVC $F7EE                       A:00 X:33 Y:BA P:66 SP:F9 PPU:6623,19869,CYC: 6623
F7E9  B0 03     BCS $F7EE                       A:00 X:33 Y:BA P:66 SP:F9 PPU:6625,19875,CYC: 6625
F7EB  30 01     BMI $F7EE                       A:00 X:33 Y:BA P:66 SP:F9 PPU:6627,19881,CYC: 6627
F7ED  60        RTS                             A:00 X:33 Y:BA P:66 SP:F9 PPU:6629,19887,CYC: 6629
D623  C8        INY                             A:00 X:33 Y:BA P:66 SP:FB PPU:6635,19905,CYC: 6635
D624  A9 EF     LDA #$EF                        A:00 X:33 Y:BB P:E4 SP:FB PPU:6637,19911,CYC: 6637
D626  8D 78 06  STA $0678 = AA                  A:EF X:33 Y:BB P:E4 SP:FB PPU:6639,19917,CYC: 6639
D629  20 F1 F7  JSR $F7F1                       A:EF X:33 Y:BB P:E4 SP:FB PPU:6643,19929,CYC: 6643
F7F1  38        SEC                             A:EF X:33 Y:BB P:E4 SP:F9 PPU:6649,19947,CYC: 6649
F7F2  B8        CLV                             A:EF X:33 Y:BB P:E5 SP:F9 PPU:6651,19953,CYC: 6651
F7F3  A9 F8     LDA #$F8                        A:EF X:33 Y:BB P:A5 SP:F9 PPU:6653,19959,CYC: 6653
F7F5  60        RTS                             A:F8 X:33 Y:BB P:A5 SP:F9 PPU:6655,19965,CYC: 6655
D62C  2D 78 06  AND $0678 = EF                  A:F8 X:33 Y:BB P:A5 SP:FB PPU:6661,19983,CYC: 6661
D62F  20 F6 F7  JSR $F7F6                       A:E8 X:33 Y:BB P:A5 SP:FB PPU:6665,19995,CYC: 6665
F7F6  90 09     BCC $F801                       A:E8 X:33 Y:BB P:A5 SP:F9 PPU:6671,20013,CYC: 6671
F7F8  10 07     BPL $F801                       A:E8 X:33 Y:BB P:A5 SP:F9 PPU:6673,20019,CYC: 6673
F7FA  C9 E8     CMP #$E8                        A:E8 X:33 Y:BB P:A5 SP:F9 PPU:6675,20025,CYC: 6675
F7FC  D0 03     BNE $F801                       A:E8 X:33 Y:BB P:27 SP:F9 PPU:6677,20031,CYC: 6677
F7FE  70 01     BVS $F801                       A:E8 X:33 Y:BB P:27 SP:F9 PPU:6679,20037,CYC: 6679
F800  60        RTS                             A:E8 X:33 Y:BB P:27 SP:F9 PPU:6681,20043,CYC: 6681
D632  C8        INY                             A:E8 X:33 Y:BB P:27 SP:FB PPU:6687,20061,CYC: 6687
D633  A9 AA     LDA #$AA                        A:E8 X:33 Y:BC P:A5 SP:FB PPU:6689,20067,CYC: 6689
D635  8D 78 06  STA $0678 = EF                  A:AA X:33 Y:BC P:A5 SP:FB PPU:6691,20073,CYC: 6691
D638  20 04 F8  JSR $F804                       A:AA X:33 Y:BC P:A5 SP:FB PPU:6695,20085,CYC: 6695
F804  18        CLC                             A:AA X:33 Y:BC P:A5 SP:F9 PPU:6701,20103,CYC: 6701
F805  24 01     BIT $01 = FF                    A:AA X:33 Y:BC P:A4 SP:F9 PPU:6703,20109,CYC: 6703
F807  A9 5F     LDA #$5F                        A:AA X:33 Y:BC P:E4 SP:F9 PPU:6706,20118,CYC: 6706
F809  60        RTS                             A:5F X:33 Y:BC P:64 SP:F9 PPU:6708,20124,CYC: 6708
D63B  4D 78 06  EOR $0678 = AA                  A:5F X:33 Y:BC P:64 SP:FB PPU:6714,20142,CYC: 6714
D63E  20 0A F8  JSR $F80A                       A:F5 X:33 Y:BC P:E4 SP:FB PPU:6718,20154,CYC: 6718
F80A  B0 09     BCS $F815                       A:F5 X:33 Y:BC P:E4 SP:F9 PPU:6724,20172,CYC: 6724
F80C  10 07     BPL $F815                       A:F5 X:33 Y:BC P:E4 SP:F9 PPU:6726,20178,CYC: 6726
F80E  C9 F5     CMP #$F5                        A:F5 X:33 Y:BC P:E4 SP:F9 PPU:6728,20184,CYC: 6728
F810  D0 03     BNE $F815                       A:F5 X:33 Y:BC P:67 SP:F9 PPU:6730,20190,CYC: 6730
F812  50 01     BVC $F815                       A:F5 X:33 Y:BC P:67 SP:F9 PPU:6732,20196,CYC: 6732
F814  60        RTS                             A:F5 X:33 Y:BC P:67 SP:F9 PPU:6734,20202,CYC: 6734
D641  C8        INY                             A:F5 X:33 Y:BC P:67 SP:FB PPU:6740,20220,CYC: 6740
D642  A9 70     LDA #$70                        A:F5 X:33 Y:BD P:E5 SP:FB PPU:6742,20226,CYC: 6742
D644  8D 78 06  STA $0678 = AA                  A:70 X:33 Y:BD P:65 SP:FB PPU:6744,20232,CYC: 6744
D647  20 18 F8  JSR $F818                       A:70 X:33 Y:BD P:65 SP:FB PPU:6748,20244,CYC: 6748
F818  38        SEC                             A:70 X:33 Y:BD P:65 SP:F9 PPU:6754,20262,CYC: 6754
F819  B8        CLV                             A:70 X:33 Y:BD P:65 SP:F9 PPU:6756,20268,CYC: 6756
F81A  A9 70     LDA #$70                        A:70 X:33 Y:BD P:25 SP:F9 PPU:6758,20274,CYC: 6758
F81C  60        RTS                             A:70 X:33 Y:BD P:25 SP:F9 PPU:6760,20280,CYC: 6760
D64A  4D 78 06  EOR $0678 = 70                  A:70 X:33 Y:BD P:25 SP:FB PPU:6766,20298,CYC: 6766
D64D  20 1D F8  JSR $F81D                       A:00 X:33 Y:BD P:27 SP:FB PPU:6770,20310,CYC: 6770
F81D  D0 07     BNE $F826                       A:00 X:33 Y:BD P:27 SP:F9 PPU:6776,20328,CYC: 6776
F81F  70 05     BVS $F826                       A:00 X:33 Y:BD P:27 SP:F9 PPU:6778,20334,CYC: 6778
F821  90 03     BCC $F826                       A:00 X:33 Y:BD P:27 SP:F9 PPU:6780,20340,CYC: 6780
F823  30 01     BMI $F826                       A:00 X:33 Y:BD P:27 SP:F9 PPU:6782,20346,CYC: 6782
F825  60        RTS                             A:00 X:33 Y:BD P:27 SP:F9 PPU:6784,20352,CYC: 6784
D650  C8        INY                             A:00 X:33 Y:BD P:27 SP:FB PPU:6790,20370,CYC: 6790
D651  A9 69     LDA #$69                        A:00 X:33 Y:BE P:A5 SP:FB PPU:6792,20376,CYC: 6792
D653  8D 78 06  STA $0678 = 70                  A:69 X:33 Y:BE P:25 SP:FB PPU:6794,20382,CYC: 6794
D656  20 29 F8  JSR $F829                       A:69 X:33 Y:BE P:25 SP:FB PPU:6798,20394,CYC: 6798
F829  18        CLC                             A:69 X:33 Y:BE P:25 SP:F9 PPU:6804,20412,CYC: 6804
F82A  24 01     BIT $01 = FF                    A:69 X:33 Y:BE P:24 SP:F9 PPU:6806,20418,CYC: 6806
F82C  A9 00     LDA #$00                        A:69 X:33 Y:BE P:E4 SP:F9 PPU:6809,20427,CYC: 6809
F82E  60        RTS                             A:00 X:33 Y:BE P:66 SP:F9 PPU:6811,20433,CYC: 6811
D659  6D 78 06  ADC $0678 = 69                  A:00 X:33 Y:BE P:66 SP:FB PPU:6817,20451,CYC: 6817
D65C  20 2F F8  JSR $F82F                       A:69 X:33 Y:BE P:24 SP:FB PPU:6821,20463,CYC: 6821
F82F  30 09     BMI $F83A                       A:69 X:33 Y:BE P:24 SP:F9 PPU:6827,20481,CYC: 6827
F831  B0 07     BCS $F83A                       A:69 X:33 Y:BE P:24 SP:F9 PPU:6829,20487,CYC: 6829
F833  C9 69     CMP #$69                        A:69 X:33 Y:BE P:24 SP:F9 PPU:6831,20493,CYC: 6831
F835  D0 03     BNE $F83A                       A:69 X:33 Y:BE P:27 SP:F9 PPU:6833,20499,CYC: 6833
F837  70 01     BVS $F83A                       A:69 X:33 Y:BE P:27 SP:F9 PPU:6835,20505,CYC: 6835
F839  60        RTS                             A:69 X:33 Y:BE P:27 SP:F9 PPU:6837,20511,CYC: 6837
D65F  C8        INY                             A:69 X:33 Y:BE P:27 SP:FB PPU:6843,20529,CYC: 6843
D660  20 3D F8  JSR $F83D                       A:69 X:33 Y:BF P:A5 SP:FB PPU:6845,20535,CYC: 6845
F83D  38        SEC                             A:69 X:33 Y:BF P:A5 SP:F9 PPU:6851,20553,CYC: 6851
F83E  24 01     BIT $01 = FF                    A:69 X:33 Y:BF P:A5 SP:F9 PPU:6853,20559,CYC: 6853
F840  A9 00     LDA #$00                        A:69 X:33 Y:BF P:E5 SP:F9 PPU:6856,20568,CYC: 6856
F842  60        RTS                             A:00 X:33 Y:BF P:67 SP:F9 PPU:6858,20574,CYC: 6858
D663  6D 78 06  ADC $0678 = 69                  A:00 X:33 Y:BF P:67 SP:FB PPU:6864,20592,CYC: 6864
D666  20 43 F8  JSR $F843                       A:6A X:33 Y:BF P:24 SP:FB PPU:6868,20604,CYC: 6868
F843  30 09     BMI $F84E                       A:6A X:33 Y:BF P:24 SP:F9 PPU:6874,20622,CYC: 6874
F845  B0 07     BCS $F84E                       A:6A X:33 Y:BF P:24 SP:F9 PPU:6876,20628,CYC: 6876
F847  C9 6A     CMP #$6A                        A:6A X:33 Y:BF P:24 SP:F9 PPU:6878,20634,CYC: 6878
F849  D0 03     BNE $F84E                       A:6A X:33 Y:BF P:27 SP:F9 PPU:6880,20640,CYC: 6880
F84B  70 01     BVS $F84E                       A:6A X:33 Y:BF P:27 SP:F9 PPU:6882,20646,CYC: 6882
F84D  60        RTS                             A:6A X:33 Y:BF P:27 SP:F9 PPU:6884,20652,CYC: 6884
D669  C8        INY                             A:6A X:33 Y:BF P:27 SP:FB PPU:6890,20670,CYC: 6890
D66A  A9 7F     LDA #$7F                        A:6A X:33 Y:C0 P:A5 SP:FB PPU:6892,20676,CYC: 6892
D66C  8D 78 06  STA $0678 = 69                  A:7F X:33 Y:C0 P:25 SP:FB PPU:6894,20682,CYC: 6894
D66F  20 51 F8  JSR $F851                       A:7F X:33 Y:C0 P:25 SP:FB PPU:6898,20694,CYC: 6898
F851  38        SEC                             A:7F X:33 Y:C0 P:25 SP:F9 PPU:6904,20712,CYC: 6904
F852  B8        CLV                             A:7F X:33 Y:C0 P:25 SP:F9 PPU:6906,20718,CYC: 6906
F853  A9 7F     LDA #$7F                        A:7F X:33 Y:C0 P:25 SP:F9 PPU:6908,20724,CYC: 6908
F855  60        RTS                             A:7F X:33 Y:C0 P:25 SP:F9 PPU:6910,20730,CYC: 6910
D672  6D 78 06  ADC $0678 = 7F                  A:7F X:33 Y:C0 P:25 SP:FB PPU:6916,20748,CYC: 6916
D675  20 56 F8  JSR $F856                       A:FF X:33 Y:C0 P:E4 SP:FB PPU:6920,20760,CYC: 6920
F856  10 09     BPL $F861                       A:FF X:33 Y:C0 P:E4 SP:F9 PPU:6926,20778,CYC: 6926
F858  B0 07     BCS $F861                       A:FF X:33 Y:C0 P:E4 SP:F9 PPU:6928,20784,CYC: 6928
F85A  C9 FF     CMP #$FF                        A:FF X:33 Y:C0 P:E4 SP:F9 PPU:6930,20790,CYC: 6930
F85C  D0 03     BNE $F861                       A:FF X:33 Y:C0 P:67 SP:F9 PPU:6932,20796,CYC: 6932
F85E  50 01     BVC $F861                       A:FF X:33 Y:C0 P:67 SP:F9 PPU:6934,20802,CYC: 6934
F860  60        RTS                             A:FF X:33 Y:C0 P:67 SP:F9 PPU:6936,20808,CYC: 6936
D678  C8        INY                             A:FF X:33 Y:C0 P:67 SP:FB PPU:6942,20826,CYC: 6942
D679  A9 80     LDA #$80                        A:FF X:33 Y:C1 P:E5 SP:FB PPU:6944,20832,CYC: 6944
D67B  8D 78 06  STA $0678 = 7F                  A:80 X:33 Y:C1 P:E5 SP:FB PPU:6946,20838,CYC: 6946
D67E  20 64 F8  JSR $F864                       A:80 X:33 Y:C1 P:E5 SP:FB PPU:6950,20850,CYC: 6950
F864  18        CLC                             A:80 X:33 Y:C1 P:E5 SP:F9 PPU:6956,20868,CYC: 6956
F865  24 01     BIT $01 = FF                    A:80 X:33 Y:C1 P:E4 SP:F9 PPU:6958,20874,CYC: 6958
F867  A9 7F     LDA #$7F                        A:80 X:33 Y:C1 P:E4 SP:F9 PPU:6961,20883,CYC: 6961
F869  60        RTS                             A:7F X:33 Y:C1 P:64 SP:F9 PPU:6963,20889,CYC: 6963
D681  6D 78 06  ADC $0678 = 80                  A:7F X:33 Y:C1 P:64 SP:FB PPU:6969,20907,CYC: 6969
D684  20 6A F8  JSR $F86A                       A:FF X:33 Y:C1 P:A4 SP:FB PPU:6973,20919,CYC: 6973
F86A  10 09     BPL $F875                       A:FF X:33 Y:C1 P:A4 SP:F9 PPU:6979,20937,CYC: 6979
F86C  B0 07     BCS $F875                       A:FF X:33 Y:C1 P:A4 SP:F9 PPU:6981,20943,CYC: 6981
F86E  C9 FF     CMP #$FF                        A:FF X:33 Y:C1 P:A4 SP:F9 PPU:6983,20949,CYC: 6983
F870  D0 03     BNE $F875                       A:FF X:33 Y:C1 P:27 SP:F9 PPU:6985,20955,CYC: 6985
F872  70 01     BVS $F875                       A:FF X:33 Y:C1 P:27 SP:F9 PPU:6987,20961,CYC: 6987
F874  60        RTS                             A:FF X:33 Y:C1 P:27 SP:F9 PPU:6989,20967,CYC: 6989
D687  C8        INY                             A:FF X:33 Y:C1 P:27 SP:FB PPU:6995,20985,CYC: 6995
D688  20 78 F8  JSR $F878                       A:FF X:33 Y:C2 P:A5 SP:FB PPU:6997,20991,CYC: 6997
F878  38        SEC                             A:FF X:33 Y:C2 P:A5 SP:F9 PPU:7003,21009,CYC: 7003
F879  B8        CLV                             A:FF X:33 Y:C2 P:A5 SP:F9 PPU:7005,21015,CYC: 7005
F87A  A9 7F     LDA #$7F                        A:FF X:33 Y:C2 P:A5 SP:F9 PPU:7007,21021,CYC: 7007
F87C  60        RTS                             A:7F X:33 Y:C2 P:25 SP:F9 PPU:7009,21027,CYC: 7009
D68B  6D 78 06  ADC $0678 = 80                  A:7F X:33 Y:C2 P:25 SP:FB PPU:7015,21045,CYC: 7015
D68E  20 7D F8  JSR $F87D                       A:00 X:33 Y:C2 P:27 SP:FB PPU:7019,21057,CYC: 7019
F87D  D0 07     BNE $F886                       A:00 X:33 Y:C2 P:27 SP:F9 PPU:7025,21075,CYC: 7025
F87F  30 05     BMI $F886                       A:00 X:33 Y:C2 P:27 SP:F9 PPU:7027,21081,CYC: 7027
F881  70 03     BVS $F886                       A:00 X:33 Y:C2 P:27 SP:F9 PPU:7029,21087,CYC: 7029
F883  90 01     BCC $F886                       A:00 X:33 Y:C2 P:27 SP:F9 PPU:7031,21093,CYC: 7031
F885  60        RTS                             A:00 X:33 Y:C2 P:27 SP:F9 PPU:7033,21099,CYC: 7033
D691  C8        INY                             A:00 X:33 Y:C2 P:27 SP:FB PPU:7039,21117,CYC: 7039
D692  A9 40     LDA #$40                        A:00 X:33 Y:C3 P:A5 SP:FB PPU:7041,21123,CYC: 7041
D694  8D 78 06  STA $0678 = 80                  A:40 X:33 Y:C3 P:25 SP:FB PPU:7043,21129,CYC: 7043
D697  20 89 F8  JSR $F889                       A:40 X:33 Y:C3 P:25 SP:FB PPU:7047,21141,CYC: 7047
F889  24 01     BIT $01 = FF                    A:40 X:33 Y:C3 P:25 SP:F9 PPU:7053,21159,CYC: 7053
F88B  A9 40     LDA #$40                        A:40 X:33 Y:C3 P:E5 SP:F9 PPU:7056,21168,CYC: 7056
F88D  60        RTS                             A:40 X:33 Y:C3 P:65 SP:F9 PPU:7058,21174,CYC: 7058
D69A  CD 78 06  CMP $0678 = 40                  A:40 X:33 Y:C3 P:65 SP:FB PPU:7064,21192,CYC: 7064
D69D  20 8E F8  JSR $F88E                       A:40 X:33 Y:C3 P:67 SP:FB PPU:7068,21204,CYC: 7068
F88E  30 07     BMI $F897                       A:40 X:33 Y:C3 P:67 SP:F9 PPU:7074,21222,CYC: 7074
F890  90 05     BCC $F897                       A:40 X:33 Y:C3 P:67 SP:F9 PPU:7076,21228,CYC: 7076
F892  D0 03     BNE $F897                       A:40 X:33 Y:C3 P:67 SP:F9 PPU:7078,21234,CYC: 7078
F894  50 01     BVC $F897                       A:40 X:33 Y:C3 P:67 SP:F9 PPU:7080,21240,CYC: 7080
F896  60        RTS                             A:40 X:33 Y:C3 P:67 SP:F9 PPU:7082,21246,CYC: 7082
D6A0  C8        INY                             A:40 X:33 Y:C3 P:67 SP:FB PPU:7088,21264,CYC: 7088
D6A1  48        PHA                             A:40 X:33 Y:C4 P:E5 SP:FB PPU:7090,21270,CYC: 7090
D6A2  A9 3F     LDA #$3F                        A:40 X:33 Y:C4 P:E5 SP:FA PPU:7093,21279,CYC: 7093
D6A4  8D 78 06  STA $0678 = 40                  A:3F X:33 Y:C4 P:65 SP:FA PPU:7095,21285,CYC: 7095
D6A7  68        PLA                             A:3F X:33 Y:C4 P:65 SP:FA PPU:7099,21297,CYC: 7099
D6A8  20 9A F8  JSR $F89A                       A:40 X:33 Y:C4 P:65 SP:FB PPU:7103,21309,CYC: 7103
F89A  B8        CLV                             A:40 X:33 Y:C4 P:65 SP:F9 PPU:7109,21327,CYC: 7109
F89B  60        RTS                             A:40 X:33 Y:C4 P:25 SP:F9 PPU:7111,21333,CYC: 7111
D6AB  CD 78 06  CMP $0678 = 3F                  A:40 X:33 Y:C4 P:25 SP:FB PPU:7117,21351,CYC: 7117
D6AE  20 9C F8  JSR $F89C                       A:40 X:33 Y:C4 P:25 SP:FB PPU:7121,21363,CYC: 7121
F89C  F0 07     BEQ $F8A5                       A:40 X:33 Y:C4 P:25 SP:F9 PPU:7127,21381,CYC: 7127
F89E  30 05     BMI $F8A5                       A:40 X:33 Y:C4 P:25 SP:F9 PPU:7129,21387,CYC: 7129
F8A0  90 03     BCC $F8A5                       A:40 X:33 Y:C4 P:25 SP:F9 PPU:7131,21393,CYC: 7131
F8A2  70 01     BVS $F8A5                       A:40 X:33 Y:C4 P:25 SP:F9 PPU:7133,21399,CYC: 7133
F8A4  60        RTS                             A:40 X:33 Y:C4 P:25 SP:F9 PPU:7135,21405,CYC: 7135
D6B1  C8        INY                             A:40 X:33 Y:C4 P:25 SP:FB PPU:7141,21423,CYC: 7141
D6B2  48        PHA                             A:40 X:33 Y:C5 P:A5 SP:FB PPU:7143,21429,CYC: 7143
D6B3  A9 41     LDA #$41                        A:40 X:33 Y:C5 P:A5 SP:FA PPU:7146,21438,CYC: 7146
D6B5  8D 78 06  STA $0678 = 3F                  A:41 X:33 Y:C5 P:25 SP:FA PPU:7148,21444,CYC: 7148
D6B8  68        PLA                             A:41 X:33 Y:C5 P:25 SP:FA PPU:7152,21456,CYC: 7152
D6B9  CD 78 06  CMP $0678 = 41                  A:40 X:33 Y:C5 P:25 SP:FB PPU:7156,21468,CYC: 7156
D6BC  20 A8 F8  JSR $F8A8                       A:40 X:33 Y:C5 P:A4 SP:FB PPU:7160,21480,CYC: 7160
F8A8  F0 05     BEQ $F8AF                       A:40 X:33 Y:C5 P:A4 SP:F9 PPU:7166,21498,CYC: 7166
F8AA  10 03     BPL $F8AF                       A:40 X:33 Y:C5 P:A4 SP:F9 PPU:7168,21504,CYC: 7168
F8AC  10 01     BPL $F8AF                       A:40 X:33 Y:C5 P:A4 SP:F9 PPU:7170,21510,CYC: 7170
F8AE  60        RTS                             A:40 X:33 Y:C5 P:A4 SP:F9 PPU:7172,21516,CYC: 7172
D6BF  C8        INY                             A:40 X:33 Y:C5 P:A4 SP:FB PPU:7178,21534,CYC: 7178
D6C0  48        PHA                             A:40 X:33 Y:C6 P:A4 SP:FB PPU:7180,21540,CYC: 7180
D6C1  A9 00     LDA #$00                        A:40 X:33 Y:C6 P:A4 SP:FA PPU:7183,21549,CYC: 7183
D6C3  8D 78 06  STA $0678 = 41                  A:00 X:33 Y:C6 P:26 SP:FA PPU:7185,21555,CYC: 7185
D6C6  68        PLA                             A:00 X:33 Y:C6 P:26 SP:FA PPU:7189,21567,CYC: 7189
D6C7  20 B2 F8  JSR $F8B2                       A:40 X:33 Y:C6 P:24 SP:FB PPU:7193,21579,CYC: 7193
F8B2  A9 80     LDA #$80                        A:40 X:33 Y:C6 P:24 SP:F9 PPU:7199,21597,CYC: 7199
F8B4  60        RTS                             A:80 X:33 Y:C6 P:A4 SP:F9 PPU:7201,21603,CYC: 7201
D6CA  CD 78 06  CMP $0678 = 00                  A:80 X:33 Y:C6 P:A4 SP:FB PPU:7207,21621,CYC: 7207
D6CD  20 B5 F8  JSR $F8B5                       A:80 X:33 Y:C6 P:A5 SP:FB PPU:7211,21633,CYC: 7211
F8B5  F0 05     BEQ $F8BC                       A:80 X:33 Y:C6 P:A5 SP:F9 PPU:7217,21651,CYC: 7217
F8B7  10 03     BPL $F8BC                       A:80 X:33 Y:C6 P:A5 SP:F9 PPU:7219,21657,CYC: 7219
F8B9  90 01     BCC $F8BC                       A:80 X:33 Y:C6 P:A5 SP:F9 PPU:7221,21663,CYC: 7221
F8BB  60        RTS                             A:80 X:33 Y:C6 P:A5 SP:F9 PPU:7223,21669,CYC: 7223
D6D0  C8        INY                             A:80 X:33 Y:C6 P:A5 SP:FB PPU:7229,21687,CYC: 7229
D6D1  48        PHA                             A:80 X:33 Y:C7 P:A5 SP:FB PPU:7231,21693,CYC: 7231
D6D2  A9 80     LDA #$80                        A:80 X:33 Y:C7 P:A5 SP:FA PPU:7234,21702,CYC: 7234
D6D4  8D 78 06  STA $0678 = 00                  A:80 X:33 Y:C7 P:A5 SP:FA PPU:7236,21708,CYC: 7236
D6D7  68        PLA                             A:80 X:33 Y:C7 P:A5 SP:FA PPU:7240,21720,CYC: 7240
D6D8  CD 78 06  CMP $0678 = 80                  A:80 X:33 Y:C7 P:A5 SP:FB PPU:7244,21732,CYC: 7244
D6DB  20 BF F8  JSR $F8BF                       A:80 X:33 Y:C7 P:27 SP:FB PPU:7248,21744,CYC: 7248
F8BF  D0 05     BNE $F8C6                       A:80 X:33 Y:C7 P:27 SP:F9 PPU:7254,21762,CYC: 7254
F8C1  30 03     BMI $F8C6                       A:80 X:33 Y:C7 P:27 SP:F9 PPU:7256,21768,CYC: 7256
F8C3  90 01     BCC $F8C6                       A:80 X:33 Y:C7 P:27 SP:F9 PPU:7258,21774,CYC: 7258
F8C5  60        RTS                             A:80 X:33 Y:C7 P:27 SP:F9 PPU:7260,21780,CYC: 7260
D6DE  C8        INY                             A:80 X:33 Y:C7 P:27 SP:FB PPU:7266,21798,CYC: 7266
D6DF  48        PHA                             A:80 X:33 Y:C8 P:A5 SP:FB PPU:7268,21804,CYC: 7268
D6E0  A9 81     LDA #$81                        A:80 X:33 Y:C8 P:A5 SP:FA PPU:7271,21813,CYC: 7271
D6E2  8D 78 06  STA $0678 = 80                  A:81 X:33 Y:C8 P:A5 SP:FA PPU:7273,21819,CYC: 7273
D6E5  68        PLA                             A:81 X:33 Y:C8 P:A5 SP:FA PPU:7277,21831,CYC: 7277
D6E6  CD 78 06  CMP $0678 = 81                  A:80 X:33 Y:C8 P:A5 SP:FB PPU:7281,21843,CYC: 7281
D6E9  20 C9 F8  JSR $F8C9                       A:80 X:33 Y:C8 P:A4 SP:FB PPU:7285,21855,CYC: 7285
F8C9  B0 05     BCS $F8D0                       A:80 X:33 Y:C8 P:A4 SP:F9 PPU:7291,21873,CYC: 7291
F8CB  F0 03     BEQ $F8D0                       A:80 X:33 Y:C8 P:A4 SP:F9 PPU:7293,21879,CYC: 7293
F8CD  10 01     BPL $F8D0                       A:80 X:33 Y:C8 P:A4 SP:F9 PPU:7295,21885,CYC: 7295
F8CF  60        RTS                             A:80 X:33 Y:C8 P:A4 SP:F9 PPU:7297,21891,CYC: 7297
D6EC  C8        INY                             A:80 X:33 Y:C8 P:A4 SP:FB PPU:7303,21909,CYC: 7303
D6ED  48        PHA                             A:80 X:33 Y:C9 P:A4 SP:FB PPU:7305,21915,CYC: 7305
D6EE  A9 7F     LDA #$7F                        A:80 X:33 Y:C9 P:A4 SP:FA PPU:7308,21924,CYC: 7308
D6F0  8D 78 06  STA $0678 = 81                  A:7F X:33 Y:C9 P:24 SP:FA PPU:7310,21930,CYC: 7310
D6F3  68        PLA                             A:7F X:33 Y:C9 P:24 SP:FA PPU:7314,21942,CYC: 7314
D6F4  CD 78 06  CMP $0678 = 7F                  A:80 X:33 Y:C9 P:A4 SP:FB PPU:7318,21954,CYC: 7318
D6F7  20 D3 F8  JSR $F8D3                       A:80 X:33 Y:C9 P:25 SP:FB PPU:7322,21966,CYC: 7322
F8D3  90 05     BCC $F8DA                       A:80 X:33 Y:C9 P:25 SP:F9 PPU:7328,21984,CYC: 7328
F8D5  F0 03     BEQ $F8DA                       A:80 X:33 Y:C9 P:25 SP:F9 PPU:7330,21990,CYC: 7330
F8D7  30 01     BMI $F8DA                       A:80 X:33 Y:C9 P:25 SP:F9 PPU:7332,21996,CYC: 7332
F8D9  60        RTS                             A:80 X:33 Y:C9 P:25 SP:F9 PPU:7334,22002,CYC: 7334
D6FA  C8        INY                             A:80 X:33 Y:C9 P:25 SP:FB PPU:7340,22020,CYC: 7340
D6FB  A9 40     LDA #$40                        A:80 X:33 Y:CA P:A5 SP:FB PPU:7342,22026,CYC: 7342
D6FD  8D 78 06  STA $0678 = 7F                  A:40 X:33 Y:CA P:25 SP:FB PPU:7344,22032,CYC: 7344
D700  20 31 F9  JSR $F931                       A:40 X:33 Y:CA P:25 SP:FB PPU:7348,22044,CYC: 7348
F931  24 01     BIT $01 = FF                    A:40 X:33 Y:CA P:25 SP:F9 PPU:7354,22062,CYC: 7354
F933  A9 40     LDA #$40                        A:40 X:33 Y:CA P:E5 SP:F9 PPU:7357,22071,CYC: 7357
F935  38        SEC                             A:40 X:33 Y:CA P:65 SP:F9 PPU:7359,22077,CYC: 7359
F936  60        RTS                             A:40 X:33 Y:CA P:65 SP:F9 PPU:7361,22083,CYC: 7361
D703  ED 78 06  SBC $0678 = 40                  A:40 X:33 Y:CA P:65 SP:FB PPU:7367,22101,CYC: 7367
D706  20 37 F9  JSR $F937                       A:00 X:33 Y:CA P:27 SP:FB PPU:7371,22113,CYC: 7371
F937  30 0B     BMI $F944                       A:00 X:33 Y:CA P:27 SP:F9 PPU:7377,22131,CYC: 7377
F939  90 09     BCC $F944                       A:00 X:33 Y:CA P:27 SP:F9 PPU:7379,22137,CYC: 7379
F93B  D0 07     BNE $F944                       A:00 X:33 Y:CA P:27 SP:F9 PPU:7381,22143,CYC: 7381
F93D  70 05     BVS $F944                       A:00 X:33 Y:CA P:27 SP:F9 PPU:7383,22149,CYC: 7383
F93F  C9 00     CMP #$00                        A:00 X:33 Y:CA P:27 SP:F9 PPU:7385,22155,CYC: 7385
F941  D0 01     BNE $F944                       A:00 X:33 Y:CA P:27 SP:F9 PPU:7387,22161,CYC: 7387
F943  60        RTS                             A:00 X:33 Y:CA P:27 SP:F9 PPU:7389,22167,CYC: 7389
D709  C8        INY                             A:00 X:33 Y:CA P:27 SP:FB PPU:7395,22185,CYC: 7395
D70A  A9 3F     LDA #$3F                        A:00 X:33 Y:CB P:A5 SP:FB PPU:7397,22191,CYC: 7397
D70C  8D 78 06  STA $0678 = 40                  A:3F X:33 Y:CB P:25 SP:FB PPU:7399,22197,CYC: 7399
D70F  20 47 F9  JSR $F947                       A:3F X:33 Y:CB P:25 SP:FB PPU:7403,22209,CYC: 7403
F947  B8        CLV                             A:3F X:33 Y:CB P:25 SP:F9 PPU:7409,22227,CYC: 7409
F948  38        SEC                             A:3F X:33 Y:CB P:25 SP:F9 PPU:7411,22233,CYC: 7411
F949  A9 40     LDA #$40                        A:3F X:33 Y:CB P:25 SP:F9 PPU:7413,22239,CYC: 7413
F94B  60        RTS                             A:40 X:33 Y:CB P:25 SP:F9 PPU:7415,22245,CYC: 7415
D712  ED 78 06  SBC $0678 = 3F                  A:40 X:33 Y:CB P:25 SP:FB PPU:7421,22263,CYC: 7421
D715  20 4C F9  JSR $F94C                       A:01 X:33 Y:CB P:25 SP:FB PPU:7425,22275,CYC: 7425
F94C  F0 0B     BEQ $F959                       A:01 X:33 Y:CB P:25 SP:F9 PPU:7431,22293,CYC: 7431
F94E  30 09     BMI $F959                       A:01 X:33 Y:CB P:25 SP:F9 PPU:7433,22299,CYC: 7433
F950  90 07     BCC $F959                       A:01 X:33 Y:CB P:25 SP:F9 PPU:7435,22305,CYC: 7435
F952  70 05     BVS $F959                       A:01 X:33 Y:CB P:25 SP:F9 PPU:7437,22311,CYC: 7437
F954  C9 01     CMP #$01                        A:01 X:33 Y:CB P:25 SP:F9 PPU:7439,22317,CYC: 7439
F956  D0 01     BNE $F959                       A:01 X:33 Y:CB P:27 SP:F9 PPU:7441,22323,CYC: 7441
F958  60        RTS                             A:01 X:33 Y:CB P:27 SP:F9 PPU:7443,22329,CYC: 7443
D718  C8        INY                             A:01 X:33 Y:CB P:27 SP:FB PPU:7449,22347,CYC: 7449
D719  A9 41     LDA #$41                        A:01 X:33 Y:CC P:A5 SP:FB PPU:7451,22353,CYC: 7451
D71B  8D 78 06  STA $0678 = 3F                  A:41 X:33 Y:CC P:25 SP:FB PPU:7453,22359,CYC: 7453
D71E  20 5C F9  JSR $F95C                       A:41 X:33 Y:CC P:25 SP:FB PPU:7457,22371,CYC: 7457
F95C  A9 40     LDA #$40                        A:41 X:33 Y:CC P:25 SP:F9 PPU:7463,22389,CYC: 7463
F95E  38        SEC                             A:40 X:33 Y:CC P:25 SP:F9 PPU:7465,22395,CYC: 7465
F95F  24 01     BIT $01 = FF                    A:40 X:33 Y:CC P:25 SP:F9 PPU:7467,22401,CYC: 7467
F961  60        RTS                             A:40 X:33 Y:CC P:E5 SP:F9 PPU:7470,22410,CYC: 7470
D721  ED 78 06  SBC $0678 = 41                  A:40 X:33 Y:CC P:E5 SP:FB PPU:7476,22428,CYC: 7476
D724  20 62 F9  JSR $F962                       A:FF X:33 Y:CC P:A4 SP:FB PPU:7480,22440,CYC: 7480
F962  B0 0B     BCS $F96F                       A:FF X:33 Y:CC P:A4 SP:F9 PPU:7486,22458,CYC: 7486
F964  F0 09     BEQ $F96F                       A:FF X:33 Y:CC P:A4 SP:F9 PPU:7488,22464,CYC: 7488
F966  10 07     BPL $F96F                       A:FF X:33 Y:CC P:A4 SP:F9 PPU:7490,22470,CYC: 7490
F968  70 05     BVS $F96F                       A:FF X:33 Y:CC P:A4 SP:F9 PPU:7492,22476,CYC: 7492
F96A  C9 FF     CMP #$FF                        A:FF X:33 Y:CC P:A4 SP:F9 PPU:7494,22482,CYC: 7494
F96C  D0 01     BNE $F96F                       A:FF X:33 Y:CC P:27 SP:F9 PPU:7496,22488,CYC: 7496
F96E  60        RTS                             A:FF X:33 Y:CC P:27 SP:F9 PPU:7498,22494,CYC: 7498
D727  C8        INY                             A:FF X:33 Y:CC P:27 SP:FB PPU:7504,22512,CYC: 7504
D728  A9 00     LDA #$00                        A:FF X:33 Y:CD P:A5 SP:FB PPU:7506,22518,CYC: 7506
D72A  8D 78 06  STA $0678 = 41                  A:00 X:33 Y:CD P:27 SP:FB PPU:7508,22524,CYC: 7508
D72D  20 72 F9  JSR $F972                       A:00 X:33 Y:CD P:27 SP:FB PPU:7512,22536,CYC: 7512
F972  18        CLC                             A:00 X:33 Y:CD P:27 SP:F9 PPU:7518,22554,CYC: 7518
F973  A9 80     LDA #$80                        A:00 X:33 Y:CD P:26 SP:F9 PPU:7520,22560,CYC: 7520
F975  60        RTS                             A:80 X:33 Y:CD P:A4 SP:F9 PPU:7522,22566,CYC: 7522
D730  ED 78 06  SBC $0678 = 00                  A:80 X:33 Y:CD P:A4 SP:FB PPU:7528,22584,CYC: 7528
D733  20 76 F9  JSR $F976                       A:7F X:33 Y:CD P:65 SP:FB PPU:7532,22596,CYC: 7532
F976  90 05     BCC $F97D                       A:7F X:33 Y:CD P:65 SP:F9 PPU:7538,22614,CYC: 7538
F978  C9 7F     CMP #$7F                        A:7F X:33 Y:CD P:65 SP:F9 PPU:7540,22620,CYC: 7540
F97A  D0 01     BNE $F97D                       A:7F X:33 Y:CD P:67 SP:F9 PPU:7542,22626,CYC: 7542
F97C  60        RTS                             A:7F X:33 Y:CD P:67 SP:F9 PPU:7544,22632,CYC: 7544
D736  C8        INY                             A:7F X:33 Y:CD P:67 SP:FB PPU:7550,22650,CYC: 7550
D737  A9 7F     LDA #$7F                        A:7F X:33 Y:CE P:E5 SP:FB PPU:7552,22656,CYC: 7552
D739  8D 78 06  STA $0678 = 00                  A:7F X:33 Y:CE P:65 SP:FB PPU:7554,22662,CYC: 7554
D73C  20 80 F9  JSR $F980                       A:7F X:33 Y:CE P:65 SP:FB PPU:7558,22674,CYC: 7558
F980  38        SEC                             A:7F X:33 Y:CE P:65 SP:F9 PPU:7564,22692,CYC: 7564
F981  A9 81     LDA #$81                        A:7F X:33 Y:CE P:65 SP:F9 PPU:7566,22698,CYC: 7566
F983  60        RTS                             A:81 X:33 Y:CE P:E5 SP:F9 PPU:7568,22704,CYC: 7568
D73F  ED 78 06  SBC $0678 = 7F                  A:81 X:33 Y:CE P:E5 SP:FB PPU:7574,22722,CYC: 7574
D742  20 84 F9  JSR $F984                       A:02 X:33 Y:CE P:65 SP:FB PPU:7578,22734,CYC: 7578
F984  50 07     BVC $F98D                       A:02 X:33 Y:CE P:65 SP:F9 PPU:7584,22752,CYC: 7584
F986  90 05     BCC $F98D                       A:02 X:33 Y:CE P:65 SP:F9 PPU:7586,22758,CYC: 7586
F988  C9 02     CMP #$02                        A:02 X:33 Y:CE P:65 SP:F9 PPU:7588,22764,CYC: 7588
F98A  D0 01     BNE $F98D                       A:02 X:33 Y:CE P:67 SP:F9 PPU:7590,22770,CYC: 7590
F98C  60        RTS                             A:02 X:33 Y:CE P:67 SP:F9 PPU:7592,22776,CYC: 7592
D745  C8        INY                             A:02 X:33 Y:CE P:67 SP:FB PPU:7598,22794,CYC: 7598
D746  A9 40     LDA #$40                        A:02 X:33 Y:CF P:E5 SP:FB PPU:7600,22800,CYC: 7600
D748  8D 78 06  STA $0678 = 7F                  A:40 X:33 Y:CF P:65 SP:FB PPU:7602,22806,CYC: 7602
D74B  20 89 F8  JSR $F889                       A:40 X:33 Y:CF P:65 SP:FB PPU:7606,22818,CYC: 7606
F889  24 01     BIT $01 = FF                    A:40 X:33 Y:CF P:65 SP:F9 PPU:7612,22836,CYC: 7612
F88B  A9 40     LDA #$40                        A:40 X:33 Y:CF P:E5 SP:F9 PPU:7615,22845,CYC: 7615
F88D  60        RTS                             A:40 X:33 Y:CF P:65 SP:F9 PPU:7617,22851,CYC: 7617
D74E  AA        TAX                             A:40 X:33 Y:CF P:65 SP:FB PPU:7623,22869,CYC: 7623
D74F  EC 78 06  CPX $0678 = 40                  A:40 X:40 Y:CF P:65 SP:FB PPU:7625,22875,CYC: 7625
D752  20 8E F8  JSR $F88E                       A:40 X:40 Y:CF P:67 SP:FB PPU:7629,22887,CYC: 7629
F88E  30 07     BMI $F897                       A:40 X:40 Y:CF P:67 SP:F9 PPU:7635,22905,CYC: 7635
F890  90 05     BCC $F897                       A:40 X:40 Y:CF P:67 SP:F9 PPU:7637,22911,CYC: 7637
F892  D0 03     BNE $F897                       A:40 X:40 Y:CF P:67 SP:F9 PPU:7639,22917,CYC: 7639
F894  50 01     BVC $F897                       A:40 X:40 Y:CF P:67 SP:F9 PPU:7641,22923,CYC: 7641
F896  60        RTS                             A:40 X:40 Y:CF P:67 SP:F9 PPU:7643,22929,CYC: 7643
D755  C8        INY                             A:40 X:40 Y:CF P:67 SP:FB PPU:7649,22947,CYC: 7649
D756  A9 3F     LDA #$3F                        A:40 X:40 Y:D0 P:E5 SP:FB PPU:7651,22953,CYC: 7651
D758  8D 78 06  STA $0678 = 40                  A:3F X:40 Y:D0 P:65 SP:FB PPU:7653,22959,CYC: 7653
D75B  20 9A F8  JSR $F89A                       A:3F X:40 Y:D0 P:65 SP:FB PPU:7657,22971,CYC: 7657
F89A  B8        CLV                             A:3F X:40 Y:D0 P:65 SP:F9 PPU:7663,22989,CYC: 7663
F89B  60        RTS                             A:3F X:40 Y:D0 P:25 SP:F9 PPU:7665,22995,CYC: 7665
D75E  EC 78 06  CPX $0678 = 3F                  A:3F X:40 Y:D0 P:25 SP:FB PPU:7671,23013,CYC: 7671
D761  20 9C F8  JSR $F89C                       A:3F X:40 Y:D0 P:25 SP:FB PPU:7675,23025,CYC: 7675
F89C  F0 07     BEQ $F8A5                       A:3F X:40 Y:D0 P:25 SP:F9 PPU:7681,23043,CYC: 7681
F89E  30 05     BMI $F8A5                       A:3F X:40 Y:D0 P:25 SP:F9 PPU:7683,23049,CYC: 7683
F8A0  90 03     BCC $F8A5                       A:3F X:40 Y:D0 P:25 SP:F9 PPU:7685,23055,CYC: 7685
F8A2  70 01     BVS $F8A5                       A:3F X:40 Y:D0 P:25 SP:F9 PPU:7687,23061,CYC: 7687
F8A4  60        RTS                             A:3F X:40 Y:D0 P:25 SP:F9 PPU:7689,23067,CYC: 7689
D764  C8        INY                             A:3F X:40 Y:D0 P:25 SP:FB PPU:7695,23085,CYC: 7695
D765  A9 41     LDA #$41                        A:3F X:40 Y:D1 P:A5 SP:FB PPU:7697,23091,CYC: 7697
D767  8D 78 06  STA $0678 = 3F                  A:41 X:40 Y:D1 P:25 SP:FB PPU:7699,23097,CYC: 7699
D76A  EC 78 06  CPX $0678 = 41                  A:41 X:40 Y:D1 P:25 SP:FB PPU:7703,23109,CYC: 7703
D76D  20 A8 F8  JSR $F8A8                       A:41 X:40 Y:D1 P:A4 SP:FB PPU:7707,23121,CYC: 7707
F8A8  F0 05     BEQ $F8AF                       A:41 X:40 Y:D1 P:A4 SP:F9 PPU:7713,23139,CYC: 7713
F8AA  10 03     BPL $F8AF                       A:41 X:40 Y:D1 P:A4 SP:F9 PPU:7715,23145,CYC: 7715
F8AC  10 01     BPL $F8AF                       A:41 X:40 Y:D1 P:A4 SP:F9 PPU:7717,23151,CYC: 7717
F8AE  60        RTS                             A:41 X:40 Y:D1 P:A4 SP:F9 PPU:7719,23157,CYC: 7719
D770  C8        INY                             A:41 X:40 Y:D1 P:A4 SP:FB PPU:7725,23175,CYC: 7725
D771  A9 00     LDA #$00                        A:41 X:40 Y:D2 P:A4 SP:FB PPU:7727,23181,CYC: 7727
D773  8D 78 06  STA $0678 = 41                  A:00 X:40 Y:D2 P:26 SP:FB PPU:7729,23187,CYC: 7729
D776  20 B2 F8  JSR $F8B2                       A:00 X:40 Y:D2 P:26 SP:FB PPU:7733,23199,CYC: 7733
F8B2  A9 80     LDA #$80                        A:00 X:40 Y:D2 P:26 SP:F9 PPU:7739,23217,CYC: 7739
F8B4  60        RTS                             A:80 X:40 Y:D2 P:A4 SP:F9 PPU:7741,23223,CYC: 7741
D779  AA        TAX                             A:80 X:40 Y:D2 P:A4 SP:FB PPU:7747,23241,CYC: 7747
D77A  EC 78 06  CPX $0678 = 00                  A:80 X:80 Y:D2 P:A4 SP:FB PPU:7749,23247,CYC: 7749
D77D  20 B5 F8  JSR $F8B5                       A:80 X:80 Y:D2 P:A5 SP:FB PPU:7753,23259,CYC: 7753
F8B5  F0 05     BEQ $F8BC                       A:80 X:80 Y:D2 P:A5 SP:F9 PPU:7759,23277,CYC: 7759
F8B7  10 03     BPL $F8BC                       A:80 X:80 Y:D2 P:A5 SP:F9 PPU:7761,23283,CYC: 7761
F8B9  90 01     BCC $F8BC                       A:80 X:80 Y:D2 P:A5 SP:F9 PPU:7763,23289,CYC: 7763
F8BB  60        RTS                             A:80 X:80 Y:D2 P:A5 SP:F9 PPU:7765,23295,CYC: 7765
D780  C8        INY                             A:80 X:80 Y:D2 P:A5 SP:FB PPU:7771,23313,CYC: 7771
D781  A9 80     LDA #$80                        A:80 X:80 Y:D3 P:A5 SP:FB PPU:7773,23319,CYC: 7773
D783  8D 78 06  STA $0678 = 00                  A:80 X:80 Y:D3 P:A5 SP:FB PPU:7775,23325,CYC: 7775
D786  EC 78 06  CPX $0678 = 80                  A:80 X:80 Y:D3 P:A5 SP:FB PPU:7779,23337,CYC: 7779
D789  20 BF F8  JSR $F8BF                       A:80 X:80 Y:D3 P:27 SP:FB PPU:7783,23349,CYC: 7783
F8BF  D0 05     BNE $F8C6                       A:80 X:80 Y:D3 P:27 SP:F9 PPU:7789,23367,CYC: 7789
F8C1  30 03     BMI $F8C6                       A:80 X:80 Y:D3 P:27 SP:F9 PPU:7791,23373,CYC: 7791
F8C3  90 01     BCC $F8C6                       A:80 X:80 Y:D3 P:27 SP:F9 PPU:7793,23379,CYC: 7793
F8C5  60        RTS                             A:80 X:80 Y:D3 P:27 SP:F9 PPU:7795,23385,CYC: 7795
D78C  C8        INY                             A:80 X:80 Y:D3 P:27 SP:FB PPU:7801,23403,CYC: 7801
D78D  A9 81     LDA #$81                        A:80 X:80 Y:D4 P:A5 SP:FB PPU:7803,23409,CYC: 7803
D78F  8D 78 06  STA $0678 = 80                  A:81 X:80 Y:D4 P:A5 SP:FB PPU:7805,23415,CYC: 7805
D792  EC 78 06  CPX $0678 = 81                  A:81 X:80 Y:D4 P:A5 SP:FB PPU:7809,23427,CYC: 7809
D795  20 C9 F8  JSR $F8C9                       A:81 X:80 Y:D4 P:A4 SP:FB PPU:7813,23439,CYC: 7813
F8C9  B0 05     BCS $F8D0                       A:81 X:80 Y:D4 P:A4 SP:F9 PPU:7819,23457,CYC: 7819
F8CB  F0 03     BEQ $F8D0                       A:81 X:80 Y:D4 P:A4 SP:F9 PPU:7821,23463,CYC: 7821
F8CD  10 01     BPL $F8D0                       A:81 X:80 Y:D4 P:A4 SP:F9 PPU:7823,23469,CYC: 7823
F8CF  60        RTS                             A:81 X:80 Y:D4 P:A4 SP:F9 PPU:7825,23475,CYC: 7825
D798  C8        INY                             A:81 X:80 Y:D4 P:A4 SP:FB PPU:7831,23493,CYC: 7831
D799  A9 7F     LDA #$7F                        A:81 X:80 Y:D5 P:A4 SP:FB PPU:7833,23499,CYC: 7833
D79B  8D 78 06  STA $0678 = 81                  A:7F X:80 Y:D5 P:24 SP:FB PPU:7835,23505,CYC: 7835
D79E  EC 78 06  CPX $0678 = 7F                  A:7F X:80 Y:D5 P:24 SP:FB PPU:7839,23517,CYC: 7839
D7A1  20 D3 F8  JSR $F8D3                       A:7F X:80 Y:D5 P:25 SP:FB PPU:7843,23529,CYC: 7843
F8D3  90 05     BCC $F8DA                       A:7F X:80 Y:D5 P:25 SP:F9 PPU:7849,23547,CYC: 7849
F8D5  F0 03     BEQ $F8DA                       A:7F X:80 Y:D5 P:25 SP:F9 PPU:7851,23553,CYC: 7851
F8D7  30 01     BMI $F8DA                       A:7F X:80 Y:D5 P:25 SP:F9 PPU:7853,23559,CYC: 7853
F8D9  60        RTS                             A:7F X:80 Y:D5 P:25 SP:F9 PPU:7855,23565,CYC: 7855
D7A4  C8        INY                             A:7F X:80 Y:D5 P:25 SP:FB PPU:7861,23583,CYC: 7861
D7A5  98        TYA                             A:7F X:80 Y:D6 P:A5 SP:FB PPU:7863,23589,CYC: 7863
D7A6  AA        TAX                             A:D6 X:80 Y:D6 P:A5 SP:FB PPU:7865,23595,CYC: 7865
D7A7  A9 40     LDA #$40                        A:D6 X:D6 Y:D6 P:A5 SP:FB PPU:7867,23601,CYC: 7867
D7A9  8D 78 06  STA $0678 = 7F                  A:40 X:D6 Y:D6 P:25 SP:FB PPU:7869,23607,CYC: 7869
D7AC  20 DD F8  JSR $F8DD                       A:40 X:D6 Y:D6 P:25 SP:FB PPU:7873,23619,CYC: 7873
F8DD  24 01     BIT $01 = FF                    A:40 X:D6 Y:D6 P:25 SP:F9 PPU:7879,23637,CYC: 7879
F8DF  A0 40     LDY #$40                        A:40 X:D6 Y:D6 P:E5 SP:F9 PPU:7882,23646,CYC: 7882
F8E1  60        RTS                             A:40 X:D6 Y:40 P:65 SP:F9 PPU:7884,23652,CYC: 7884
D7AF  CC 78 06  CPY $0678 = 40                  A:40 X:D6 Y:40 P:65 SP:FB PPU:7890,23670,CYC: 7890
D7B2  20 E2 F8  JSR $F8E2                       A:40 X:D6 Y:40 P:67 SP:FB PPU:7894,23682,CYC: 7894
F8E2  30 07     BMI $F8EB                       A:40 X:D6 Y:40 P:67 SP:F9 PPU:7900,23700,CYC: 7900
F8E4  90 05     BCC $F8EB                       A:40 X:D6 Y:40 P:67 SP:F9 PPU:7902,23706,CYC: 7902
F8E6  D0 03     BNE $F8EB                       A:40 X:D6 Y:40 P:67 SP:F9 PPU:7904,23712,CYC: 7904
F8E8  50 01     BVC $F8EB                       A:40 X:D6 Y:40 P:67 SP:F9 PPU:7906,23718,CYC: 7906
F8EA  60        RTS                             A:40 X:D6 Y:40 P:67 SP:F9 PPU:7908,23724,CYC: 7908
D7B5  E8        INX                             A:40 X:D6 Y:40 P:67 SP:FB PPU:7914,23742,CYC: 7914
D7B6  A9 3F     LDA #$3F                        A:40 X:D7 Y:40 P:E5 SP:FB PPU:7916,23748,CYC: 7916
D7B8  8D 78 06  STA $0678 = 40                  A:3F X:D7 Y:40 P:65 SP:FB PPU:7918,23754,CYC: 7918
D7BB  20 EE F8  JSR $F8EE                       A:3F X:D7 Y:40 P:65 SP:FB PPU:7922,23766,CYC: 7922
F8EE  B8        CLV                             A:3F X:D7 Y:40 P:65 SP:F9 PPU:7928,23784,CYC: 7928
F8EF  60        RTS                             A:3F X:D7 Y:40 P:25 SP:F9 PPU:7930,23790,CYC: 7930
D7BE  CC 78 06  CPY $0678 = 3F                  A:3F X:D7 Y:40 P:25 SP:FB PPU:7936,23808,CYC: 7936
D7C1  20 F0 F8  JSR $F8F0                       A:3F X:D7 Y:40 P:25 SP:FB PPU:7940,23820,CYC: 7940
F8F0  F0 07     BEQ $F8F9                       A:3F X:D7 Y:40 P:25 SP:F9 PPU:7946,23838,CYC: 7946
F8F2  30 05     BMI $F8F9                       A:3F X:D7 Y:40 P:25 SP:F9 PPU:7948,23844,CYC: 7948
F8F4  90 03     BCC $F8F9                       A:3F X:D7 Y:40 P:25 SP:F9 PPU:7950,23850,CYC: 7950
F8F6  70 01     BVS $F8F9                       A:3F X:D7 Y:40 P:25 SP:F9 PPU:7952,23856,CYC: 7952
F8F8  60        RTS                             A:3F X:D7 Y:40 P:25 SP:F9 PPU:7954,23862,CYC: 7954
D7C4  E8        INX                             A:3F X:D7 Y:40 P:25 SP:FB PPU:7960,23880,CYC: 7960
D7C5  A9 41     LDA #$41                        A:3F X:D8 Y:40 P:A5 SP:FB PPU:7962,23886,CYC: 7962
D7C7  8D 78 06  STA $0678 = 3F                  A:41 X:D8 Y:40 P:25 SP:FB PPU:7964,23892,CYC: 7964
D7CA  CC 78 06  CPY $0678 = 41                  A:41 X:D8 Y:40 P:25 SP:FB PPU:7968,23904,CYC: 7968
D7CD  20 FC F8  JSR $F8FC                       A:41 X:D8 Y:40 P:A4 SP:FB PPU:7972,23916,CYC: 7972
F8FC  F0 05     BEQ $F903                       A:41 X:D8 Y:40 P:A4 SP:F9 PPU:7978,23934,CYC: 7978
F8FE  10 03     BPL $F903                       A:41 X:D8 Y:40 P:A4 SP:F9 PPU:7980,23940,CYC: 7980
F900  10 01     BPL $F903                       A:41 X:D8 Y:40 P:A4 SP:F9 PPU:7982,23946,CYC: 7982
F902  60        RTS                             A:41 X:D8 Y:40 P:A4 SP:F9 PPU:7984,23952,CYC: 7984
D7D0  E8        INX                             A:41 X:D8 Y:40 P:A4 SP:FB PPU:7990,23970,CYC: 7990
D7D1  A9 00     LDA #$00                        A:41 X:D9 Y:40 P:A4 SP:FB PPU:7992,23976,CYC: 7992
D7D3  8D 78 06  STA $0678 = 41                  A:00 X:D9 Y:40 P:26 SP:FB PPU:7994,23982,CYC: 7994
D7D6  20 06 F9  JSR $F906                       A:00 X:D9 Y:40 P:26 SP:FB PPU:7998,23994,CYC: 7998
F906  A0 80     LDY #$80                        A:00 X:D9 Y:40 P:26 SP:F9 PPU:8004,24012,CYC: 8004
F908  60        RTS                             A:00 X:D9 Y:80 P:A4 SP:F9 PPU:8006,24018,CYC: 8006
D7D9  CC 78 06  CPY $0678 = 00                  A:00 X:D9 Y:80 P:A4 SP:FB PPU:8012,24036,CYC: 8012
D7DC  20 09 F9  JSR $F909                       A:00 X:D9 Y:80 P:A5 SP:FB PPU:8016,24048,CYC: 8016
F909  F0 05     BEQ $F910                       A:00 X:D9 Y:80 P:A5 SP:F9 PPU:8022,24066,CYC: 8022
F90B  10 03     BPL $F910                       A:00 X:D9 Y:80 P:A5 SP:F9 PPU:8024,24072,CYC: 8024
F90D  90 01     BCC $F910                       A:00 X:D9 Y:80 P:A5 SP:F9 PPU:8026,24078,CYC: 8026
F90F  60        RTS                             A:00 X:D9 Y:80 P:A5 SP:F9 PPU:8028,24084,CYC: 8028
D7DF  E8        INX                             A:00 X:D9 Y:80 P:A5 SP:FB PPU:8034,24102,CYC: 8034
D7E0  A9 80     LDA #$80                        A:00 X:DA Y:80 P:A5 SP:FB PPU:8036,24108,CYC: 8036
D7E2  8D 78 06  STA $0678 = 00                  A:80 X:DA Y:80 P:A5 SP:FB PPU:8038,24114,CYC: 8038
D7E5  CC 78 06  CPY $0678 = 80                  A:80 X:DA Y:80 P:A5 SP:FB PPU:8042,24126,CYC: 8042
D7E8  20 13 F9  JSR $F913                       A:80 X:DA Y:80 P:27 SP:FB PPU:8046,24138,CYC: 8046
F913  D0 05     BNE $F91A                       A:80 X:DA Y:80 P:27 SP:F9 PPU:8052,24156,CYC: 8052
F915  30 03     BMI $F91A                       A:80 X:DA Y:80 P:27 SP:F9 PPU:8054,24162,CYC: 8054
F917  90 01     BCC $F91A                       A:80 X:DA Y:80 P:27 SP:F9 PPU:8056,24168,CYC: 8056
F919  60        RTS                             A:80 X:DA Y:80 P:27 SP:F9 PPU:8058,24174,CYC: 8058
D7EB  E8        INX                             A:80 X:DA Y:80 P:27 SP:FB PPU:8064,24192,CYC: 8064
D7EC  A9 81     LDA #$81                        A:80 X:DB Y:80 P:A5 SP:FB PPU:8066,24198,CYC: 8066
D7EE  8D 78 06  STA $0678 = 80                  A:81 X:DB Y:80 P:A5 SP:FB PPU:8068,24204,CYC: 8068
D7F1  CC 78 06  CPY $0678 = 81                  A:81 X:DB Y:80 P:A5 SP:FB PPU:8072,24216,CYC: 8072
D7F4  20 1D F9  JSR $F91D                       A:81 X:DB Y:80 P:A4 SP:FB PPU:8076,24228,CYC: 8076
F91D  B0 05     BCS $F924                       A:81 X:DB Y:80 P:A4 SP:F9 PPU:8082,24246,CYC: 8082
F91F  F0 03     BEQ $F924                       A:81 X:DB Y:80 P:A4 SP:F9 PPU:8084,24252,CYC: 8084
F921  10 01     BPL $F924                       A:81 X:DB Y:80 P:A4 SP:F9 PPU:8086,24258,CYC: 8086
F923  60        RTS                             A:81 X:DB Y:80 P:A4 SP:F9 PPU:8088,24264,CYC: 8088
D7F7  E8        INX                             A:81 X:DB Y:80 P:A4 SP:FB PPU:8094,24282,CYC: 8094
D7F8  A9 7F     LDA #$7F                        A:81 X:DC Y:80 P:A4 SP:FB PPU:8096,24288,CYC: 8096
D7FA  8D 78 06  STA $0678 = 81                  A:7F X:DC Y:80 P:24 SP:FB PPU:8098,24294,CYC: 8098
D7FD  CC 78 06  CPY $0678 = 7F                  A:7F X:DC Y:80 P:24 SP:FB PPU:8102,24306,CYC: 8102
D800  20 27 F9  JSR $F927                       A:7F X:DC Y:80 P:25 SP:FB PPU:8106,24318,CYC: 8106
F927  90 05     BCC $F92E                       A:7F X:DC Y:80 P:25 SP:F9 PPU:8112,24336,CYC: 8112
F929  F0 03     BEQ $F92E                       A:7F X:DC Y:80 P:25 SP:F9 PPU:8114,24342,CYC: 8114
F92B  30 01     BMI $F92E                       A:7F X:DC Y:80 P:25 SP:F9 PPU:8116,24348,CYC: 8116
F92D  60        RTS                             A:7F X:DC Y:80 P:25 SP:F9 PPU:8118,24354,CYC: 8118
D803  E8        INX                             A:7F X:DC Y:80 P:25 SP:FB PPU:8124,24372,CYC: 8124
D804  8A        TXA                             A:7F X:DD Y:80 P:A5 SP:FB PPU:8126,24378,CYC: 8126
D805  A8        TAY                             A:DD X:DD Y:80 P:A5 SP:FB PPU:8128,24384,CYC: 8128
D806  20 90 F9  JSR $F990                       A:DD X:DD Y:DD P:A5 SP:FB PPU:8130,24390,CYC: 8130
F990  A2 55     LDX #$55                        A:DD X:DD Y:DD P:A5 SP:F9 PPU:8136,24408,CYC: 8136
F992  A9 FF     LDA #$FF                        A:DD X:55 Y:DD P:25 SP:F9 PPU:8138,24414,CYC: 8138
F994  85 01     STA $01 = FF                    A:FF X:55 Y:DD P:A5 SP:F9 PPU:8140,24420,CYC: 8140
F996  EA        NOP                             A:FF X:55 Y:DD P:A5 SP:F9 PPU:8143,24429,CYC: 8143
F997  24 01     BIT $01 = FF                    A:FF X:55 Y:DD P:A5 SP:F9 PPU:8145,24435,CYC: 8145
F999  38        SEC                             A:FF X:55 Y:DD P:E5 SP:F9 PPU:8148,24444,CYC: 8148
F99A  A9 01     LDA #$01                        A:FF X:55 Y:DD P:E5 SP:F9 PPU:8150,24450,CYC: 8150
F99C  60        RTS                             A:01 X:55 Y:DD P:65 SP:F9 PPU:8152,24456,CYC: 8152
D809  8D 78 06  STA $0678 = 7F                  A:01 X:55 Y:DD P:65 SP:FB PPU:8158,24474,CYC: 8158
D80C  4E 78 06  LSR $0678 = 01                  A:01 X:55 Y:DD P:65 SP:FB PPU:8162,24486,CYC: 8162
D80F  AD 78 06  LDA $0678 = 00                  A:01 X:55 Y:DD P:67 SP:FB PPU:8168,24504,CYC: 8168
D812  20 9D F9  JSR $F99D                       A:00 X:55 Y:DD P:67 SP:FB PPU:8172,24516,CYC: 8172
F99D  90 1B     BCC $F9BA                       A:00 X:55 Y:DD P:67 SP:F9 PPU:8178,24534,CYC: 8178
F99F  D0 19     BNE $F9BA                       A:00 X:55 Y:DD P:67 SP:F9 PPU:8180,24540,CYC: 8180
F9A1  30 17     BMI $F9BA                       A:00 X:55 Y:DD P:67 SP:F9 PPU:8182,24546,CYC: 8182
F9A3  50 15     BVC $F9BA                       A:00 X:55 Y:DD P:67 SP:F9 PPU:8184,24552,CYC: 8184
F9A5  C9 00     CMP #$00                        A:00 X:55 Y:DD P:67 SP:F9 PPU:8186,24558,CYC: 8186
F9A7  D0 11     BNE $F9BA                       A:00 X:55 Y:DD P:67 SP:F9 PPU:8188,24564,CYC: 8188
F9A9  B8        CLV                             A:00 X:55 Y:DD P:67 SP:F9 PPU:8190,24570,CYC: 8190
F9AA  A9 AA     LDA #$AA                        A:00 X:55 Y:DD P:27 SP:F9 PPU:8192,24576,CYC: 8192
F9AC  60        RTS                             A:AA X:55 Y:DD P:A5 SP:F9 PPU:8194,24582,CYC: 8194
D815  C8        INY                             A:AA X:55 Y:DD P:A5 SP:FB PPU:8200,24600,CYC: 8200
D816  8D 78 06  STA $0678 = 00                  A:AA X:55 Y:DE P:A5 SP:FB PPU:8202,24606,CYC: 8202
D819  4E 78 06  LSR $0678 = AA                  A:AA X:55 Y:DE P:A5 SP:FB PPU:8206,24618,CYC: 8206
D81C  AD 78 06  LDA $0678 = 55                  A:AA X:55 Y:DE P:24 SP:FB PPU:8212,24636,CYC: 8212
D81F  20 AD F9  JSR $F9AD                       A:55 X:55 Y:DE P:24 SP:FB PPU:8216,24648,CYC: 8216
F9AD  B0 0B     BCS $F9BA                       A:55 X:55 Y:DE P:24 SP:F9 PPU:8222,24666,CYC: 8222
F9AF  F0 09     BEQ $F9BA                       A:55 X:55 Y:DE P:24 SP:F9 PPU:8224,24672,CYC: 8224
F9B1  30 07     BMI $F9BA                       A:55 X:55 Y:DE P:24 SP:F9 PPU:8226,24678,CYC: 8226
F9B3  70 05     BVS $F9BA                       A:55 X:55 Y:DE P:24 SP:F9 PPU:8228,24684,CYC: 8228
F9B5  C9 55     CMP #$55                        A:55 X:55 Y:DE P:24 SP:F9 PPU:8230,24690,CYC: 8230
F9B7  D0 01     BNE $F9BA                       A:55 X:55 Y:DE P:27 SP:F9 PPU:8232,24696,CYC: 8232
F9B9  60        RTS                             A:55 X:55 Y:DE P:27 SP:F9 PPU:8234,24702,CYC: 8234
D822  C8        INY                             A:55 X:55 Y:DE P:27 SP:FB PPU:8240,24720,CYC: 8240
D823  20 BD F9  JSR $F9BD                       A:55 X:55 Y:DF P:A5 SP:FB PPU:8242,24726,CYC: 8242
F9BD  24 01     BIT $01 = FF                    A:55 X:55 Y:DF P:A5 SP:F9 PPU:8248,24744,CYC: 8248
F9BF  38        SEC                             A:55 X:55 Y:DF P:E5 SP:F9 PPU:8251,24753,CYC: 8251
F9C0  A9 80     LDA #$80                        A:55 X:55 Y:DF P:E5 SP:F9 PPU:8253,24759,CYC: 8253
F9C2  60        RTS                             A:80 X:55 Y:DF P:E5 SP:F9 PPU:8255,24765,CYC: 8255
D826  8D 78 06  STA $0678 = 55                  A:80 X:55 Y:DF P:E5 SP:FB PPU:8261,24783,CYC: 8261
D829  0E 78 06  ASL $0678 = 80                  A:80 X:55 Y:DF P:E5 SP:FB PPU:8265,24795,CYC: 8265
D82C  AD 78 06  LDA $0678 = 00                  A:80 X:55 Y:DF P:67 SP:FB PPU:8271,24813,CYC: 8271
D82F  20 C3 F9  JSR $F9C3                       A:00 X:55 Y:DF P:67 SP:FB PPU:8275,24825,CYC: 8275
F9C3  90 1C     BCC $F9E1                       A:00 X:55 Y:DF P:67 SP:F9 PPU:8281,24843,CYC: 8281
F9C5  D0 1A     BNE $F9E1                       A:00 X:55 Y:DF P:67 SP:F9 PPU:8283,24849,CYC: 8283
F9C7  30 18     BMI $F9E1                       A:00 X:55 Y:DF P:67 SP:F9 PPU:8285,24855,CYC: 8285
F9C9  50 16     BVC $F9E1                       A:00 X:55 Y:DF P:67 SP:F9 PPU:8287,24861,CYC: 8287
F9CB  C9 00     CMP #$00                        A:00 X:55 Y:DF P:67 SP:F9 PPU:8289,24867,CYC: 8289
F9CD  D0 12     BNE $F9E1                       A:00 X:55 Y:DF P:67 SP:F9 PPU:8291,24873,CYC: 8291
F9CF  B8        CLV                             A:00 X:55 Y:DF P:67 SP:F9 PPU:8293,24879,CYC: 8293
F9D0  A9 55     LDA #$55                        A:00 X:55 Y:DF P:27 SP:F9 PPU:8295,24885,CYC: 8295
F9D2  38        SEC                             A:55 X:55 Y:DF P:25 SP:F9 PPU:8297,24891,CYC: 8297
F9D3  60        RTS                             A:55 X:55 Y:DF P:25 SP:F9 PPU:8299,24897,CYC: 8299
D832  C8        INY                             A:55 X:55 Y:DF P:25 SP:FB PPU:8305,24915,CYC: 8305
D833  8D 78 06  STA $0678 = 00                  A:55 X:55 Y:E0 P:A5 SP:FB PPU:8307,24921,CYC: 8307
D836  0E 78 06  ASL $0678 = 55                  A:55 X:55 Y:E0 P:A5 SP:FB PPU:8311,24933,CYC: 8311
D839  AD 78 06  LDA $0678 = AA                  A:55 X:55 Y:E0 P:A4 SP:FB PPU:8317,24951,CYC: 8317
D83C  20 D4 F9  JSR $F9D4                       A:AA X:55 Y:E0 P:A4 SP:FB PPU:8321,24963,CYC: 8321
F9D4  B0 0B     BCS $F9E1                       A:AA X:55 Y:E0 P:A4 SP:F9 PPU:8327,24981,CYC: 8327
F9D6  F0 09     BEQ $F9E1                       A:AA X:55 Y:E0 P:A4 SP:F9 PPU:8329,24987,CYC: 8329
F9D8  10 07     BPL $F9E1                       A:AA X:55 Y:E0 P:A4 SP:F9 PPU:8331,24993,CYC: 8331
F9DA  70 05     BVS $F9E1                       A:AA X:55 Y:E0 P:A4 SP:F9 PPU:8333,24999,CYC: 8333
F9DC  C9 AA     CMP #$AA                        A:AA X:55 Y:E0 P:A4 SP:F9 PPU:8335,25005,CYC: 8335
F9DE  D0 01     BNE $F9E1                       A:AA X:55 Y:E0 P:27 SP:F9 PPU:8337,25011,CYC: 8337
F9E0  60        RTS                             A:AA X:55 Y:E0 P:27 SP:F9 PPU:8339,25017,CYC: 8339
D83F  C8        INY                             A:AA X:55 Y:E0 P:27 SP:FB PPU:8345,25035,CYC: 8345
D840  20 E4 F9  JSR $F9E4                       A:AA X:55 Y:E1 P:A5 SP:FB PPU:8347,25041,CYC: 8347
F9E4  24 01     BIT $01 = FF                    A:AA X:55 Y:E1 P:A5 SP:F9 PPU:8353,25059,CYC: 8353
F9E6  38        SEC                             A:AA X:55 Y:E1 P:E5 SP:F9 PPU:8356,25068,CYC: 8356
F9E7  A9 01     LDA #$01                        A:AA X:55 Y:E1 P:E5 SP:F9 PPU:8358,25074,CYC: 8358
F9E9  60        RTS                             A:01 X:55 Y:E1 P:65 SP:F9 PPU:8360,25080,CYC: 8360
D843  8D 78 06  STA $0678 = AA                  A:01 X:55 Y:E1 P:65 SP:FB PPU:8366,25098,CYC: 8366
D846  6E 78 06  ROR $0678 = 01                  A:01 X:55 Y:E1 P:65 SP:FB PPU:8370,25110,CYC: 8370
D849  AD 78 06  LDA $0678 = 80                  A:01 X:55 Y:E1 P:E5 SP:FB PPU:8376,25128,CYC: 8376
D84C  20 EA F9  JSR $F9EA                       A:80 X:55 Y:E1 P:E5 SP:FB PPU:8380,25140,CYC: 8380
F9EA  90 1C     BCC $FA08                       A:80 X:55 Y:E1 P:E5 SP:F9 PPU:8386,25158,CYC: 8386
F9EC  F0 1A     BEQ $FA08                       A:80 X:55 Y:E1 P:E5 SP:F9 PPU:8388,25164,CYC: 8388
F9EE  10 18     BPL $FA08                       A:80 X:55 Y:E1 P:E5 SP:F9 PPU:8390,25170,CYC: 8390
F9F0  50 16     BVC $FA08                       A:80 X:55 Y:E1 P:E5 SP:F9 PPU:8392,25176,CYC: 8392
F9F2  C9 80     CMP #$80                        A:80 X:55 Y:E1 P:E5 SP:F9 PPU:8394,25182,CYC: 8394
F9F4  D0 12     BNE $FA08                       A:80 X:55 Y:E1 P:67 SP:F9 PPU:8396,25188,CYC: 8396
F9F6  B8        CLV                             A:80 X:55 Y:E1 P:67 SP:F9 PPU:8398,25194,CYC: 8398
F9F7  18        CLC                             A:80 X:55 Y:E1 P:27 SP:F9 PPU:8400,25200,CYC: 8400
F9F8  A9 55     LDA #$55                        A:80 X:55 Y:E1 P:26 SP:F9 PPU:8402,25206,CYC: 8402
F9FA  60        RTS                             A:55 X:55 Y:E1 P:24 SP:F9 PPU:8404,25212,CYC: 8404
D84F  C8        INY                             A:55 X:55 Y:E1 P:24 SP:FB PPU:8410,25230,CYC: 8410
D850  8D 78 06  STA $0678 = 80                  A:55 X:55 Y:E2 P:A4 SP:FB PPU:8412,25236,CYC: 8412
D853  6E 78 06  ROR $0678 = 55                  A:55 X:55 Y:E2 P:A4 SP:FB PPU:8416,25248,CYC: 8416
D856  AD 78 06  LDA $0678 = 2A                  A:55 X:55 Y:E2 P:25 SP:FB PPU:8422,25266,CYC: 8422
D859  20 FB F9  JSR $F9FB                       A:2A X:55 Y:E2 P:25 SP:FB PPU:8426,25278,CYC: 8426
F9FB  90 0B     BCC $FA08                       A:2A X:55 Y:E2 P:25 SP:F9 PPU:8432,25296,CYC: 8432
F9FD  F0 09     BEQ $FA08                       A:2A X:55 Y:E2 P:25 SP:F9 PPU:8434,25302,CYC: 8434
F9FF  30 07     BMI $FA08                       A:2A X:55 Y:E2 P:25 SP:F9 PPU:8436,25308,CYC: 8436
FA01  70 05     BVS $FA08                       A:2A X:55 Y:E2 P:25 SP:F9 PPU:8438,25314,CYC: 8438
FA03  C9 2A     CMP #$2A                        A:2A X:55 Y:E2 P:25 SP:F9 PPU:8440,25320,CYC: 8440
FA05  D0 01     BNE $FA08                       A:2A X:55 Y:E2 P:27 SP:F9 PPU:8442,25326,CYC: 8442
FA07  60        RTS                             A:2A X:55 Y:E2 P:27 SP:F9 PPU:8444,25332,CYC: 8444
D85C  C8        INY                             A:2A X:55 Y:E2 P:27 SP:FB PPU:8450,25350,CYC: 8450
D85D  20 0A FA  JSR $FA0A                       A:2A X:55 Y:E3 P:A5 SP:FB PPU:8452,25356,CYC: 8452
FA0A  24 01     BIT $01 = FF                    A:2A X:55 Y:E3 P:A5 SP:F9 PPU:8458,25374,CYC: 8458
FA0C  38        SEC                             A:2A X:55 Y:E3 P:E5 SP:F9 PPU:8461,25383,CYC: 8461
FA0D  A9 80     LDA #$80                        A:2A X:55 Y:E3 P:E5 SP:F9 PPU:8463,25389,CYC: 8463
FA0F  60        RTS                             A:80 X:55 Y:E3 P:E5 SP:F9 PPU:8465,25395,CYC: 8465
D860  8D 78 06  STA $0678 = 2A                  A:80 X:55 Y:E3 P:E5 SP:FB PPU:8471,25413,CYC: 8471
D863  2E 78 06  ROL $0678 = 80                  A:80 X:55 Y:E3 P:E5 SP:FB PPU:8475,25425,CYC: 8475
D866  AD 78 06  LDA $0678 = 01                  A:80 X:55 Y:E3 P:65 SP:FB PPU:8481,25443,CYC: 8481
D869  20 10 FA  JSR $FA10                       A:01 X:55 Y:E3 P:65 SP:FB PPU:8485,25455,CYC: 8485
FA10  90 1C     BCC $FA2E                       A:01 X:55 Y:E3 P:65 SP:F9 PPU:8491,25473,CYC: 8491
FA12  F0 1A     BEQ $FA2E                       A:01 X:55 Y:E3 P:65 SP:F9 PPU:8493,25479,CYC: 8493
FA14  30 18     BMI $FA2E                       A:01 X:55 Y:E3 P:65 SP:F9 PPU:8495,25485,CYC: 8495
FA16  50 16     BVC $FA2E                       A:01 X:55 Y:E3 P:65 SP:F9 PPU:8497,25491,CYC: 8497
FA18  C9 01     CMP #$01                        A:01 X:55 Y:E3 P:65 SP:F9 PPU:8499,25497,CYC: 8499
FA1A  D0 12     BNE $FA2E                       A:01 X:55 Y:E3 P:67 SP:F9 PPU:8501,25503,CYC: 8501
FA1C  B8        CLV                             A:01 X:55 Y:E3 P:67 SP:F9 PPU:8503,25509,CYC: 8503
FA1D  18        CLC                             A:01 X:55 Y:E3 P:27 SP:F9 PPU:8505,25515,CYC: 8505
FA1E  A9 55     LDA #$55                        A:01 X:55 Y:E3 P:26 SP:F9 PPU:8507,25521,CYC: 8507
FA20  60        RTS                             A:55 X:55 Y:E3 P:24 SP:F9 PPU:8509,25527,CYC: 8509
D86C  C8        INY                             A:55 X:55 Y:E3 P:24 SP:FB PPU:8515,25545,CYC: 8515
D86D  8D 78 06  STA $0678 = 01                  A:55 X:55 Y:E4 P:A4 SP:FB PPU:8517,25551,CYC: 8517
D870  2E 78 06  ROL $0678 = 55                  A:55 X:55 Y:E4 P:A4 SP:FB PPU:8521,25563,CYC: 8521
D873  AD 78 06  LDA $0678 = AA                  A:55 X:55 Y:E4 P:A4 SP:FB PPU:8527,25581,CYC: 8527
D876  20 21 FA  JSR $FA21                       A:AA X:55 Y:E4 P:A4 SP:FB PPU:8531,25593,CYC: 8531
FA21  B0 0B     BCS $FA2E                       A:AA X:55 Y:E4 P:A4 SP:F9 PPU:8537,25611,CYC: 8537
FA23  F0 09     BEQ $FA2E                       A:AA X:55 Y:E4 P:A4 SP:F9 PPU:8539,25617,CYC: 8539
FA25  10 07     BPL $FA2E                       A:AA X:55 Y:E4 P:A4 SP:F9 PPU:8541,25623,CYC: 8541
FA27  70 05     BVS $FA2E                       A:AA X:55 Y:E4 P:A4 SP:F9 PPU:8543,25629,CYC: 8543
FA29  C9 AA     CMP #$AA                        A:AA X:55 Y:E4 P:A4 SP:F9 PPU:8545,25635,CYC: 8545
FA2B  D0 01     BNE $FA2E                       A:AA X:55 Y:E4 P:27 SP:F9 PPU:8547,25641,CYC: 8547
FA2D  60        RTS                             A:AA X:55 Y:E4 P:27 SP:F9 PPU:8549,25647,CYC: 8549
D879  A9 FF     LDA #$FF                        A:AA X:55 Y:E4 P:27 SP:FB PPU:8555,25665,CYC: 8555
D87B  8D 78 06  STA $0678 = AA                  A:FF X:55 Y:E4 P:A5 SP:FB PPU:8557,25671,CYC: 8557
D87E  85 01     STA $01 = FF                    A:FF X:55 Y:E4 P:A5 SP:FB PPU:8561,25683,CYC: 8561
D880  24 01     BIT $01 = FF                    A:FF X:55 Y:E4 P:A5 SP:FB PPU:8564,25692,CYC: 8564
D882  38        SEC                             A:FF X:55 Y:E4 P:E5 SP:FB PPU:8567,25701,CYC: 8567
D883  EE 78 06  INC $0678 = FF                  A:FF X:55 Y:E4 P:E5 SP:FB PPU:8569,25707,CYC: 8569
D886  D0 0D     BNE $D895                       A:FF X:55 Y:E4 P:67 SP:FB PPU:8575,25725,CYC: 8575
D888  30 0B     BMI $D895                       A:FF X:55 Y:E4 P:67 SP:FB PPU:8577,25731,CYC: 8577
D88A  50 09     BVC $D895                       A:FF X:55 Y:E4 P:67 SP:FB PPU:8579,25737,CYC: 8579
D88C  90 07     BCC $D895                       A:FF X:55 Y:E4 P:67 SP:FB PPU:8581,25743,CYC: 8581
D88E  AD 78 06  LDA $0678 = 00                  A:FF X:55 Y:E4 P:67 SP:FB PPU:8583,25749,CYC: 8583
D891  C9 00     CMP #$00                        A:00 X:55 Y:E4 P:67 SP:FB PPU:8587,25761,CYC: 8587
D893  F0 04     BEQ $D899                       A:00 X:55 Y:E4 P:67 SP:FB PPU:8589,25767,CYC: 8589
D899  A9 7F     LDA #$7F                        A:00 X:55 Y:E4 P:67 SP:FB PPU:8592,25776,CYC: 8592
D89B  8D 78 06  STA $0678 = 00                  A:7F X:55 Y:E4 P:65 SP:FB PPU:8594,25782,CYC: 8594
D89E  B8        CLV                             A:7F X:55 Y:E4 P:65 SP:FB PPU:8598,25794,CYC: 8598
D89F  18        CLC                             A:7F X:55 Y:E4 P:25 SP:FB PPU:8600,25800,CYC: 8600
D8A0  EE 78 06  INC $0678 = 7F                  A:7F X:55 Y:E4 P:24 SP:FB PPU:8602,25806,CYC: 8602
D8A3  F0 0D     BEQ $D8B2                       A:7F X:55 Y:E4 P:A4 SP:FB PPU:8608,25824,CYC: 8608
D8A5  10 0B     BPL $D8B2                       A:7F X:55 Y:E4 P:A4 SP:FB PPU:8610,25830,CYC: 8610
D8A7  70 09     BVS $D8B2                       A:7F X:55 Y:E4 P:A4 SP:FB PPU:8612,25836,CYC: 8612
D8A9  B0 07     BCS $D8B2                       A:7F X:55 Y:E4 P:A4 SP:FB PPU:8614,25842,CYC: 8614
D8AB  AD 78 06  LDA $0678 = 80                  A:7F X:55 Y:E4 P:A4 SP:FB PPU:8616,25848,CYC: 8616
D8AE  C9 80     CMP #$80                        A:80 X:55 Y:E4 P:A4 SP:FB PPU:8620,25860,CYC: 8620
D8B0  F0 04     BEQ $D8B6                       A:80 X:55 Y:E4 P:27 SP:FB PPU:8622,25866,CYC: 8622
D8B6  A9 00     LDA #$00                        A:80 X:55 Y:E4 P:27 SP:FB PPU:8625,25875,CYC: 8625
D8B8  8D 78 06  STA $0678 = 80                  A:00 X:55 Y:E4 P:27 SP:FB PPU:8627,25881,CYC: 8627
D8BB  24 01     BIT $01 = FF                    A:00 X:55 Y:E4 P:27 SP:FB PPU:8631,25893,CYC: 8631
D8BD  38        SEC                             A:00 X:55 Y:E4 P:E7 SP:FB PPU:8634,25902,CYC: 8634
D8BE  CE 78 06  DEC $0678 = 00                  A:00 X:55 Y:E4 P:E7 SP:FB PPU:8636,25908,CYC: 8636
D8C1  F0 0D     BEQ $D8D0                       A:00 X:55 Y:E4 P:E5 SP:FB PPU:8642,25926,CYC: 8642
D8C3  10 0B     BPL $D8D0                       A:00 X:55 Y:E4 P:E5 SP:FB PPU:8644,25932,CYC: 8644
D8C5  50 09     BVC $D8D0                       A:00 X:55 Y:E4 P:E5 SP:FB PPU:8646,25938,CYC: 8646
D8C7  90 07     BCC $D8D0                       A:00 X:55 Y:E4 P:E5 SP:FB PPU:8648,25944,CYC: 8648
D8C9  AD 78 06  LDA $0678 = FF                  A:00 X:55 Y:E4 P:E5 SP:FB PPU:8650,25950,CYC: 8650
D8CC  C9 FF     CMP #$FF                        A:FF X:55 Y:E4 P:E5 SP:FB PPU:8654,25962,CYC: 8654
D8CE  F0 04     BEQ $D8D4                       A:FF X:55 Y:E4 P:67 SP:FB PPU:8656,25968,CYC: 8656
D8D4  A9 80     LDA #$80                        A:FF X:55 Y:E4 P:67 SP:FB PPU:8659,25977,CYC: 8659
D8D6  8D 78 06  STA $0678 = FF                  A:80 X:55 Y:E4 P:E5 SP:FB PPU:8661,25983,CYC: 8661
D8D9  B8        CLV                             A:80 X:55 Y:E4 P:E5 SP:FB PPU:8665,25995,CYC: 8665
D8DA  18        CLC                             A:80 X:55 Y:E4 P:A5 SP:FB PPU:8667,26001,CYC: 8667
D8DB  CE 78 06  DEC $0678 = 80                  A:80 X:55 Y:E4 P:A4 SP:FB PPU:8669,26007,CYC: 8669
D8DE  F0 0D     BEQ $D8ED                       A:80 X:55 Y:E4 P:24 SP:FB PPU:8675,26025,CYC: 8675
D8E0  30 0B     BMI $D8ED                       A:80 X:55 Y:E4 P:24 SP:FB PPU:8677,26031,CYC: 8677
D8E2  70 09     BVS $D8ED                       A:80 X:55 Y:E4 P:24 SP:FB PPU:8679,26037,CYC: 8679
D8E4  B0 07     BCS $D8ED                       A:80 X:55 Y:E4 P:24 SP:FB PPU:8681,26043,CYC: 8681
D8E6  AD 78 06  LDA $0678 = 7F                  A:80 X:55 Y:E4 P:24 SP:FB PPU:8683,26049,CYC: 8683
D8E9  C9 7F     CMP #$7F                        A:7F X:55 Y:E4 P:24 SP:FB PPU:8687,26061,CYC: 8687
D8EB  F0 04     BEQ $D8F1                       A:7F X:55 Y:E4 P:27 SP:FB PPU:8689,26067,CYC: 8689
D8F1  A9 01     LDA #$01                        A:7F X:55 Y:E4 P:27 SP:FB PPU:8692,26076,CYC: 8692
D8F3  8D 78 06  STA $0678 = 7F                  A:01 X:55 Y:E4 P:25 SP:FB PPU:8694,26082,CYC: 8694
D8F6  CE 78 06  DEC $0678 = 01                  A:01 X:55 Y:E4 P:25 SP:FB PPU:8698,26094,CYC: 8698
D8F9  F0 04     BEQ $D8FF                       A:01 X:55 Y:E4 P:27 SP:FB PPU:8704,26112,CYC: 8704
D8FF  60        RTS                             A:01 X:55 Y:E4 P:27 SP:FB PPU:8707,26121,CYC: 8707
C618  20 00 D9  JSR $D900                       A:01 X:55 Y:E4 P:27 SP:FD PPU:8713,26139,CYC: 8713
D900  A9 A3     LDA #$A3                        A:01 X:55 Y:E4 P:27 SP:FB PPU:8719,26157,CYC: 8719
D902  85 33     STA $33 = 00                    A:A3 X:55 Y:E4 P:A5 SP:FB PPU:8721,26163,CYC: 8721
D904  A9 89     LDA #$89                        A:A3 X:55 Y:E4 P:A5 SP:FB PPU:8724,26172,CYC: 8724
D906  8D 00 03  STA $0300 = 70                  A:89 X:55 Y:E4 P:A5 SP:FB PPU:8726,26178,CYC: 8726
D909  A9 12     LDA #$12                        A:89 X:55 Y:E4 P:A5 SP:FB PPU:8730,26190,CYC: 8730
D90B  8D 45 02  STA $0245 = 00                  A:12 X:55 Y:E4 P:25 SP:FB PPU:8732,26196,CYC: 8732
D90E  A9 FF     LDA #$FF                        A:12 X:55 Y:E4 P:25 SP:FB PPU:8736,26208,CYC: 8736
D910  85 01     STA $01 = FF                    A:FF X:55 Y:E4 P:A5 SP:FB PPU:8738,26214,CYC: 8738
D912  A2 65     LDX #$65                        A:FF X:55 Y:E4 P:A5 SP:FB PPU:8741,26223,CYC: 8741
D914  A9 00     LDA #$00                        A:FF X:65 Y:E4 P:25 SP:FB PPU:8743,26229,CYC: 8743
D916  85 89     STA $89 = 00                    A:00 X:65 Y:E4 P:27 SP:FB PPU:8745,26235,CYC: 8745
D918  A9 03     LDA #$03                        A:00 X:65 Y:E4 P:27 SP:FB PPU:8748,26244,CYC: 8748
D91A  85 8A     STA $8A = 00                    A:03 X:65 Y:E4 P:25 SP:FB PPU:8750,26250,CYC: 8750
D91C  A0 00     LDY #$00                        A:03 X:65 Y:E4 P:25 SP:FB PPU:8753,26259,CYC: 8753
D91E  38        SEC                             A:03 X:65 Y:00 P:27 SP:FB PPU:8755,26265,CYC: 8755
D91F  A9 00     LDA #$00                        A:03 X:65 Y:00 P:27 SP:FB PPU:8757,26271,CYC: 8757
D921  B8        CLV                             A:00 X:65 Y:00 P:27 SP:FB PPU:8759,26277,CYC: 8759
D922  B1 89     LDA ($89),Y = 0300 @ 0300 = 89  A:00 X:65 Y:00 P:27 SP:FB PPU:8761,26283,CYC: 8761
D924  F0 0C     BEQ $D932                       A:89 X:65 Y:00 P:A5 SP:FB PPU:8766,26298,CYC: 8766
D926  90 0A     BCC $D932                       A:89 X:65 Y:00 P:A5 SP:FB PPU:8768,26304,CYC: 8768
D928  70 08     BVS $D932                       A:89 X:65 Y:00 P:A5 SP:FB PPU:8770,26310,CYC: 8770
D92A  C9 89     CMP #$89                        A:89 X:65 Y:00 P:A5 SP:FB PPU:8772,26316,CYC: 8772
D92C  D0 04     BNE $D932                       A:89 X:65 Y:00 P:27 SP:FB PPU:8774,26322,CYC: 8774
D92E  E0 65     CPX #$65                        A:89 X:65 Y:00 P:27 SP:FB PPU:8776,26328,CYC: 8776
D930  F0 04     BEQ $D936                       A:89 X:65 Y:00 P:27 SP:FB PPU:8778,26334,CYC: 8778
D936  A9 FF     LDA #$FF                        A:89 X:65 Y:00 P:27 SP:FB PPU:8781,26343,CYC: 8781
D938  85 97     STA $97 = 00                    A:FF X:65 Y:00 P:A5 SP:FB PPU:8783,26349,CYC: 8783
D93A  85 98     STA $98 = 00                    A:FF X:65 Y:00 P:A5 SP:FB PPU:8786,26358,CYC: 8786
D93C  24 98     BIT $98 = FF                    A:FF X:65 Y:00 P:A5 SP:FB PPU:8789,26367,CYC: 8789
D93E  A0 34     LDY #$34                        A:FF X:65 Y:00 P:E5 SP:FB PPU:8792,26376,CYC: 8792
D940  B1 97     LDA ($97),Y = FFFF @ 0033 = A3  A:FF X:65 Y:34 P:65 SP:FB PPU:8794,26382,CYC: 8794
D942  C9 A3     CMP #$A3                        A:A3 X:65 Y:34 P:E5 SP:FB PPU:8800,26400,CYC: 8800
D944  D0 02     BNE $D948                       A:A3 X:65 Y:34 P:67 SP:FB PPU:8802,26406,CYC: 8802
D946  B0 04     BCS $D94C                       A:A3 X:65 Y:34 P:67 SP:FB PPU:8804,26412,CYC: 8804
D94C  A5 00     LDA $00 = 00                    A:A3 X:65 Y:34 P:67 SP:FB PPU:8807,26421,CYC: 8807
D94E  48        PHA                             A:00 X:65 Y:34 P:67 SP:FB PPU:8810,26430,CYC: 8810
D94F  A9 46     LDA #$46                        A:00 X:65 Y:34 P:67 SP:FA PPU:8813,26439,CYC: 8813
D951  85 FF     STA $FF = 00                    A:46 X:65 Y:34 P:65 SP:FA PPU:8815,26445,CYC: 8815
D953  A9 01     LDA #$01                        A:46 X:65 Y:34 P:65 SP:FA PPU:8818,26454,CYC: 8818
D955  85 00     STA $00 = 00                    A:01 X:65 Y:34 P:65 SP:FA PPU:8820,26460,CYC: 8820
D957  A0 FF     LDY #$FF                        A:01 X:65 Y:34 P:65 SP:FA PPU:8823,26469,CYC: 8823
D959  B1 FF     LDA ($FF),Y = 0146 @ 0245 = 12  A:01 X:65 Y:FF P:E5 SP:FA PPU:8825,26475,CYC: 8825
D95B  C9 12     CMP #$12                        A:12 X:65 Y:FF P:65 SP:FA PPU:8831,26493,CYC: 8831
D95D  F0 04     BEQ $D963                       A:12 X:65 Y:FF P:67 SP:FA PPU:8833,26499,CYC: 8833
D963  68        PLA                             A:12 X:65 Y:FF P:67 SP:FA PPU:8836,26508,CYC: 8836
D964  85 00     STA $00 = 01                    A:00 X:65 Y:FF P:67 SP:FB PPU:8840,26520,CYC: 8840
D966  A2 ED     LDX #$ED                        A:00 X:65 Y:FF P:67 SP:FB PPU:8843,26529,CYC: 8843
D968  A9 00     LDA #$00                        A:00 X:ED Y:FF P:E5 SP:FB PPU:8845,26535,CYC: 8845
D96A  85 33     STA $33 = A3                    A:00 X:ED Y:FF P:67 SP:FB PPU:8847,26541,CYC: 8847
D96C  A9 04     LDA #$04                        A:00 X:ED Y:FF P:67 SP:FB PPU:8850,26550,CYC: 8850
D96E  85 34     STA $34 = 00                    A:04 X:ED Y:FF P:65 SP:FB PPU:8852,26556,CYC: 8852
D970  A0 00     LDY #$00                        A:04 X:ED Y:FF P:65 SP:FB PPU:8855,26565,CYC: 8855
D972  18        CLC                             A:04 X:ED Y:00 P:67 SP:FB PPU:8857,26571,CYC: 8857
D973  A9 FF     LDA #$FF                        A:04 X:ED Y:00 P:66 SP:FB PPU:8859,26577,CYC: 8859
D975  85 01     STA $01 = FF                    A:FF X:ED Y:00 P:E4 SP:FB PPU:8861,26583,CYC: 8861
D977  24 01     BIT $01 = FF                    A:FF X:ED Y:00 P:E4 SP:FB PPU:8864,26592,CYC: 8864
D979  A9 AA     LDA #$AA                        A:FF X:ED Y:00 P:E4 SP:FB PPU:8867,26601,CYC: 8867
D97B  8D 00 04  STA $0400 = AD                  A:AA X:ED Y:00 P:E4 SP:FB PPU:8869,26607,CYC: 8869
D97E  A9 55     LDA #$55                        A:AA X:ED Y:00 P:E4 SP:FB PPU:8873,26619,CYC: 8873
D980  11 33     ORA ($33),Y = 0400 @ 0400 = AA  A:55 X:ED Y:00 P:64 SP:FB PPU:8875,26625,CYC: 8875
D982  B0 08     BCS $D98C                       A:FF X:ED Y:00 P:E4 SP:FB PPU:8880,26640,CYC: 8880
D984  10 06     BPL $D98C                       A:FF X:ED Y:00 P:E4 SP:FB PPU:8882,26646,CYC: 8882
D986  C9 FF     CMP #$FF                        A:FF X:ED Y:00 P:E4 SP:FB PPU:8884,26652,CYC: 8884
D988  D0 02     BNE $D98C                       A:FF X:ED Y:00 P:67 SP:FB PPU:8886,26658,CYC: 8886
D98A  70 02     BVS $D98E                       A:FF X:ED Y:00 P:67 SP:FB PPU:8888,26664,CYC: 8888
D98E  E8        INX                             A:FF X:ED Y:00 P:67 SP:FB PPU:8891,26673,CYC: 8891
D98F  38        SEC                             A:FF X:EE Y:00 P:E5 SP:FB PPU:8893,26679,CYC: 8893
D990  B8        CLV                             A:FF X:EE Y:00 P:E5 SP:FB PPU:8895,26685,CYC: 8895
D991  A9 00     LDA #$00                        A:FF X:EE Y:00 P:A5 SP:FB PPU:8897,26691,CYC: 8897
D993  11 33     ORA ($33),Y = 0400 @ 0400 = AA  A:00 X:EE Y:00 P:27 SP:FB PPU:8899,26697,CYC: 8899
D995  F0 06     BEQ $D99D                       A:AA X:EE Y:00 P:A5 SP:FB PPU:8904,26712,CYC: 8904
D997  70 04     BVS $D99D                       A:AA X:EE Y:00 P:A5 SP:FB PPU:8906,26718,CYC: 8906
D999  90 02     BCC $D99D                       A:AA X:EE Y:00 P:A5 SP:FB PPU:8908,26724,CYC: 8908
D99B  30 02     BMI $D99F                       A:AA X:EE Y:00 P:A5 SP:FB PPU:8910,26730,CYC: 8910
D99F  E8        INX                             A:AA X:EE Y:00 P:A5 SP:FB PPU:8913,26739,CYC: 8913
D9A0  18        CLC                             A:AA X:EF Y:00 P:A5 SP:FB PPU:8915,26745,CYC: 8915
D9A1  24 01     BIT $01 = FF                    A:AA X:EF Y:00 P:A4 SP:FB PPU:8917,26751,CYC: 8917
D9A3  A9 55     LDA #$55                        A:AA X:EF Y:00 P:E4 SP:FB PPU:8920,26760,CYC: 8920
D9A5  31 33     AND ($33),Y = 0400 @ 0400 = AA  A:55 X:EF Y:00 P:64 SP:FB PPU:8922,26766,CYC: 8922
D9A7  D0 06     BNE $D9AF                       A:00 X:EF Y:00 P:66 SP:FB PPU:8927,26781,CYC: 8927
D9A9  50 04     BVC $D9AF                       A:00 X:EF Y:00 P:66 SP:FB PPU:8929,26787,CYC: 8929
D9AB  B0 02     BCS $D9AF                       A:00 X:EF Y:00 P:66 SP:FB PPU:8931,26793,CYC: 8931
D9AD  10 02     BPL $D9B1                       A:00 X:EF Y:00 P:66 SP:FB PPU:8933,26799,CYC: 8933
D9B1  E8        INX                             A:00 X:EF Y:00 P:66 SP:FB PPU:8936,26808,CYC: 8936
D9B2  38        SEC                             A:00 X:F0 Y:00 P:E4 SP:FB PPU:8938,26814,CYC: 8938
D9B3  B8        CLV                             A:00 X:F0 Y:00 P:E5 SP:FB PPU:8940,26820,CYC: 8940
D9B4  A9 EF     LDA #$EF                        A:00 X:F0 Y:00 P:A5 SP:FB PPU:8942,26826,CYC: 8942
D9B6  8D 00 04  STA $0400 = AA                  A:EF X:F0 Y:00 P:A5 SP:FB PPU:8944,26832,CYC: 8944
D9B9  A9 F8     LDA #$F8                        A:EF X:F0 Y:00 P:A5 SP:FB PPU:8948,26844,CYC: 8948
D9BB  31 33     AND ($33),Y = 0400 @ 0400 = EF  A:F8 X:F0 Y:00 P:A5 SP:FB PPU:8950,26850,CYC: 8950
D9BD  90 08     BCC $D9C7                       A:E8 X:F0 Y:00 P:A5 SP:FB PPU:8955,26865,CYC: 8955
D9BF  10 06     BPL $D9C7                       A:E8 X:F0 Y:00 P:A5 SP:FB PPU:8957,26871,CYC: 8957
D9C1  C9 E8     CMP #$E8                        A:E8 X:F0 Y:00 P:A5 SP:FB PPU:8959,26877,CYC: 8959
D9C3  D0 02     BNE $D9C7                       A:E8 X:F0 Y:00 P:27 SP:FB PPU:8961,26883,CYC: 8961
D9C5  50 02     BVC $D9C9                       A:E8 X:F0 Y:00 P:27 SP:FB PPU:8963,26889,CYC: 8963
D9C9  E8        INX                             A:E8 X:F0 Y:00 P:27 SP:FB PPU:8966,26898,CYC: 8966
D9CA  18        CLC                             A:E8 X:F1 Y:00 P:A5 SP:FB PPU:8968,26904,CYC: 8968
D9CB  24 01     BIT $01 = FF                    A:E8 X:F1 Y:00 P:A4 SP:FB PPU:8970,26910,CYC: 8970
D9CD  A9 AA     LDA #$AA                        A:E8 X:F1 Y:00 P:E4 SP:FB PPU:8973,26919,CYC: 8973
D9CF  8D 00 04  STA $0400 = EF                  A:AA X:F1 Y:00 P:E4 SP:FB PPU:8975,26925,CYC: 8975
D9D2  A9 5F     LDA #$5F                        A:AA X:F1 Y:00 P:E4 SP:FB PPU:8979,26937,CYC: 8979
D9D4  51 33     EOR ($33),Y = 0400 @ 0400 = AA  A:5F X:F1 Y:00 P:64 SP:FB PPU:8981,26943,CYC: 8981
D9D6  B0 08     BCS $D9E0                       A:F5 X:F1 Y:00 P:E4 SP:FB PPU:8986,26958,CYC: 8986
D9D8  10 06     BPL $D9E0                       A:F5 X:F1 Y:00 P:E4 SP:FB PPU:8988,26964,CYC: 8988
D9DA  C9 F5     CMP #$F5                        A:F5 X:F1 Y:00 P:E4 SP:FB PPU:8990,26970,CYC: 8990
D9DC  D0 02     BNE $D9E0                       A:F5 X:F1 Y:00 P:67 SP:FB PPU:8992,26976,CYC: 8992
D9DE  70 02     BVS $D9E2                       A:F5 X:F1 Y:00 P:67 SP:FB PPU:8994,26982,CYC: 8994
D9E2  E8        INX                             A:F5 X:F1 Y:00 P:67 SP:FB PPU:8997,26991,CYC: 8997
D9E3  38        SEC                             A:F5 X:F2 Y:00 P:E5 SP:FB PPU:8999,26997,CYC: 8999
D9E4  B8        CLV                             A:F5 X:F2 Y:00 P:E5 SP:FB PPU:9001,27003,CYC: 9001
D9E5  A9 70     LDA #$70                        A:F5 X:F2 Y:00 P:A5 SP:FB PPU:9003,27009,CYC: 9003
D9E7  8D 00 04  STA $0400 = AA                  A:70 X:F2 Y:00 P:25 SP:FB PPU:9005,27015,CYC: 9005
D9EA  51 33     EOR ($33),Y = 0400 @ 0400 = 70  A:70 X:F2 Y:00 P:25 SP:FB PPU:9009,27027,CYC: 9009
D9EC  D0 06     BNE $D9F4                       A:00 X:F2 Y:00 P:27 SP:FB PPU:9014,27042,CYC: 9014
D9EE  70 04     BVS $D9F4                       A:00 X:F2 Y:00 P:27 SP:FB PPU:9016,27048,CYC: 9016
D9F0  90 02     BCC $D9F4                       A:00 X:F2 Y:00 P:27 SP:FB PPU:9018,27054,CYC: 9018
D9F2  10 02     BPL $D9F6                       A:00 X:F2 Y:00 P:27 SP:FB PPU:9020,27060,CYC: 9020
D9F6  E8        INX                             A:00 X:F2 Y:00 P:27 SP:FB PPU:9023,27069,CYC: 9023
D9F7  18        CLC                             A:00 X:F3 Y:00 P:A5 SP:FB PPU:9025,27075,CYC: 9025
D9F8  24 01     BIT $01 = FF                    A:00 X:F3 Y:00 P:A4 SP:FB PPU:9027,27081,CYC: 9027
D9FA  A9 69     LDA #$69                        A:00 X:F3 Y:00 P:E6 SP:FB PPU:9030,27090,CYC: 9030
D9FC  8D 00 04  STA $0400 = 70                  A:69 X:F3 Y:00 P:64 SP:FB PPU:9032,27096,CYC: 9032
D9FF  A9 00     LDA #$00                        A:69 X:F3 Y:00 P:64 SP:FB PPU:9036,27108,CYC: 9036
DA01  71 33     ADC ($33),Y = 0400 @ 0400 = 69  A:00 X:F3 Y:00 P:66 SP:FB PPU:9038,27114,CYC: 9038
DA03  30 08     BMI $DA0D                       A:69 X:F3 Y:00 P:24 SP:FB PPU:9043,27129,CYC: 9043
DA05  B0 06     BCS $DA0D                       A:69 X:F3 Y:00 P:24 SP:FB PPU:9045,27135,CYC: 9045
DA07  C9 69     CMP #$69                        A:69 X:F3 Y:00 P:24 SP:FB PPU:9047,27141,CYC: 9047
DA09  D0 02     BNE $DA0D                       A:69 X:F3 Y:00 P:27 SP:FB PPU:9049,27147,CYC: 9049
DA0B  50 02     BVC $DA0F                       A:69 X:F3 Y:00 P:27 SP:FB PPU:9051,27153,CYC: 9051
DA0F  E8        INX                             A:69 X:F3 Y:00 P:27 SP:FB PPU:9054,27162,CYC: 9054
DA10  38        SEC                             A:69 X:F4 Y:00 P:A5 SP:FB PPU:9056,27168,CYC: 9056
DA11  24 01     BIT $01 = FF                    A:69 X:F4 Y:00 P:A5 SP:FB PPU:9058,27174,CYC: 9058
DA13  A9 00     LDA #$00                        A:69 X:F4 Y:00 P:E5 SP:FB PPU:9061,27183,CYC: 9061
DA15  71 33     ADC ($33),Y = 0400 @ 0400 = 69  A:00 X:F4 Y:00 P:67 SP:FB PPU:9063,27189,CYC: 9063
DA17  30 08     BMI $DA21                       A:6A X:F4 Y:00 P:24 SP:FB PPU:9068,27204,CYC: 9068
DA19  B0 06     BCS $DA21                       A:6A X:F4 Y:00 P:24 SP:FB PPU:9070,27210,CYC: 9070
DA1B  C9 6A     CMP #$6A                        A:6A X:F4 Y:00 P:24 SP:FB PPU:9072,27216,CYC: 9072
DA1D  D0 02     BNE $DA21                       A:6A X:F4 Y:00 P:27 SP:FB PPU:9074,27222,CYC: 9074
DA1F  50 02     BVC $DA23                       A:6A X:F4 Y:00 P:27 SP:FB PPU:9076,27228,CYC: 9076
DA23  E8        INX                             A:6A X:F4 Y:00 P:27 SP:FB PPU:9079,27237,CYC: 9079
DA24  38        SEC                             A:6A X:F5 Y:00 P:A5 SP:FB PPU:9081,27243,CYC: 9081
DA25  B8        CLV                             A:6A X:F5 Y:00 P:A5 SP:FB PPU:9083,27249,CYC: 9083
DA26  A9 7F     LDA #$7F                        A:6A X:F5 Y:00 P:A5 SP:FB PPU:9085,27255,CYC: 9085
DA28  8D 00 04  STA $0400 = 69                  A:7F X:F5 Y:00 P:25 SP:FB PPU:9087,27261,CYC: 9087
DA2B  71 33     ADC ($33),Y = 0400 @ 0400 = 7F  A:7F X:F5 Y:00 P:25 SP:FB PPU:9091,27273,CYC: 9091
DA2D  10 08     BPL $DA37                       A:FF X:F5 Y:00 P:E4 SP:FB PPU:9096,27288,CYC: 9096
DA2F  B0 06     BCS $DA37                       A:FF X:F5 Y:00 P:E4 SP:FB PPU:9098,27294,CYC: 9098
DA31  C9 FF     CMP #$FF                        A:FF X:F5 Y:00 P:E4 SP:FB PPU:9100,27300,CYC: 9100
DA33  D0 02     BNE $DA37                       A:FF X:F5 Y:00 P:67 SP:FB PPU:9102,27306,CYC: 9102
DA35  70 02     BVS $DA39                       A:FF X:F5 Y:00 P:67 SP:FB PPU:9104,27312,CYC: 9104
DA39  E8        INX                             A:FF X:F5 Y:00 P:67 SP:FB PPU:9107,27321,CYC: 9107
DA3A  18        CLC                             A:FF X:F6 Y:00 P:E5 SP:FB PPU:9109,27327,CYC: 9109
DA3B  24 01     BIT $01 = FF                    A:FF X:F6 Y:00 P:E4 SP:FB PPU:9111,27333,CYC: 9111
DA3D  A9 80     LDA #$80                        A:FF X:F6 Y:00 P:E4 SP:FB PPU:9114,27342,CYC: 9114
DA3F  8D 00 04  STA $0400 = 7F                  A:80 X:F6 Y:00 P:E4 SP:FB PPU:9116,27348,CYC: 9116
DA42  A9 7F     LDA #$7F                        A:80 X:F6 Y:00 P:E4 SP:FB PPU:9120,27360,CYC: 9120
DA44  71 33     ADC ($33),Y = 0400 @ 0400 = 80  A:7F X:F6 Y:00 P:64 SP:FB PPU:9122,27366,CYC: 9122
DA46  10 08     BPL $DA50                       A:FF X:F6 Y:00 P:A4 SP:FB PPU:9127,27381,CYC: 9127
DA48  B0 06     BCS $DA50                       A:FF X:F6 Y:00 P:A4 SP:FB PPU:9129,27387,CYC: 9129
DA4A  C9 FF     CMP #$FF                        A:FF X:F6 Y:00 P:A4 SP:FB PPU:9131,27393,CYC: 9131
DA4C  D0 02     BNE $DA50                       A:FF X:F6 Y:00 P:27 SP:FB PPU:9133,27399,CYC: 9133
DA4E  50 02     BVC $DA52                       A:FF X:F6 Y:00 P:27 SP:FB PPU:9135,27405,CYC: 9135
DA52  E8        INX                             A:FF X:F6 Y:00 P:27 SP:FB PPU:9138,27414,CYC: 9138
DA53  38        SEC                             A:FF X:F7 Y:00 P:A5 SP:FB PPU:9140,27420,CYC: 9140
DA54  B8        CLV                             A:FF X:F7 Y:00 P:A5 SP:FB PPU:9142,27426,CYC: 9142
DA55  A9 80     LDA #$80                        A:FF X:F7 Y:00 P:A5 SP:FB PPU:9144,27432,CYC: 9144
DA57  8D 00 04  STA $0400 = 80                  A:80 X:F7 Y:00 P:A5 SP:FB PPU:9146,27438,CYC: 9146
DA5A  A9 7F     LDA #$7F                        A:80 X:F7 Y:00 P:A5 SP:FB PPU:9150,27450,CYC: 9150
DA5C  71 33     ADC ($33),Y = 0400 @ 0400 = 80  A:7F X:F7 Y:00 P:25 SP:FB PPU:9152,27456,CYC: 9152
DA5E  D0 06     BNE $DA66                       A:00 X:F7 Y:00 P:27 SP:FB PPU:9157,27471,CYC: 9157
DA60  30 04     BMI $DA66                       A:00 X:F7 Y:00 P:27 SP:FB PPU:9159,27477,CYC: 9159
DA62  70 02     BVS $DA66                       A:00 X:F7 Y:00 P:27 SP:FB PPU:9161,27483,CYC: 9161
DA64  B0 02     BCS $DA68                       A:00 X:F7 Y:00 P:27 SP:FB PPU:9163,27489,CYC: 9163
DA68  E8        INX                             A:00 X:F7 Y:00 P:27 SP:FB PPU:9166,27498,CYC: 9166
DA69  24 01     BIT $01 = FF                    A:00 X:F8 Y:00 P:A5 SP:FB PPU:9168,27504,CYC: 9168
DA6B  A9 40     LDA #$40                        A:00 X:F8 Y:00 P:E7 SP:FB PPU:9171,27513,CYC: 9171
DA6D  8D 00 04  STA $0400 = 80                  A:40 X:F8 Y:00 P:65 SP:FB PPU:9173,27519,CYC: 9173
DA70  D1 33     CMP ($33),Y = 0400 @ 0400 = 40  A:40 X:F8 Y:00 P:65 SP:FB PPU:9177,27531,CYC: 9177
DA72  30 06     BMI $DA7A                       A:40 X:F8 Y:00 P:67 SP:FB PPU:9182,27546,CYC: 9182
DA74  90 04     BCC $DA7A                       A:40 X:F8 Y:00 P:67 SP:FB PPU:9184,27552,CYC: 9184
DA76  D0 02     BNE $DA7A                       A:40 X:F8 Y:00 P:67 SP:FB PPU:9186,27558,CYC: 9186
DA78  70 02     BVS $DA7C                       A:40 X:F8 Y:00 P:67 SP:FB PPU:9188,27564,CYC: 9188
DA7C  E8        INX                             A:40 X:F8 Y:00 P:67 SP:FB PPU:9191,27573,CYC: 9191
DA7D  B8        CLV                             A:40 X:F9 Y:00 P:E5 SP:FB PPU:9193,27579,CYC: 9193
DA7E  CE 00 04  DEC $0400 = 40                  A:40 X:F9 Y:00 P:A5 SP:FB PPU:9195,27585,CYC: 9195
DA81  D1 33     CMP ($33),Y = 0400 @ 0400 = 3F  A:40 X:F9 Y:00 P:25 SP:FB PPU:9201,27603,CYC: 9201
DA83  F0 06     BEQ $DA8B                       A:40 X:F9 Y:00 P:25 SP:FB PPU:9206,27618,CYC: 9206
DA85  30 04     BMI $DA8B                       A:40 X:F9 Y:00 P:25 SP:FB PPU:9208,27624,CYC: 9208
DA87  90 02     BCC $DA8B                       A:40 X:F9 Y:00 P:25 SP:FB PPU:9210,27630,CYC: 9210
DA89  50 02     BVC $DA8D                       A:40 X:F9 Y:00 P:25 SP:FB PPU:9212,27636,CYC: 9212
DA8D  E8        INX                             A:40 X:F9 Y:00 P:25 SP:FB PPU:9215,27645,CYC: 9215
DA8E  EE 00 04  INC $0400 = 3F                  A:40 X:FA Y:00 P:A5 SP:FB PPU:9217,27651,CYC: 9217
DA91  EE 00 04  INC $0400 = 40                  A:40 X:FA Y:00 P:25 SP:FB PPU:9223,27669,CYC: 9223
DA94  D1 33     CMP ($33),Y = 0400 @ 0400 = 41  A:40 X:FA Y:00 P:25 SP:FB PPU:9229,27687,CYC: 9229
DA96  F0 02     BEQ $DA9A                       A:40 X:FA Y:00 P:A4 SP:FB PPU:9234,27702,CYC: 9234
DA98  30 02     BMI $DA9C                       A:40 X:FA Y:00 P:A4 SP:FB PPU:9236,27708,CYC: 9236
DA9C  E8        INX                             A:40 X:FA Y:00 P:A4 SP:FB PPU:9239,27717,CYC: 9239
DA9D  A9 00     LDA #$00                        A:40 X:FB Y:00 P:A4 SP:FB PPU:9241,27723,CYC: 9241
DA9F  8D 00 04  STA $0400 = 41                  A:00 X:FB Y:00 P:26 SP:FB PPU:9243,27729,CYC: 9243
DAA2  A9 80     LDA #$80                        A:00 X:FB Y:00 P:26 SP:FB PPU:9247,27741,CYC: 9247
DAA4  D1 33     CMP ($33),Y = 0400 @ 0400 = 00  A:80 X:FB Y:00 P:A4 SP:FB PPU:9249,27747,CYC: 9249
DAA6  F0 04     BEQ $DAAC                       A:80 X:FB Y:00 P:A5 SP:FB PPU:9254,27762,CYC: 9254
DAA8  10 02     BPL $DAAC                       A:80 X:FB Y:00 P:A5 SP:FB PPU:9256,27768,CYC: 9256
DAAA  B0 02     BCS $DAAE                       A:80 X:FB Y:00 P:A5 SP:FB PPU:9258,27774,CYC: 9258
DAAE  E8        INX                             A:80 X:FB Y:00 P:A5 SP:FB PPU:9261,27783,CYC: 9261
DAAF  A0 80     LDY #$80                        A:80 X:FC Y:00 P:A5 SP:FB PPU:9263,27789,CYC: 9263
DAB1  8C 00 04  STY $0400 = 00                  A:80 X:FC Y:80 P:A5 SP:FB PPU:9265,27795,CYC: 9265
DAB4  A0 00     LDY #$00                        A:80 X:FC Y:80 P:A5 SP:FB PPU:9269,27807,CYC: 9269
DAB6  D1 33     CMP ($33),Y = 0400 @ 0400 = 80  A:80 X:FC Y:00 P:27 SP:FB PPU:9271,27813,CYC: 9271
DAB8  D0 04     BNE $DABE                       A:80 X:FC Y:00 P:27 SP:FB PPU:9276,27828,CYC: 9276
DABA  30 02     BMI $DABE                       A:80 X:FC Y:00 P:27 SP:FB PPU:9278,27834,CYC: 9278
DABC  B0 02     BCS $DAC0                       A:80 X:FC Y:00 P:27 SP:FB PPU:9280,27840,CYC: 9280
DAC0  E8        INX                             A:80 X:FC Y:00 P:27 SP:FB PPU:9283,27849,CYC: 9283
DAC1  EE 00 04  INC $0400 = 80                  A:80 X:FD Y:00 P:A5 SP:FB PPU:9285,27855,CYC: 9285
DAC4  D1 33     CMP ($33),Y = 0400 @ 0400 = 81  A:80 X:FD Y:00 P:A5 SP:FB PPU:9291,27873,CYC: 9291
DAC6  B0 04     BCS $DACC                       A:80 X:FD Y:00 P:A4 SP:FB PPU:9296,27888,CYC: 9296
DAC8  F0 02     BEQ $DACC                       A:80 X:FD Y:00 P:A4 SP:FB PPU:9298,27894,CYC: 9298
DACA  30 02     BMI $DACE                       A:80 X:FD Y:00 P:A4 SP:FB PPU:9300,27900,CYC: 9300
DACE  E8        INX                             A:80 X:FD Y:00 P:A4 SP:FB PPU:9303,27909,CYC: 9303
DACF  CE 00 04  DEC $0400 = 81                  A:80 X:FE Y:00 P:A4 SP:FB PPU:9305,27915,CYC: 9305
DAD2  CE 00 04  DEC $0400 = 80                  A:80 X:FE Y:00 P:A4 SP:FB PPU:9311,27933,CYC: 9311
DAD5  D1 33     CMP ($33),Y = 0400 @ 0400 = 7F  A:80 X:FE Y:00 P:24 SP:FB PPU:9317,27951,CYC: 9317
DAD7  90 04     BCC $DADD                       A:80 X:FE Y:00 P:25 SP:FB PPU:9322,27966,CYC: 9322
DAD9  F0 02     BEQ $DADD                       A:80 X:FE Y:00 P:25 SP:FB PPU:9324,27972,CYC: 9324
DADB  10 02     BPL $DADF                       A:80 X:FE Y:00 P:25 SP:FB PPU:9326,27978,CYC: 9326
DADF  60        RTS                             A:80 X:FE Y:00 P:25 SP:FB PPU:9329,27987,CYC: 9329
C61B  A5 00     LDA $00 = 00                    A:80 X:FE Y:00 P:25 SP:FD PPU:9335,28005,CYC: 9335
C61D  85 10     STA $10 = 00                    A:00 X:FE Y:00 P:27 SP:FD PPU:9338,28014,CYC: 9338
C61F  A9 00     LDA #$00                        A:00 X:FE Y:00 P:27 SP:FD PPU:9341,28023,CYC: 9341
C621  85 00     STA $00 = 00                    A:00 X:FE Y:00 P:27 SP:FD PPU:9343,28029,CYC: 9343
C623  20 E0 DA  JSR $DAE0                       A:00 X:FE Y:00 P:27 SP:FD PPU:9346,28038,CYC: 9346
DAE0  A9 00     LDA #$00                        A:00 X:FE Y:00 P:27 SP:FB PPU:9352,28056,CYC: 9352
DAE2  85 33     STA $33 = 00                    A:00 X:FE Y:00 P:27 SP:FB PPU:9354,28062,CYC: 9354
DAE4  A9 04     LDA #$04                        A:00 X:FE Y:00 P:27 SP:FB PPU:9357,28071,CYC: 9357
DAE6  85 34     STA $34 = 04                    A:04 X:FE Y:00 P:25 SP:FB PPU:9359,28077,CYC: 9359
DAE8  A0 00     LDY #$00                        A:04 X:FE Y:00 P:25 SP:FB PPU:9362,28086,CYC: 9362
DAEA  A2 01     LDX #$01                        A:04 X:FE Y:00 P:27 SP:FB PPU:9364,28092,CYC: 9364
DAEC  24 01     BIT $01 = FF                    A:04 X:01 Y:00 P:25 SP:FB PPU:9366,28098,CYC: 9366
DAEE  A9 40     LDA #$40                        A:04 X:01 Y:00 P:E5 SP:FB PPU:9369,28107,CYC: 9369
DAF0  8D 00 04  STA $0400 = 7F                  A:40 X:01 Y:00 P:65 SP:FB PPU:9371,28113,CYC: 9371
DAF3  38        SEC                             A:40 X:01 Y:00 P:65 SP:FB PPU:9375,28125,CYC: 9375
DAF4  F1 33     SBC ($33),Y = 0400 @ 0400 = 40  A:40 X:01 Y:00 P:65 SP:FB PPU:9377,28131,CYC: 9377
DAF6  30 0A     BMI $DB02                       A:00 X:01 Y:00 P:27 SP:FB PPU:9382,28146,CYC: 9382
DAF8  90 08     BCC $DB02                       A:00 X:01 Y:00 P:27 SP:FB PPU:9384,28152,CYC: 9384
DAFA  D0 06     BNE $DB02                       A:00 X:01 Y:00 P:27 SP:FB PPU:9386,28158,CYC: 9386
DAFC  70 04     BVS $DB02                       A:00 X:01 Y:00 P:27 SP:FB PPU:9388,28164,CYC: 9388
DAFE  C9 00     CMP #$00                        A:00 X:01 Y:00 P:27 SP:FB PPU:9390,28170,CYC: 9390
DB00  F0 02     BEQ $DB04                       A:00 X:01 Y:00 P:27 SP:FB PPU:9392,28176,CYC: 9392
DB04  E8        INX                             A:00 X:01 Y:00 P:27 SP:FB PPU:9395,28185,CYC: 9395
DB05  B8        CLV                             A:00 X:02 Y:00 P:25 SP:FB PPU:9397,28191,CYC: 9397
DB06  38        SEC                             A:00 X:02 Y:00 P:25 SP:FB PPU:9399,28197,CYC: 9399
DB07  A9 40     LDA #$40                        A:00 X:02 Y:00 P:25 SP:FB PPU:9401,28203,CYC: 9401
DB09  CE 00 04  DEC $0400 = 40                  A:40 X:02 Y:00 P:25 SP:FB PPU:9403,28209,CYC: 9403
DB0C  F1 33     SBC ($33),Y = 0400 @ 0400 = 3F  A:40 X:02 Y:00 P:25 SP:FB PPU:9409,28227,CYC: 9409
DB0E  F0 0A     BEQ $DB1A                       A:01 X:02 Y:00 P:25 SP:FB PPU:9414,28242,CYC: 9414
DB10  30 08     BMI $DB1A                       A:01 X:02 Y:00 P:25 SP:FB PPU:9416,28248,CYC: 9416
DB12  90 06     BCC $DB1A                       A:01 X:02 Y:00 P:25 SP:FB PPU:9418,28254,CYC: 9418
DB14  70 04     BVS $DB1A                       A:01 X:02 Y:00 P:25 SP:FB PPU:9420,28260,CYC: 9420
DB16  C9 01     CMP #$01                        A:01 X:02 Y:00 P:25 SP:FB PPU:9422,28266,CYC: 9422
DB18  F0 02     BEQ $DB1C                       A:01 X:02 Y:00 P:27 SP:FB PPU:9424,28272,CYC: 9424
DB1C  E8        INX                             A:01 X:02 Y:00 P:27 SP:FB PPU:9427,28281,CYC: 9427
DB1D  A9 40     LDA #$40                        A:01 X:03 Y:00 P:25 SP:FB PPU:9429,28287,CYC: 9429
DB1F  38        SEC                             A:40 X:03 Y:00 P:25 SP:FB PPU:9431,28293,CYC: 9431
DB20  24 01     BIT $01 = FF                    A:40 X:03 Y:00 P:25 SP:FB PPU:9433,28299,CYC: 9433
DB22  EE 00 04  INC $0400 = 3F                  A:40 X:03 Y:00 P:E5 SP:FB PPU:9436,28308,CYC: 9436
DB25  EE 00 04  INC $0400 = 40                  A:40 X:03 Y:00 P:65 SP:FB PPU:9442,28326,CYC: 9442
DB28  F1 33     SBC ($33),Y = 0400 @ 0400 = 41  A:40 X:03 Y:00 P:65 SP:FB PPU:9448,28344,CYC: 9448
DB2A  B0 0A     BCS $DB36                       A:FF X:03 Y:00 P:A4 SP:FB PPU:9453,28359,CYC: 9453
DB2C  F0 08     BEQ $DB36                       A:FF X:03 Y:00 P:A4 SP:FB PPU:9455,28365,CYC: 9455
DB2E  10 06     BPL $DB36                       A:FF X:03 Y:00 P:A4 SP:FB PPU:9457,28371,CYC: 9457
DB30  70 04     BVS $DB36                       A:FF X:03 Y:00 P:A4 SP:FB PPU:9459,28377,CYC: 9459
DB32  C9 FF     CMP #$FF                        A:FF X:03 Y:00 P:A4 SP:FB PPU:9461,28383,CYC: 9461
DB34  F0 02     BEQ $DB38                       A:FF X:03 Y:00 P:27 SP:FB PPU:9463,28389,CYC: 9463
DB38  E8        INX                             A:FF X:03 Y:00 P:27 SP:FB PPU:9466,28398,CYC: 9466
DB39  18        CLC                             A:FF X:04 Y:00 P:25 SP:FB PPU:9468,28404,CYC: 9468
DB3A  A9 00     LDA #$00                        A:FF X:04 Y:00 P:24 SP:FB PPU:9470,28410,CYC: 9470
DB3C  8D 00 04  STA $0400 = 41                  A:00 X:04 Y:00 P:26 SP:FB PPU:9472,28416,CYC: 9472
DB3F  A9 80     LDA #$80                        A:00 X:04 Y:00 P:26 SP:FB PPU:9476,28428,CYC: 9476
DB41  F1 33     SBC ($33),Y = 0400 @ 0400 = 00  A:80 X:04 Y:00 P:A4 SP:FB PPU:9478,28434,CYC: 9478
DB43  90 04     BCC $DB49                       A:7F X:04 Y:00 P:65 SP:FB PPU:9483,28449,CYC: 9483
DB45  C9 7F     CMP #$7F                        A:7F X:04 Y:00 P:65 SP:FB PPU:9485,28455,CYC: 9485
DB47  F0 02     BEQ $DB4B                       A:7F X:04 Y:00 P:67 SP:FB PPU:9487,28461,CYC: 9487
DB4B  E8        INX                             A:7F X:04 Y:00 P:67 SP:FB PPU:9490,28470,CYC: 9490
DB4C  38        SEC                             A:7F X:05 Y:00 P:65 SP:FB PPU:9492,28476,CYC: 9492
DB4D  A9 7F     LDA #$7F                        A:7F X:05 Y:00 P:65 SP:FB PPU:9494,28482,CYC: 9494
DB4F  8D 00 04  STA $0400 = 00                  A:7F X:05 Y:00 P:65 SP:FB PPU:9496,28488,CYC: 9496
DB52  A9 81     LDA #$81                        A:7F X:05 Y:00 P:65 SP:FB PPU:9500,28500,CYC: 9500
DB54  F1 33     SBC ($33),Y = 0400 @ 0400 = 7F  A:81 X:05 Y:00 P:E5 SP:FB PPU:9502,28506,CYC: 9502
DB56  50 06     BVC $DB5E                       A:02 X:05 Y:00 P:65 SP:FB PPU:9507,28521,CYC: 9507
DB58  90 04     BCC $DB5E                       A:02 X:05 Y:00 P:65 SP:FB PPU:9509,28527,CYC: 9509
DB5A  C9 02     CMP #$02                        A:02 X:05 Y:00 P:65 SP:FB PPU:9511,28533,CYC: 9511
DB5C  F0 02     BEQ $DB60                       A:02 X:05 Y:00 P:67 SP:FB PPU:9513,28539,CYC: 9513
DB60  E8        INX                             A:02 X:05 Y:00 P:67 SP:FB PPU:9516,28548,CYC: 9516
DB61  A9 00     LDA #$00                        A:02 X:06 Y:00 P:65 SP:FB PPU:9518,28554,CYC: 9518
DB63  A9 87     LDA #$87                        A:00 X:06 Y:00 P:67 SP:FB PPU:9520,28560,CYC: 9520
DB65  91 33     STA ($33),Y = 0400 @ 0400 = 7F  A:87 X:06 Y:00 P:E5 SP:FB PPU:9522,28566,CYC: 9522
DB67  AD 00 04  LDA $0400 = 87                  A:87 X:06 Y:00 P:E5 SP:FB PPU:9528,28584,CYC: 9528
DB6A  C9 87     CMP #$87                        A:87 X:06 Y:00 P:E5 SP:FB PPU:9532,28596,CYC: 9532
DB6C  F0 02     BEQ $DB70                       A:87 X:06 Y:00 P:67 SP:FB PPU:9534,28602,CYC: 9534
DB70  E8        INX                             A:87 X:06 Y:00 P:67 SP:FB PPU:9537,28611,CYC: 9537
DB71  A9 7E     LDA #$7E                        A:87 X:07 Y:00 P:65 SP:FB PPU:9539,28617,CYC: 9539
DB73  8D 00 02  STA $0200 = 7F                  A:7E X:07 Y:00 P:65 SP:FB PPU:9541,28623,CYC: 9541
DB76  A9 DB     LDA #$DB                        A:7E X:07 Y:00 P:65 SP:FB PPU:9545,28635,CYC: 9545
DB78  8D 01 02  STA $0201 = 00                  A:DB X:07 Y:00 P:E5 SP:FB PPU:9547,28641,CYC: 9547
DB7B  6C 00 02  JMP ($0200) = DB7E              A:DB X:07 Y:00 P:E5 SP:FB PPU:9551,28653,CYC: 9551
DB7E  A9 00     LDA #$00                        A:DB X:07 Y:00 P:E5 SP:FB PPU:9556,28668,CYC: 9556
DB80  8D FF 02  STA $02FF = 00                  A:00 X:07 Y:00 P:67 SP:FB PPU:9558,28674,CYC: 9558
DB83  A9 01     LDA #$01                        A:00 X:07 Y:00 P:67 SP:FB PPU:9562,28686,CYC: 9562
DB85  8D 00 03  STA $0300 = 89                  A:01 X:07 Y:00 P:65 SP:FB PPU:9564,28692,CYC: 9564
DB88  A9 03     LDA #$03                        A:01 X:07 Y:00 P:65 SP:FB PPU:9568,28704,CYC: 9568
DB8A  8D 00 02  STA $0200 = 7E                  A:03 X:07 Y:00 P:65 SP:FB PPU:9570,28710,CYC: 9570
DB8D  A9 A9     LDA #$A9                        A:03 X:07 Y:00 P:65 SP:FB PPU:9574,28722,CYC: 9574
DB8F  8D 00 01  STA $0100 = 00                  A:A9 X:07 Y:00 P:E5 SP:FB PPU:9576,28728,CYC: 9576
DB92  A9 55     LDA #$55                        A:A9 X:07 Y:00 P:E5 SP:FB PPU:9580,28740,CYC: 9580
DB94  8D 01 01  STA $0101 = 00                  A:55 X:07 Y:00 P:65 SP:FB PPU:9582,28746,CYC: 9582
DB97  A9 60     LDA #$60                        A:55 X:07 Y:00 P:65 SP:FB PPU:9586,28758,CYC: 9586
DB99  8D 02 01  STA $0102 = 00                  A:60 X:07 Y:00 P:65 SP:FB PPU:9588,28764,CYC: 9588
DB9C  A9 A9     LDA #$A9                        A:60 X:07 Y:00 P:65 SP:FB PPU:9592,28776,CYC: 9592
DB9E  8D 00 03  STA $0300 = 01                  A:A9 X:07 Y:00 P:E5 SP:FB PPU:9594,28782,CYC: 9594
DBA1  A9 AA     LDA #$AA                        A:A9 X:07 Y:00 P:E5 SP:FB PPU:9598,28794,CYC: 9598
DBA3  8D 01 03  STA $0301 = 00                  A:AA X:07 Y:00 P:E5 SP:FB PPU:9600,28800,CYC: 9600
DBA6  A9 60     LDA #$60                        A:AA X:07 Y:00 P:E5 SP:FB PPU:9604,28812,CYC: 9604
DBA8  8D 02 03  STA $0302 = 00                  A:60 X:07 Y:00 P:65 SP:FB PPU:9606,28818,CYC: 9606
DBAB  20 B5 DB  JSR $DBB5                       A:60 X:07 Y:00 P:65 SP:FB PPU:9610,28830,CYC: 9610
DBB5  6C FF 02  JMP ($02FF) = 0300              A:60 X:07 Y:00 P:65 SP:F9 PPU:9616,28848,CYC: 9616
0300  A9 AA     LDA #$AA                        A:60 X:07 Y:00 P:65 SP:F9 PPU:9623,28869,CYC: 9623
0302  60        RTS                             A:AA X:07 Y:00 P:E5 SP:F9 PPU:9625,28875,CYC: 9625
DBAE  C9 AA     CMP #$AA                        A:AA X:07 Y:00 P:E5 SP:FB PPU:9631,28893,CYC: 9631
DBB0  F0 02     BEQ $DBB4                       A:AA X:07 Y:00 P:67 SP:FB PPU:9633,28899,CYC: 9633
DBB4  60        RTS                             A:AA X:07 Y:00 P:67 SP:FB PPU:9636,28908,CYC: 9636
C626  20 4A DF  JSR $DF4A                       A:AA X:07 Y:00 P:67 SP:FD PPU:9642,28926,CYC: 9642
DF4A  A9 89     LDA #$89                        A:AA X:07 Y:00 P:67 SP:FB PPU:9648,28944,CYC: 9648
DF4C  8D 00 03  STA $0300 = A9                  A:89 X:07 Y:00 P:E5 SP:FB PPU:9650,28950,CYC: 9650
DF4F  A9 A3     LDA #$A3                        A:89 X:07 Y:00 P:E5 SP:FB PPU:9654,28962,CYC: 9654
DF51  85 33     STA $33 = 00                    A:A3 X:07 Y:00 P:E5 SP:FB PPU:9656,28968,CYC: 9656
DF53  A9 12     LDA #$12                        A:A3 X:07 Y:00 P:E5 SP:FB PPU:9659,28977,CYC: 9659
DF55  8D 45 02  STA $0245 = 12                  A:12 X:07 Y:00 P:65 SP:FB PPU:9661,28983,CYC: 9661
DF58  A2 65     LDX #$65                        A:12 X:07 Y:00 P:65 SP:FB PPU:9665,28995,CYC: 9665
DF5A  A0 00     LDY #$00                        A:12 X:65 Y:00 P:65 SP:FB PPU:9667,29001,CYC: 9667
DF5C  38        SEC                             A:12 X:65 Y:00 P:67 SP:FB PPU:9669,29007,CYC: 9669
DF5D  A9 00     LDA #$00                        A:12 X:65 Y:00 P:67 SP:FB PPU:9671,29013,CYC: 9671
DF5F  B8        CLV                             A:00 X:65 Y:00 P:67 SP:FB PPU:9673,29019,CYC: 9673
DF60  B9 00 03  LDA $0300,Y @ 0300 = 89         A:00 X:65 Y:00 P:27 SP:FB PPU:9675,29025,CYC: 9675
DF63  F0 0C     BEQ $DF71                       A:89 X:65 Y:00 P:A5 SP:FB PPU:9679,29037,CYC: 9679
DF65  90 0A     BCC $DF71                       A:89 X:65 Y:00 P:A5 SP:FB PPU:9681,29043,CYC: 9681
DF67  70 08     BVS $DF71                       A:89 X:65 Y:00 P:A5 SP:FB PPU:9683,29049,CYC: 9683
DF69  C9 89     CMP #$89                        A:89 X:65 Y:00 P:A5 SP:FB PPU:9685,29055,CYC: 9685
DF6B  D0 04     BNE $DF71                       A:89 X:65 Y:00 P:27 SP:FB PPU:9687,29061,CYC: 9687
DF6D  E0 65     CPX #$65                        A:89 X:65 Y:00 P:27 SP:FB PPU:9689,29067,CYC: 9689
DF6F  F0 04     BEQ $DF75                       A:89 X:65 Y:00 P:27 SP:FB PPU:9691,29073,CYC: 9691
DF75  A9 FF     LDA #$FF                        A:89 X:65 Y:00 P:27 SP:FB PPU:9694,29082,CYC: 9694
DF77  85 01     STA $01 = FF                    A:FF X:65 Y:00 P:A5 SP:FB PPU:9696,29088,CYC: 9696
DF79  24 01     BIT $01 = FF                    A:FF X:65 Y:00 P:A5 SP:FB PPU:9699,29097,CYC: 9699
DF7B  A0 34     LDY #$34                        A:FF X:65 Y:00 P:E5 SP:FB PPU:9702,29106,CYC: 9702
DF7D  B9 FF FF  LDA $FFFF,Y @ 0033 = A3         A:FF X:65 Y:34 P:65 SP:FB PPU:9704,29112,CYC: 9704
DF80  C9 A3     CMP #$A3                        A:A3 X:65 Y:34 P:E5 SP:FB PPU:9709,29127,CYC: 9709
DF82  D0 02     BNE $DF86                       A:A3 X:65 Y:34 P:67 SP:FB PPU:9711,29133,CYC: 9711
DF84  B0 04     BCS $DF8A                       A:A3 X:65 Y:34 P:67 SP:FB PPU:9713,29139,CYC: 9713
DF8A  A9 46     LDA #$46                        A:A3 X:65 Y:34 P:67 SP:FB PPU:9716,29148,CYC: 9716
DF8C  85 FF     STA $FF = 46                    A:46 X:65 Y:34 P:65 SP:FB PPU:9718,29154,CYC: 9718
DF8E  A0 FF     LDY #$FF                        A:46 X:65 Y:34 P:65 SP:FB PPU:9721,29163,CYC: 9721
DF90  B9 46 01  LDA $0146,Y @ 0245 = 12         A:46 X:65 Y:FF P:E5 SP:FB PPU:9723,29169,CYC: 9723
DF93  C9 12     CMP #$12                        A:12 X:65 Y:FF P:65 SP:FB PPU:9728,29184,CYC: 9728
DF95  F0 04     BEQ $DF9B                       A:12 X:65 Y:FF P:67 SP:FB PPU:9730,29190,CYC: 9730
DF9B  A2 39     LDX #$39                        A:12 X:65 Y:FF P:67 SP:FB PPU:9733,29199,CYC: 9733
DF9D  18        CLC                             A:12 X:39 Y:FF P:65 SP:FB PPU:9735,29205,CYC: 9735
DF9E  A9 FF     LDA #$FF                        A:12 X:39 Y:FF P:64 SP:FB PPU:9737,29211,CYC: 9737
DFA0  85 01     STA $01 = FF                    A:FF X:39 Y:FF P:E4 SP:FB PPU:9739,29217,CYC: 9739
DFA2  24 01     BIT $01 = FF                    A:FF X:39 Y:FF P:E4 SP:FB PPU:9742,29226,CYC: 9742
DFA4  A9 AA     LDA #$AA                        A:FF X:39 Y:FF P:E4 SP:FB PPU:9745,29235,CYC: 9745
DFA6  8D 00 04  STA $0400 = 87                  A:AA X:39 Y:FF P:E4 SP:FB PPU:9747,29241,CYC: 9747
DFA9  A9 55     LDA #$55                        A:AA X:39 Y:FF P:E4 SP:FB PPU:9751,29253,CYC: 9751
DFAB  A0 00     LDY #$00                        A:55 X:39 Y:FF P:64 SP:FB PPU:9753,29259,CYC: 9753
DFAD  19 00 04  ORA $0400,Y @ 0400 = AA         A:55 X:39 Y:00 P:66 SP:FB PPU:9755,29265,CYC: 9755
DFB0  B0 08     BCS $DFBA                       A:FF X:39 Y:00 P:E4 SP:FB PPU:9759,29277,CYC: 9759
DFB2  10 06     BPL $DFBA                       A:FF X:39 Y:00 P:E4 SP:FB PPU:9761,29283,CYC: 9761
DFB4  C9 FF     CMP #$FF                        A:FF X:39 Y:00 P:E4 SP:FB PPU:9763,29289,CYC: 9763
DFB6  D0 02     BNE $DFBA                       A:FF X:39 Y:00 P:67 SP:FB PPU:9765,29295,CYC: 9765
DFB8  70 02     BVS $DFBC                       A:FF X:39 Y:00 P:67 SP:FB PPU:9767,29301,CYC: 9767
DFBC  E8        INX                             A:FF X:39 Y:00 P:67 SP:FB PPU:9770,29310,CYC: 9770
DFBD  38        SEC                             A:FF X:3A Y:00 P:65 SP:FB PPU:9772,29316,CYC: 9772
DFBE  B8        CLV                             A:FF X:3A Y:00 P:65 SP:FB PPU:9774,29322,CYC: 9774
DFBF  A9 00     LDA #$00                        A:FF X:3A Y:00 P:25 SP:FB PPU:9776,29328,CYC: 9776
DFC1  19 00 04  ORA $0400,Y @ 0400 = AA         A:00 X:3A Y:00 P:27 SP:FB PPU:9778,29334,CYC: 9778
DFC4  F0 06     BEQ $DFCC                       A:AA X:3A Y:00 P:A5 SP:FB PPU:9782,29346,CYC: 9782
DFC6  70 04     BVS $DFCC                       A:AA X:3A Y:00 P:A5 SP:FB PPU:9784,29352,CYC: 9784
DFC8  90 02     BCC $DFCC                       A:AA X:3A Y:00 P:A5 SP:FB PPU:9786,29358,CYC: 9786
DFCA  30 02     BMI $DFCE                       A:AA X:3A Y:00 P:A5 SP:FB PPU:9788,29364,CYC: 9788
DFCE  E8        INX                             A:AA X:3A Y:00 P:A5 SP:FB PPU:9791,29373,CYC: 9791
DFCF  18        CLC                             A:AA X:3B Y:00 P:25 SP:FB PPU:9793,29379,CYC: 9793
DFD0  24 01     BIT $01 = FF                    A:AA X:3B Y:00 P:24 SP:FB PPU:9795,29385,CYC: 9795
DFD2  A9 55     LDA #$55                        A:AA X:3B Y:00 P:E4 SP:FB PPU:9798,29394,CYC: 9798
DFD4  39 00 04  AND $0400,Y @ 0400 = AA         A:55 X:3B Y:00 P:64 SP:FB PPU:9800,29400,CYC: 9800
DFD7  D0 06     BNE $DFDF                       A:00 X:3B Y:00 P:66 SP:FB PPU:9804,29412,CYC: 9804
DFD9  50 04     BVC $DFDF                       A:00 X:3B Y:00 P:66 SP:FB PPU:9806,29418,CYC: 9806
DFDB  B0 02     BCS $DFDF                       A:00 X:3B Y:00 P:66 SP:FB PPU:9808,29424,CYC: 9808
DFDD  10 02     BPL $DFE1                       A:00 X:3B Y:00 P:66 SP:FB PPU:9810,29430,CYC: 9810
DFE1  E8        INX                             A:00 X:3B Y:00 P:66 SP:FB PPU:9813,29439,CYC: 9813
DFE2  38        SEC                             A:00 X:3C Y:00 P:64 SP:FB PPU:9815,29445,CYC: 9815
DFE3  B8        CLV                             A:00 X:3C Y:00 P:65 SP:FB PPU:9817,29451,CYC: 9817
DFE4  A9 EF     LDA #$EF                        A:00 X:3C Y:00 P:25 SP:FB PPU:9819,29457,CYC: 9819
DFE6  8D 00 04  STA $0400 = AA                  A:EF X:3C Y:00 P:A5 SP:FB PPU:9821,29463,CYC: 9821
DFE9  A9 F8     LDA #$F8                        A:EF X:3C Y:00 P:A5 SP:FB PPU:9825,29475,CYC: 9825
DFEB  39 00 04  AND $0400,Y @ 0400 = EF         A:F8 X:3C Y:00 P:A5 SP:FB PPU:9827,29481,CYC: 9827
DFEE  90 08     BCC $DFF8                       A:E8 X:3C Y:00 P:A5 SP:FB PPU:9831,29493,CYC: 9831
DFF0  10 06     BPL $DFF8                       A:E8 X:3C Y:00 P:A5 SP:FB PPU:9833,29499,CYC: 9833
DFF2  C9 E8     CMP #$E8                        A:E8 X:3C Y:00 P:A5 SP:FB PPU:9835,29505,CYC: 9835
DFF4  D0 02     BNE $DFF8                       A:E8 X:3C Y:00 P:27 SP:FB PPU:9837,29511,CYC: 9837
DFF6  50 02     BVC $DFFA                       A:E8 X:3C Y:00 P:27 SP:FB PPU:9839,29517,CYC: 9839
DFFA  E8        INX                             A:E8 X:3C Y:00 P:27 SP:FB PPU:9842,29526,CYC: 9842
DFFB  18        CLC                             A:E8 X:3D Y:00 P:25 SP:FB PPU:9844,29532,CYC: 9844
DFFC  24 01     BIT $01 = FF                    A:E8 X:3D Y:00 P:24 SP:FB PPU:9846,29538,CYC: 9846
DFFE  A9 AA     LDA #$AA                        A:E8 X:3D Y:00 P:E4 SP:FB PPU:9849,29547,CYC: 9849
E000  8D 00 04  STA $0400 = EF                  A:AA X:3D Y:00 P:E4 SP:FB PPU:9851,29553,CYC: 9851
E003  A9 5F     LDA #$5F                        A:AA X:3D Y:00 P:E4 SP:FB PPU:9855,29565,CYC: 9855
E005  59 00 04  EOR $0400,Y @ 0400 = AA         A:5F X:3D Y:00 P:64 SP:FB PPU:9857,29571,CYC: 9857
E008  B0 08     BCS $E012                       A:F5 X:3D Y:00 P:E4 SP:FB PPU:9861,29583,CYC: 9861
E00A  10 06     BPL $E012                       A:F5 X:3D Y:00 P:E4 SP:FB PPU:9863,29589,CYC: 9863
E00C  C9 F5     CMP #$F5                        A:F5 X:3D Y:00 P:E4 SP:FB PPU:9865,29595,CYC: 9865
E00E  D0 02     BNE $E012                       A:F5 X:3D Y:00 P:67 SP:FB PPU:9867,29601,CYC: 9867
E010  70 02     BVS $E014                       A:F5 X:3D Y:00 P:67 SP:FB PPU:9869,29607,CYC: 9869
E014  E8        INX                             A:F5 X:3D Y:00 P:67 SP:FB PPU:9872,29616,CYC: 9872
E015  38        SEC                             A:F5 X:3E Y:00 P:65 SP:FB PPU:9874,29622,CYC: 9874
E016  B8        CLV                             A:F5 X:3E Y:00 P:65 SP:FB PPU:9876,29628,CYC: 9876
E017  A9 70     LDA #$70                        A:F5 X:3E Y:00 P:25 SP:FB PPU:9878,29634,CYC: 9878
E019  8D 00 04  STA $0400 = AA                  A:70 X:3E Y:00 P:25 SP:FB PPU:9880,29640,CYC: 9880
E01C  59 00 04  EOR $0400,Y @ 0400 = 70         A:70 X:3E Y:00 P:25 SP:FB PPU:9884,29652,CYC: 9884
E01F  D0 06     BNE $E027                       A:00 X:3E Y:00 P:27 SP:FB PPU:9888,29664,CYC: 9888
E021  70 04     BVS $E027                       A:00 X:3E Y:00 P:27 SP:FB PPU:9890,29670,CYC: 9890
E023  90 02     BCC $E027                       A:00 X:3E Y:00 P:27 SP:FB PPU:9892,29676,CYC: 9892
E025  10 02     BPL $E029                       A:00 X:3E Y:00 P:27 SP:FB PPU:9894,29682,CYC: 9894
E029  E8        INX                             A:00 X:3E Y:00 P:27 SP:FB PPU:9897,29691,CYC: 9897
E02A  18        CLC                             A:00 X:3F Y:00 P:25 SP:FB PPU:9899,29697,CYC: 9899
E02B  24 01     BIT $01 = FF                    A:00 X:3F Y:00 P:24 SP:FB PPU:9901,29703,CYC: 9901
E02D  A9 69     LDA #$69                        A:00 X:3F Y:00 P:E6 SP:FB PPU:9904,29712,CYC: 9904
E02F  8D 00 04  STA $0400 = 70                  A:69 X:3F Y:00 P:64 SP:FB PPU:9906,29718,CYC: 9906
E032  A9 00     LDA #$00                        A:69 X:3F Y:00 P:64 SP:FB PPU:9910,29730,CYC: 9910
E034  79 00 04  ADC $0400,Y @ 0400 = 69         A:00 X:3F Y:00 P:66 SP:FB PPU:9912,29736,CYC: 9912
E037  30 08     BMI $E041                       A:69 X:3F Y:00 P:24 SP:FB PPU:9916,29748,CYC: 9916
E039  B0 06     BCS $E041                       A:69 X:3F Y:00 P:24 SP:FB PPU:9918,29754,CYC: 9918
E03B  C9 69     CMP #$69                        A:69 X:3F Y:00 P:24 SP:FB PPU:9920,29760,CYC: 9920
E03D  D0 02     BNE $E041                       A:69 X:3F Y:00 P:27 SP:FB PPU:9922,29766,CYC: 9922
E03F  50 02     BVC $E043                       A:69 X:3F Y:00 P:27 SP:FB PPU:9924,29772,CYC: 9924
E043  E8        INX                             A:69 X:3F Y:00 P:27 SP:FB PPU:9927,29781,CYC: 9927
E044  38        SEC                             A:69 X:40 Y:00 P:25 SP:FB PPU:9929,29787,CYC: 9929
E045  24 01     BIT $01 = FF                    A:69 X:40 Y:00 P:25 SP:FB PPU:9931,29793,CYC: 9931
E047  A9 00     LDA #$00                        A:69 X:40 Y:00 P:E5 SP:FB PPU:9934,29802,CYC: 9934
E049  79 00 04  ADC $0400,Y @ 0400 = 69         A:00 X:40 Y:00 P:67 SP:FB PPU:9936,29808,CYC: 9936
E04C  30 08     BMI $E056                       A:6A X:40 Y:00 P:24 SP:FB PPU:9940,29820,CYC: 9940
E04E  B0 06     BCS $E056                       A:6A X:40 Y:00 P:24 SP:FB PPU:9942,29826,CYC: 9942
E050  C9 6A     CMP #$6A                        A:6A X:40 Y:00 P:24 SP:FB PPU:9944,29832,CYC: 9944
E052  D0 02     BNE $E056                       A:6A X:40 Y:00 P:27 SP:FB PPU:9946,29838,CYC: 9946
E054  50 02     BVC $E058                       A:6A X:40 Y:00 P:27 SP:FB PPU:9948,29844,CYC: 9948
E058  E8        INX                             A:6A X:40 Y:00 P:27 SP:FB PPU:9951,29853,CYC: 9951
E059  38        SEC                             A:6A X:41 Y:00 P:25 SP:FB PPU:9953,29859,CYC: 9953
E05A  B8        CLV                             A:6A X:41 Y:00 P:25 SP:FB PPU:9955,29865,CYC: 9955
E05B  A9 7F     LDA #$7F                        A:6A X:41 Y:00 P:25 SP:FB PPU:9957,29871,CYC: 9957
E05D  8D 00 04  STA $0400 = 69                  A:7F X:41 Y:00 P:25 SP:FB PPU:9959,29877,CYC: 9959
E060  79 00 04  ADC $0400,Y @ 0400 = 7F         A:7F X:41 Y:00 P:25 SP:FB PPU:9963,29889,CYC: 9963
E063  10 08     BPL $E06D                       A:FF X:41 Y:00 P:E4 SP:FB PPU:9967,29901,CYC: 9967
E065  B0 06     BCS $E06D                       A:FF X:41 Y:00 P:E4 SP:FB PPU:9969,29907,CYC: 9969
E067  C9 FF     CMP #$FF                        A:FF X:41 Y:00 P:E4 SP:FB PPU:9971,29913,CYC: 9971
E069  D0 02     BNE $E06D                       A:FF X:41 Y:00 P:67 SP:FB PPU:9973,29919,CYC: 9973
E06B  70 02     BVS $E06F                       A:FF X:41 Y:00 P:67 SP:FB PPU:9975,29925,CYC: 9975
E06F  E8        INX                             A:FF X:41 Y:00 P:67 SP:FB PPU:9978,29934,CYC: 9978
E070  18        CLC                             A:FF X:42 Y:00 P:65 SP:FB PPU:9980,29940,CYC: 9980
E071  24 01     BIT $01 = FF                    A:FF X:42 Y:00 P:64 SP:FB PPU:9982,29946,CYC: 9982
E073  A9 80     LDA #$80                        A:FF X:42 Y:00 P:E4 SP:FB PPU:9985,29955,CYC: 9985
E075  8D 00 04  STA $0400 = 7F                  A:80 X:42 Y:00 P:E4 SP:FB PPU:9987,29961,CYC: 9987
E078  A9 7F     LDA #$7F                        A:80 X:42 Y:00 P:E4 SP:FB PPU:9991,29973,CYC: 9991
E07A  79 00 04  ADC $0400,Y @ 0400 = 80         A:7F X:42 Y:00 P:64 SP:FB PPU:9993,29979,CYC: 9993
E07D  10 08     BPL $E087                       A:FF X:42 Y:00 P:A4 SP:FB PPU:9997,29991,CYC: 9997
E07F  B0 06     BCS $E087                       A:FF X:42 Y:00 P:A4 SP:FB PPU:9999,29997,CYC: 9999
E081  C9 FF     CMP #$FF                        A:FF X:42 Y:00 P:A4 SP:FB PPU:10001,30003,CYC:10001
E083  D0 02     BNE $E087                       A:FF X:42 Y:00 P:27 SP:FB PPU:10003,30009,CYC:10003
E085  50 02     BVC $E089                       A:FF X:42 Y:00 P:27 SP:FB PPU:10005,30015,CYC:10005
E089  E8        INX                             A:FF X:42 Y:00 P:27 SP:FB PPU:10008,30024,CYC:10008
E08A  38        SEC                             A:FF X:43 Y:00 P:25 SP:FB PPU:10010,30030,CYC:10010
E08B  B8        CLV                             A:FF X:43 Y:00 P:25 SP:FB PPU:10012,30036,CYC:10012
E08C  A9 80     LDA #$80                        A:FF X:43 Y:00 P:25 SP:FB PPU:10014,30042,CYC:10014
E08E  8D 00 04  STA $0400 = 80                  A:80 X:43 Y:00 P:A5 SP:FB PPU:10016,30048,CYC:10016
E091  A9 7F     LDA #$7F                        A:80 X:43 Y:00 P:A5 SP:FB PPU:10020,30060,CYC:10020
E093  79 00 04  ADC $0400,Y @ 0400 = 80         A:7F X:43 Y:00 P:25 SP:FB PPU:10022,30066,CYC:10022
E096  D0 06     BNE $E09E                       A:00 X:43 Y:00 P:27 SP:FB PPU:10026,30078,CYC:10026
E098  30 04     BMI $E09E                       A:00 X:43 Y:00 P:27 SP:FB PPU:10028,30084,CYC:10028
E09A  70 02     BVS $E09E                       A:00 X:43 Y:00 P:27 SP:FB PPU:10030,30090,CYC:10030
E09C  B0 02     BCS $E0A0                       A:00 X:43 Y:00 P:27 SP:FB PPU:10032,30096,CYC:10032
E0A0  E8        INX                             A:00 X:43 Y:00 P:27 SP:FB PPU:10035,30105,CYC:10035
E0A1  24 01     BIT $01 = FF                    A:00 X:44 Y:00 P:25 SP:FB PPU:10037,30111,CYC:10037
E0A3  A9 40     LDA #$40                        A:00 X:44 Y:00 P:E7 SP:FB PPU:10040,30120,CYC:10040
E0A5  8D 00 04  STA $0400 = 80                  A:40 X:44 Y:00 P:65 SP:FB PPU:10042,30126,CYC:10042
E0A8  D9 00 04  CMP $0400,Y @ 0400 = 40         A:40 X:44 Y:00 P:65 SP:FB PPU:10046,30138,CYC:10046
E0AB  30 06     BMI $E0B3                       A:40 X:44 Y:00 P:67 SP:FB PPU:10050,30150,CYC:10050
E0AD  90 04     BCC $E0B3                       A:40 X:44 Y:00 P:67 SP:FB PPU:10052,30156,CYC:10052
E0AF  D0 02     BNE $E0B3                       A:40 X:44 Y:00 P:67 SP:FB PPU:10054,30162,CYC:10054
E0B1  70 02     BVS $E0B5                       A:40 X:44 Y:00 P:67 SP:FB PPU:10056,30168,CYC:10056
E0B5  E8        INX                             A:40 X:44 Y:00 P:67 SP:FB PPU:10059,30177,CYC:10059
E0B6  B8        CLV                             A:40 X:45 Y:00 P:65 SP:FB PPU:10061,30183,CYC:10061
E0B7  CE 00 04  DEC $0400 = 40                  A:40 X:45 Y:00 P:25 SP:FB PPU:10063,30189,CYC:10063
E0BA  D9 00 04  CMP $0400,Y @ 0400 = 3F         A:40 X:45 Y:00 P:25 SP:FB PPU:10069,30207,CYC:10069
E0BD  F0 06     BEQ $E0C5                       A:40 X:45 Y:00 P:25 SP:FB PPU:10073,30219,CYC:10073
E0BF  30 04     BMI $E0C5                       A:40 X:45 Y:00 P:25 SP:FB PPU:10075,30225,CYC:10075
E0C1  90 02     BCC $E0C5                       A:40 X:45 Y:00 P:25 SP:FB PPU:10077,30231,CYC:10077
E0C3  50 02     BVC $E0C7                       A:40 X:45 Y:00 P:25 SP:FB PPU:10079,30237,CYC:10079
E0C7  E8        INX                             A:40 X:45 Y:00 P:25 SP:FB PPU:10082,30246,CYC:10082
E0C8  EE 00 04  INC $0400 = 3F                  A:40 X:46 Y:00 P:25 SP:FB PPU:10084,30252,CYC:10084
E0CB  EE 00 04  INC $0400 = 40                  A:40 X:46 Y:00 P:25 SP:FB PPU:10090,30270,CYC:10090
E0CE  D9 00 04  CMP $0400,Y @ 0400 = 41         A:40 X:46 Y:00 P:25 SP:FB PPU:10096,30288,CYC:10096
E0D1  F0 02     BEQ $E0D5                       A:40 X:46 Y:00 P:A4 SP:FB PPU:10100,30300,CYC:10100
E0D3  30 02     BMI $E0D7                       A:40 X:46 Y:00 P:A4 SP:FB PPU:10102,30306,CYC:10102
E0D7  E8        INX                             A:40 X:46 Y:00 P:A4 SP:FB PPU:10105,30315,CYC:10105
E0D8  A9 00     LDA #$00                        A:40 X:47 Y:00 P:24 SP:FB PPU:10107,30321,CYC:10107
E0DA  8D 00 04  STA $0400 = 41                  A:00 X:47 Y:00 P:26 SP:FB PPU:10109,30327,CYC:10109
E0DD  A9 80     LDA #$80                        A:00 X:47 Y:00 P:26 SP:FB PPU:10113,30339,CYC:10113
E0DF  D9 00 04  CMP $0400,Y @ 0400 = 00         A:80 X:47 Y:00 P:A4 SP:FB PPU:10115,30345,CYC:10115
E0E2  F0 04     BEQ $E0E8                       A:80 X:47 Y:00 P:A5 SP:FB PPU:10119,30357,CYC:10119
E0E4  10 02     BPL $E0E8                       A:80 X:47 Y:00 P:A5 SP:FB PPU:10121,30363,CYC:10121
E0E6  B0 02     BCS $E0EA                       A:80 X:47 Y:00 P:A5 SP:FB PPU:10123,30369,CYC:10123
E0EA  E8        INX                             A:80 X:47 Y:00 P:A5 SP:FB PPU:10126,30378,CYC:10126
E0EB  A0 80     LDY #$80                        A:80 X:48 Y:00 P:25 SP:FB PPU:10128,30384,CYC:10128
E0ED  8C 00 04  STY $0400 = 00                  A:80 X:48 Y:80 P:A5 SP:FB PPU:10130,30390,CYC:10130
E0F0  A0 00     LDY #$00                        A:80 X:48 Y:80 P:A5 SP:FB PPU:10134,30402,CYC:10134
E0F2  D9 00 04  CMP $0400,Y @ 0400 = 80         A:80 X:48 Y:00 P:27 SP:FB PPU:10136,30408,CYC:10136
E0F5  D0 04     BNE $E0FB                       A:80 X:48 Y:00 P:27 SP:FB PPU:10140,30420,CYC:10140
E0F7  30 02     BMI $E0FB                       A:80 X:48 Y:00 P:27 SP:FB PPU:10142,30426,CYC:10142
E0F9  B0 02     BCS $E0FD                       A:80 X:48 Y:00 P:27 SP:FB PPU:10144,30432,CYC:10144
E0FD  E8        INX                             A:80 X:48 Y:00 P:27 SP:FB PPU:10147,30441,CYC:10147
E0FE  EE 00 04  INC $0400 = 80                  A:80 X:49 Y:00 P:25 SP:FB PPU:10149,30447,CYC:10149
E101  D9 00 04  CMP $0400,Y @ 0400 = 81         A:80 X:49 Y:00 P:A5 SP:FB PPU:10155,30465,CYC:10155
E104  B0 04     BCS $E10A                       A:80 X:49 Y:00 P:A4 SP:FB PPU:10159,30477,CYC:10159
E106  F0 02     BEQ $E10A                       A:80 X:49 Y:00 P:A4 SP:FB PPU:10161,30483,CYC:10161
E108  30 02     BMI $E10C                       A:80 X:49 Y:00 P:A4 SP:FB PPU:10163,30489,CYC:10163
E10C  E8        INX                             A:80 X:49 Y:00 P:A4 SP:FB PPU:10166,30498,CYC:10166
E10D  CE 00 04  DEC $0400 = 81                  A:80 X:4A Y:00 P:24 SP:FB PPU:10168,30504,CYC:10168
E110  CE 00 04  DEC $0400 = 80                  A:80 X:4A Y:00 P:A4 SP:FB PPU:10174,30522,CYC:10174
E113  D9 00 04  CMP $0400,Y @ 0400 = 7F         A:80 X:4A Y:00 P:24 SP:FB PPU:10180,30540,CYC:10180
E116  90 04     BCC $E11C                       A:80 X:4A Y:00 P:25 SP:FB PPU:10184,30552,CYC:10184
E118  F0 02     BEQ $E11C                       A:80 X:4A Y:00 P:25 SP:FB PPU:10186,30558,CYC:10186
E11A  10 02     BPL $E11E                       A:80 X:4A Y:00 P:25 SP:FB PPU:10188,30564,CYC:10188
E11E  E8        INX                             A:80 X:4A Y:00 P:25 SP:FB PPU:10191,30573,CYC:10191
E11F  24 01     BIT $01 = FF                    A:80 X:4B Y:00 P:25 SP:FB PPU:10193,30579,CYC:10193
E121  A9 40     LDA #$40                        A:80 X:4B Y:00 P:E5 SP:FB PPU:10196,30588,CYC:10196
E123  8D 00 04  STA $0400 = 7F                  A:40 X:4B Y:00 P:65 SP:FB PPU:10198,30594,CYC:10198
E126  38        SEC                             A:40 X:4B Y:00 P:65 SP:FB PPU:10202,30606,CYC:10202
E127  F9 00 04  SBC $0400,Y @ 0400 = 40         A:40 X:4B Y:00 P:65 SP:FB PPU:10204,30612,CYC:10204
E12A  30 0A     BMI $E136                       A:00 X:4B Y:00 P:27 SP:FB PPU:10208,30624,CYC:10208
E12C  90 08     BCC $E136                       A:00 X:4B Y:00 P:27 SP:FB PPU:10210,30630,CYC:10210
E12E  D0 06     BNE $E136                       A:00 X:4B Y:00 P:27 SP:FB PPU:10212,30636,CYC:10212
E130  70 04     BVS $E136                       A:00 X:4B Y:00 P:27 SP:FB PPU:10214,30642,CYC:10214
E132  C9 00     CMP #$00                        A:00 X:4B Y:00 P:27 SP:FB PPU:10216,30648,CYC:10216
E134  F0 02     BEQ $E138                       A:00 X:4B Y:00 P:27 SP:FB PPU:10218,30654,CYC:10218
E138  E8        INX                             A:00 X:4B Y:00 P:27 SP:FB PPU:10221,30663,CYC:10221
E139  B8        CLV                             A:00 X:4C Y:00 P:25 SP:FB PPU:10223,30669,CYC:10223
E13A  38        SEC                             A:00 X:4C Y:00 P:25 SP:FB PPU:10225,30675,CYC:10225
E13B  A9 40     LDA #$40                        A:00 X:4C Y:00 P:25 SP:FB PPU:10227,30681,CYC:10227
E13D  CE 00 04  DEC $0400 = 40                  A:40 X:4C Y:00 P:25 SP:FB PPU:10229,30687,CYC:10229
E140  F9 00 04  SBC $0400,Y @ 0400 = 3F         A:40 X:4C Y:00 P:25 SP:FB PPU:10235,30705,CYC:10235
E143  F0 0A     BEQ $E14F                       A:01 X:4C Y:00 P:25 SP:FB PPU:10239,30717,CYC:10239
E145  30 08     BMI $E14F                       A:01 X:4C Y:00 P:25 SP:FB PPU:10241,30723,CYC:10241
E147  90 06     BCC $E14F                       A:01 X:4C Y:00 P:25 SP:FB PPU:10243,30729,CYC:10243
E149  70 04     BVS $E14F                       A:01 X:4C Y:00 P:25 SP:FB PPU:10245,30735,CYC:10245
E14B  C9 01     CMP #$01                        A:01 X:4C Y:00 P:25 SP:FB PPU:10247,30741,CYC:10247
E14D  F0 02     BEQ $E151                       A:01 X:4C Y:00 P:27 SP:FB PPU:10249,30747,CYC:10249
E151  E8        INX                             A:01 X:4C Y:00 P:27 SP:FB PPU:10252,30756,CYC:10252
E152  A9 40     LDA #$40                        A:01 X:4D Y:00 P:25 SP:FB PPU:10254,30762,CYC:10254
E154  38        SEC                             A:40 X:4D Y:00 P:25 SP:FB PPU:10256,30768,CYC:10256
E155  24 01     BIT $01 = FF                    A:40 X:4D Y:00 P:25 SP:FB PPU:10258,30774,CYC:10258
E157  EE 00 04  INC $0400 = 3F                  A:40 X:4D Y:00 P:E5 SP:FB PPU:10261,30783,CYC:10261
E15A  EE 00 04  INC $0400 = 40                  A:40 X:4D Y:00 P:65 SP:FB PPU:10267,30801,CYC:10267
E15D  F9 00 04  SBC $0400,Y @ 0400 = 41         A:40 X:4D Y:00 P:65 SP:FB PPU:10273,30819,CYC:10273
E160  B0 0A     BCS $E16C                       A:FF X:4D Y:00 P:A4 SP:FB PPU:10277,30831,CYC:10277
E162  F0 08     BEQ $E16C                       A:FF X:4D Y:00 P:A4 SP:FB PPU:10279,30837,CYC:10279
E164  10 06     BPL $E16C                       A:FF X:4D Y:00 P:A4 SP:FB PPU:10281,30843,CYC:10281
E166  70 04     BVS $E16C                       A:FF X:4D Y:00 P:A4 SP:FB PPU:10283,30849,CYC:10283
E168  C9 FF     CMP #$FF                        A:FF X:4D Y:00 P:A4 SP:FB PPU:10285,30855,CYC:10285
E16A  F0 02     BEQ $E16E                       A:FF X:4D Y:00 P:27 SP:FB PPU:10287,30861,CYC:10287
E16E  E8        INX                             A:FF X:4D Y:00 P:27 SP:FB PPU:10290,30870,CYC:10290
E16F  18        CLC                             A:FF X:4E Y:00 P:25 SP:FB PPU:10292,30876,CYC:10292
E170  A9 00     LDA #$00                        A:FF X:4E Y:00 P:24 SP:FB PPU:10294,30882,CYC:10294
E172  8D 00 04  STA $0400 = 41                  A:00 X:4E Y:00 P:26 SP:FB PPU:10296,30888,CYC:10296
E175  A9 80     LDA #$80                        A:00 X:4E Y:00 P:26 SP:FB PPU:10300,30900,CYC:10300
E177  F9 00 04  SBC $0400,Y @ 0400 = 00         A:80 X:4E Y:00 P:A4 SP:FB PPU:10302,30906,CYC:10302
E17A  90 04     BCC $E180                       A:7F X:4E Y:00 P:65 SP:FB PPU:10306,30918,CYC:10306
E17C  C9 7F     CMP #$7F                        A:7F X:4E Y:00 P:65 SP:FB PPU:10308,30924,CYC:10308
E17E  F0 02     BEQ $E182                       A:7F X:4E Y:00 P:67 SP:FB PPU:10310,30930,CYC:10310
E182  E8        INX                             A:7F X:4E Y:00 P:67 SP:FB PPU:10313,30939,CYC:10313
E183  38        SEC                             A:7F X:4F Y:00 P:65 SP:FB PPU:10315,30945,CYC:10315
E184  A9 7F     LDA #$7F                        A:7F X:4F Y:00 P:65 SP:FB PPU:10317,30951,CYC:10317
E186  8D 00 04  STA $0400 = 00                  A:7F X:4F Y:00 P:65 SP:FB PPU:10319,30957,CYC:10319
E189  A9 81     LDA #$81                        A:7F X:4F Y:00 P:65 SP:FB PPU:10323,30969,CYC:10323
E18B  F9 00 04  SBC $0400,Y @ 0400 = 7F         A:81 X:4F Y:00 P:E5 SP:FB PPU:10325,30975,CYC:10325
E18E  50 06     BVC $E196                       A:02 X:4F Y:00 P:65 SP:FB PPU:10329,30987,CYC:10329
E190  90 04     BCC $E196                       A:02 X:4F Y:00 P:65 SP:FB PPU:10331,30993,CYC:10331
E192  C9 02     CMP #$02                        A:02 X:4F Y:00 P:65 SP:FB PPU:10333,30999,CYC:10333
E194  F0 02     BEQ $E198                       A:02 X:4F Y:00 P:67 SP:FB PPU:10335,31005,CYC:10335
E198  E8        INX                             A:02 X:4F Y:00 P:67 SP:FB PPU:10338,31014,CYC:10338
E199  A9 00     LDA #$00                        A:02 X:50 Y:00 P:65 SP:FB PPU:10340,31020,CYC:10340
E19B  A9 87     LDA #$87                        A:00 X:50 Y:00 P:67 SP:FB PPU:10342,31026,CYC:10342
E19D  99 00 04  STA $0400,Y @ 0400 = 7F         A:87 X:50 Y:00 P:E5 SP:FB PPU:10344,31032,CYC:10344
E1A0  AD 00 04  LDA $0400 = 87                  A:87 X:50 Y:00 P:E5 SP:FB PPU:10349,31047,CYC:10349
E1A3  C9 87     CMP #$87                        A:87 X:50 Y:00 P:E5 SP:FB PPU:10353,31059,CYC:10353
E1A5  F0 02     BEQ $E1A9                       A:87 X:50 Y:00 P:67 SP:FB PPU:10355,31065,CYC:10355
E1A9  60        RTS                             A:87 X:50 Y:00 P:67 SP:FB PPU:10358,31074,CYC:10358
C629  20 B8 DB  JSR $DBB8                       A:87 X:50 Y:00 P:67 SP:FD PPU:10364,31092,CYC:10364
DBB8  A9 FF     LDA #$FF                        A:87 X:50 Y:00 P:67 SP:FB PPU:10370,31110,CYC:10370
DBBA  85 01     STA $01 = FF                    A:FF X:50 Y:00 P:E5 SP:FB PPU:10372,31116,CYC:10372
DBBC  A9 AA     LDA #$AA                        A:FF X:50 Y:00 P:E5 SP:FB PPU:10375,31125,CYC:10375
DBBE  85 33     STA $33 = A3                    A:AA X:50 Y:00 P:E5 SP:FB PPU:10377,31131,CYC:10377
DBC0  A9 BB     LDA #$BB                        A:AA X:50 Y:00 P:E5 SP:FB PPU:10380,31140,CYC:10380
DBC2  85 89     STA $89 = 00                    A:BB X:50 Y:00 P:E5 SP:FB PPU:10382,31146,CYC:10382
DBC4  A2 00     LDX #$00                        A:BB X:50 Y:00 P:E5 SP:FB PPU:10385,31155,CYC:10385
DBC6  A9 66     LDA #$66                        A:BB X:00 Y:00 P:67 SP:FB PPU:10387,31161,CYC:10387
DBC8  24 01     BIT $01 = FF                    A:66 X:00 Y:00 P:65 SP:FB PPU:10389,31167,CYC:10389
DBCA  38        SEC                             A:66 X:00 Y:00 P:E5 SP:FB PPU:10392,31176,CYC:10392
DBCB  A0 00     LDY #$00                        A:66 X:00 Y:00 P:E5 SP:FB PPU:10394,31182,CYC:10394
DBCD  B4 33     LDY $33,X @ 33 = AA             A:66 X:00 Y:00 P:67 SP:FB PPU:10396,31188,CYC:10396
DBCF  10 12     BPL $DBE3                       A:66 X:00 Y:AA P:E5 SP:FB PPU:10400,31200,CYC:10400
DBD1  F0 10     BEQ $DBE3                       A:66 X:00 Y:AA P:E5 SP:FB PPU:10402,31206,CYC:10402
DBD3  50 0E     BVC $DBE3                       A:66 X:00 Y:AA P:E5 SP:FB PPU:10404,31212,CYC:10404
DBD5  90 0C     BCC $DBE3                       A:66 X:00 Y:AA P:E5 SP:FB PPU:10406,31218,CYC:10406
DBD7  C9 66     CMP #$66                        A:66 X:00 Y:AA P:E5 SP:FB PPU:10408,31224,CYC:10408
DBD9  D0 08     BNE $DBE3                       A:66 X:00 Y:AA P:67 SP:FB PPU:10410,31230,CYC:10410
DBDB  E0 00     CPX #$00                        A:66 X:00 Y:AA P:67 SP:FB PPU:10412,31236,CYC:10412
DBDD  D0 04     BNE $DBE3                       A:66 X:00 Y:AA P:67 SP:FB PPU:10414,31242,CYC:10414
DBDF  C0 AA     CPY #$AA                        A:66 X:00 Y:AA P:67 SP:FB PPU:10416,31248,CYC:10416
DBE1  F0 04     BEQ $DBE7                       A:66 X:00 Y:AA P:67 SP:FB PPU:10418,31254,CYC:10418
DBE7  A2 8A     LDX #$8A                        A:66 X:00 Y:AA P:67 SP:FB PPU:10421,31263,CYC:10421
DBE9  A9 66     LDA #$66                        A:66 X:8A Y:AA P:E5 SP:FB PPU:10423,31269,CYC:10423
DBEB  B8        CLV                             A:66 X:8A Y:AA P:65 SP:FB PPU:10425,31275,CYC:10425
DBEC  18        CLC                             A:66 X:8A Y:AA P:25 SP:FB PPU:10427,31281,CYC:10427
DBED  A0 00     LDY #$00                        A:66 X:8A Y:AA P:24 SP:FB PPU:10429,31287,CYC:10429
DBEF  B4 FF     LDY $FF,X @ 89 = BB             A:66 X:8A Y:00 P:26 SP:FB PPU:10431,31293,CYC:10431
DBF1  10 12     BPL $DC05                       A:66 X:8A Y:BB P:A4 SP:FB PPU:10435,31305,CYC:10435
DBF3  F0 10     BEQ $DC05                       A:66 X:8A Y:BB P:A4 SP:FB PPU:10437,31311,CYC:10437
DBF5  70 0E     BVS $DC05                       A:66 X:8A Y:BB P:A4 SP:FB PPU:10439,31317,CYC:10439
DBF7  B0 0C     BCS $DC05                       A:66 X:8A Y:BB P:A4 SP:FB PPU:10441,31323,CYC:10441
DBF9  C0 BB     CPY #$BB                        A:66 X:8A Y:BB P:A4 SP:FB PPU:10443,31329,CYC:10443
DBFB  D0 08     BNE $DC05                       A:66 X:8A Y:BB P:27 SP:FB PPU:10445,31335,CYC:10445
DBFD  C9 66     CMP #$66                        A:66 X:8A Y:BB P:27 SP:FB PPU:10447,31341,CYC:10447
DBFF  D0 04     BNE $DC05                       A:66 X:8A Y:BB P:27 SP:FB PPU:10449,31347,CYC:10449
DC01  E0 8A     CPX #$8A                        A:66 X:8A Y:BB P:27 SP:FB PPU:10451,31353,CYC:10451
DC03  F0 04     BEQ $DC09                       A:66 X:8A Y:BB P:27 SP:FB PPU:10453,31359,CYC:10453
DC09  24 01     BIT $01 = FF                    A:66 X:8A Y:BB P:27 SP:FB PPU:10456,31368,CYC:10456
DC0B  38        SEC                             A:66 X:8A Y:BB P:E5 SP:FB PPU:10459,31377,CYC:10459
DC0C  A0 44     LDY #$44                        A:66 X:8A Y:BB P:E5 SP:FB PPU:10461,31383,CYC:10461
DC0E  A2 00     LDX #$00                        A:66 X:8A Y:44 P:65 SP:FB PPU:10463,31389,CYC:10463
DC10  94 33     STY $33,X @ 33 = AA             A:66 X:00 Y:44 P:67 SP:FB PPU:10465,31395,CYC:10465
DC12  A5 33     LDA $33 = 44                    A:66 X:00 Y:44 P:67 SP:FB PPU:10469,31407,CYC:10469
DC14  90 18     BCC $DC2E                       A:44 X:00 Y:44 P:65 SP:FB PPU:10472,31416,CYC:10472
DC16  C9 44     CMP #$44                        A:44 X:00 Y:44 P:65 SP:FB PPU:10474,31422,CYC:10474
DC18  D0 14     BNE $DC2E                       A:44 X:00 Y:44 P:67 SP:FB PPU:10476,31428,CYC:10476
DC1A  50 12     BVC $DC2E                       A:44 X:00 Y:44 P:67 SP:FB PPU:10478,31434,CYC:10478
DC1C  18        CLC                             A:44 X:00 Y:44 P:67 SP:FB PPU:10480,31440,CYC:10480
DC1D  B8        CLV                             A:44 X:00 Y:44 P:66 SP:FB PPU:10482,31446,CYC:10482
DC1E  A0 99     LDY #$99                        A:44 X:00 Y:44 P:26 SP:FB PPU:10484,31452,CYC:10484
DC20  A2 80     LDX #$80                        A:44 X:00 Y:99 P:A4 SP:FB PPU:10486,31458,CYC:10486
DC22  94 85     STY $85,X @ 05 = 00             A:44 X:80 Y:99 P:A4 SP:FB PPU:10488,31464,CYC:10488
DC24  A5 05     LDA $05 = 99                    A:44 X:80 Y:99 P:A4 SP:FB PPU:10492,31476,CYC:10492
DC26  B0 06     BCS $DC2E                       A:99 X:80 Y:99 P:A4 SP:FB PPU:10495,31485,CYC:10495
DC28  C9 99     CMP #$99                        A:99 X:80 Y:99 P:A4 SP:FB PPU:10497,31491,CYC:10497
DC2A  D0 02     BNE $DC2E                       A:99 X:80 Y:99 P:27 SP:FB PPU:10499,31497,CYC:10499
DC2C  50 04     BVC $DC32                       A:99 X:80 Y:99 P:27 SP:FB PPU:10501,31503,CYC:10501
DC32  A0 0B     LDY #$0B                        A:99 X:80 Y:99 P:27 SP:FB PPU:10504,31512,CYC:10504
DC34  A9 AA     LDA #$AA                        A:99 X:80 Y:0B P:25 SP:FB PPU:10506,31518,CYC:10506
DC36  A2 78     LDX #$78                        A:AA X:80 Y:0B P:A5 SP:FB PPU:10508,31524,CYC:10508
DC38  85 78     STA $78 = 00                    A:AA X:78 Y:0B P:25 SP:FB PPU:10510,31530,CYC:10510
DC3A  20 B6 F7  JSR $F7B6                       A:AA X:78 Y:0B P:25 SP:FB PPU:10513,31539,CYC:10513
F7B6  18        CLC                             A:AA X:78 Y:0B P:25 SP:F9 PPU:10519,31557,CYC:10519
F7B7  A9 FF     LDA #$FF                        A:AA X:78 Y:0B P:24 SP:F9 PPU:10521,31563,CYC:10521
F7B9  85 01     STA $01 = FF                    A:FF X:78 Y:0B P:A4 SP:F9 PPU:10523,31569,CYC:10523
F7BB  24 01     BIT $01 = FF                    A:FF X:78 Y:0B P:A4 SP:F9 PPU:10526,31578,CYC:10526
F7BD  A9 55     LDA #$55                        A:FF X:78 Y:0B P:E4 SP:F9 PPU:10529,31587,CYC:10529
F7BF  60        RTS                             A:55 X:78 Y:0B P:64 SP:F9 PPU:10531,31593,CYC:10531
DC3D  15 00     ORA $00,X @ 78 = AA             A:55 X:78 Y:0B P:64 SP:FB PPU:10537,31611,CYC:10537
DC3F  20 C0 F7  JSR $F7C0                       A:FF X:78 Y:0B P:E4 SP:FB PPU:10541,31623,CYC:10541
F7C0  B0 09     BCS $F7CB                       A:FF X:78 Y:0B P:E4 SP:F9 PPU:10547,31641,CYC:10547
F7C2  10 07     BPL $F7CB                       A:FF X:78 Y:0B P:E4 SP:F9 PPU:10549,31647,CYC:10549
F7C4  C9 FF     CMP #$FF                        A:FF X:78 Y:0B P:E4 SP:F9 PPU:10551,31653,CYC:10551
F7C6  D0 03     BNE $F7CB                       A:FF X:78 Y:0B P:67 SP:F9 PPU:10553,31659,CYC:10553
F7C8  50 01     BVC $F7CB                       A:FF X:78 Y:0B P:67 SP:F9 PPU:10555,31665,CYC:10555
F7CA  60        RTS                             A:FF X:78 Y:0B P:67 SP:F9 PPU:10557,31671,CYC:10557
DC42  C8        INY                             A:FF X:78 Y:0B P:67 SP:FB PPU:10563,31689,CYC:10563
DC43  A9 00     LDA #$00                        A:FF X:78 Y:0C P:65 SP:FB PPU:10565,31695,CYC:10565
DC45  85 78     STA $78 = AA                    A:00 X:78 Y:0C P:67 SP:FB PPU:10567,31701,CYC:10567
DC47  20 CE F7  JSR $F7CE                       A:00 X:78 Y:0C P:67 SP:FB PPU:10570,31710,CYC:10570
F7CE  38        SEC                             A:00 X:78 Y:0C P:67 SP:F9 PPU:10576,31728,CYC:10576
F7CF  B8        CLV                             A:00 X:78 Y:0C P:67 SP:F9 PPU:10578,31734,CYC:10578
F7D0  A9 00     LDA #$00                        A:00 X:78 Y:0C P:27 SP:F9 PPU:10580,31740,CYC:10580
F7D2  60        RTS                             A:00 X:78 Y:0C P:27 SP:F9 PPU:10582,31746,CYC:10582
DC4A  15 00     ORA $00,X @ 78 = 00             A:00 X:78 Y:0C P:27 SP:FB PPU:10588,31764,CYC:10588
DC4C  20 D3 F7  JSR $F7D3                       A:00 X:78 Y:0C P:27 SP:FB PPU:10592,31776,CYC:10592
F7D3  D0 07     BNE $F7DC                       A:00 X:78 Y:0C P:27 SP:F9 PPU:10598,31794,CYC:10598
F7D5  70 05     BVS $F7DC                       A:00 X:78 Y:0C P:27 SP:F9 PPU:10600,31800,CYC:10600
F7D7  90 03     BCC $F7DC                       A:00 X:78 Y:0C P:27 SP:F9 PPU:10602,31806,CYC:10602
F7D9  30 01     BMI $F7DC                       A:00 X:78 Y:0C P:27 SP:F9 PPU:10604,31812,CYC:10604
F7DB  60        RTS                             A:00 X:78 Y:0C P:27 SP:F9 PPU:10606,31818,CYC:10606
DC4F  C8        INY                             A:00 X:78 Y:0C P:27 SP:FB PPU:10612,31836,CYC:10612
DC50  A9 AA     LDA #$AA                        A:00 X:78 Y:0D P:25 SP:FB PPU:10614,31842,CYC:10614
DC52  85 78     STA $78 = 00                    A:AA X:78 Y:0D P:A5 SP:FB PPU:10616,31848,CYC:10616
DC54  20 DF F7  JSR $F7DF                       A:AA X:78 Y:0D P:A5 SP:FB PPU:10619,31857,CYC:10619
F7DF  18        CLC                             A:AA X:78 Y:0D P:A5 SP:F9 PPU:10625,31875,CYC:10625
F7E0  24 01     BIT $01 = FF                    A:AA X:78 Y:0D P:A4 SP:F9 PPU:10627,31881,CYC:10627
F7E2  A9 55     LDA #$55                        A:AA X:78 Y:0D P:E4 SP:F9 PPU:10630,31890,CYC:10630
F7E4  60        RTS                             A:55 X:78 Y:0D P:64 SP:F9 PPU:10632,31896,CYC:10632
DC57  35 00     AND $00,X @ 78 = AA             A:55 X:78 Y:0D P:64 SP:FB PPU:10638,31914,CYC:10638
DC59  20 E5 F7  JSR $F7E5                       A:00 X:78 Y:0D P:66 SP:FB PPU:10642,31926,CYC:10642
F7E5  D0 07     BNE $F7EE                       A:00 X:78 Y:0D P:66 SP:F9 PPU:10648,31944,CYC:10648
F7E7  50 05     BVC $F7EE                       A:00 X:78 Y:0D P:66 SP:F9 PPU:10650,31950,CYC:10650
F7E9  B0 03     BCS $F7EE                       A:00 X:78 Y:0D P:66 SP:F9 PPU:10652,31956,CYC:10652
F7EB  30 01     BMI $F7EE                       A:00 X:78 Y:0D P:66 SP:F9 PPU:10654,31962,CYC:10654
F7ED  60        RTS                             A:00 X:78 Y:0D P:66 SP:F9 PPU:10656,31968,CYC:10656
DC5C  C8        INY                             A:00 X:78 Y:0D P:66 SP:FB PPU:10662,31986,CYC:10662
DC5D  A9 EF     LDA #$EF                        A:00 X:78 Y:0E P:64 SP:FB PPU:10664,31992,CYC:10664
DC5F  85 78     STA $78 = AA                    A:EF X:78 Y:0E P:E4 SP:FB PPU:10666,31998,CYC:10666
DC61  20 F1 F7  JSR $F7F1                       A:EF X:78 Y:0E P:E4 SP:FB PPU:10669,32007,CYC:10669
F7F1  38        SEC                             A:EF X:78 Y:0E P:E4 SP:F9 PPU:10675,32025,CYC:10675
F7F2  B8        CLV                             A:EF X:78 Y:0E P:E5 SP:F9 PPU:10677,32031,CYC:10677
F7F3  A9 F8     LDA #$F8                        A:EF X:78 Y:0E P:A5 SP:F9 PPU:10679,32037,CYC:10679
F7F5  60        RTS                             A:F8 X:78 Y:0E P:A5 SP:F9 PPU:10681,32043,CYC:10681
DC64  35 00     AND $00,X @ 78 = EF             A:F8 X:78 Y:0E P:A5 SP:FB PPU:10687,32061,CYC:10687
DC66  20 F6 F7  JSR $F7F6                       A:E8 X:78 Y:0E P:A5 SP:FB PPU:10691,32073,CYC:10691
F7F6  90 09     BCC $F801                       A:E8 X:78 Y:0E P:A5 SP:F9 PPU:10697,32091,CYC:10697
F7F8  10 07     BPL $F801                       A:E8 X:78 Y:0E P:A5 SP:F9 PPU:10699,32097,CYC:10699
F7FA  C9 E8     CMP #$E8                        A:E8 X:78 Y:0E P:A5 SP:F9 PPU:10701,32103,CYC:10701
F7FC  D0 03     BNE $F801                       A:E8 X:78 Y:0E P:27 SP:F9 PPU:10703,32109,CYC:10703
F7FE  70 01     BVS $F801                       A:E8 X:78 Y:0E P:27 SP:F9 PPU:10705,32115,CYC:10705
F800  60        RTS                             A:E8 X:78 Y:0E P:27 SP:F9 PPU:10707,32121,CYC:10707
DC69  C8        INY                             A:E8 X:78 Y:0E P:27 SP:FB PPU:10713,32139,CYC:10713
DC6A  A9 AA     LDA #$AA                        A:E8 X:78 Y:0F P:25 SP:FB PPU:10715,32145,CYC:10715
DC6C  85 78     STA $78 = EF                    A:AA X:78 Y:0F P:A5 SP:FB PPU:10717,32151,CYC:10717
DC6E  20 04 F8  JSR $F804                       A:AA X:78 Y:0F P:A5 SP:FB PPU:10720,32160,CYC:10720
F804  18        CLC                             A:AA X:78 Y:0F P:A5 SP:F9 PPU:10726,32178,CYC:10726
F805  24 01     BIT $01 = FF                    A:AA X:78 Y:0F P:A4 SP:F9 PPU:10728,32184,CYC:10728
F807  A9 5F     LDA #$5F                        A:AA X:78 Y:0F P:E4 SP:F9 PPU:10731,32193,CYC:10731
F809  60        RTS                             A:5F X:78 Y:0F P:64 SP:F9 PPU:10733,32199,CYC:10733
DC71  55 00     EOR $00,X @ 78 = AA             A:5F X:78 Y:0F P:64 SP:FB PPU:10739,32217,CYC:10739
DC73  20 0A F8  JSR $F80A                       A:F5 X:78 Y:0F P:E4 SP:FB PPU:10743,32229,CYC:10743
F80A  B0 09     BCS $F815                       A:F5 X:78 Y:0F P:E4 SP:F9 PPU:10749,32247,CYC:10749
F80C  10 07     BPL $F815                       A:F5 X:78 Y:0F P:E4 SP:F9 PPU:10751,32253,CYC:10751
F80E  C9 F5     CMP #$F5                        A:F5 X:78 Y:0F P:E4 SP:F9 PPU:10753,32259,CYC:10753
F810  D0 03     BNE $F815                       A:F5 X:78 Y:0F P:67 SP:F9 PPU:10755,32265,CYC:10755
F812  50 01     BVC $F815                       A:F5 X:78 Y:0F P:67 SP:F9 PPU:10757,32271,CYC:10757
F814  60        RTS                             A:F5 X:78 Y:0F P:67 SP:F9 PPU:10759,32277,CYC:10759
DC76  C8        INY                             A:F5 X:78 Y:0F P:67 SP:FB PPU:10765,32295,CYC:10765
DC77  A9 70     LDA #$70                        A:F5 X:78 Y:10 P:65 SP:FB PPU:10767,32301,CYC:10767
DC79  85 78     STA $78 = AA                    A:70 X:78 Y:10 P:65 SP:FB PPU:10769,32307,CYC:10769
DC7B  20 18 F8  JSR $F818                       A:70 X:78 Y:10 P:65 SP:FB PPU:10772,32316,CYC:10772
F818  38        SEC                             A:70 X:78 Y:10 P:65 SP:F9 PPU:10778,32334,CYC:10778
F819  B8        CLV                             A:70 X:78 Y:10 P:65 SP:F9 PPU:10780,32340,CYC:10780
F81A  A9 70     LDA #$70                        A:70 X:78 Y:10 P:25 SP:F9 PPU:10782,32346,CYC:10782
F81C  60        RTS                             A:70 X:78 Y:10 P:25 SP:F9 PPU:10784,32352,CYC:10784
DC7E  55 00     EOR $00,X @ 78 = 70             A:70 X:78 Y:10 P:25 SP:FB PPU:10790,32370,CYC:10790
DC80  20 1D F8  JSR $F81D                       A:00 X:78 Y:10 P:27 SP:FB PPU:10794,32382,CYC:10794
F81D  D0 07     BNE $F826                       A:00 X:78 Y:10 P:27 SP:F9 PPU:10800,32400,CYC:10800
F81F  70 05     BVS $F826                       A:00 X:78 Y:10 P:27 SP:F9 PPU:10802,32406,CYC:10802
F821  90 03     BCC $F826                       A:00 X:78 Y:10 P:27 SP:F9 PPU:10804,32412,CYC:10804
F823  30 01     BMI $F826                       A:00 X:78 Y:10 P:27 SP:F9 PPU:10806,32418,CYC:10806
F825  60        RTS                             A:00 X:78 Y:10 P:27 SP:F9 PPU:10808,32424,CYC:10808
DC83  C8        INY                             A:00 X:78 Y:10 P:27 SP:FB PPU:10814,32442,CYC:10814
DC84  A9 69     LDA #$69                        A:00 X:78 Y:11 P:25 SP:FB PPU:10816,32448,CYC:10816
DC86  85 78     STA $78 = 70                    A:69 X:78 Y:11 P:25 SP:FB PPU:10818,32454,CYC:10818
DC88  20 29 F8  JSR $F829                       A:69 X:78 Y:11 P:25 SP:FB PPU:10821,32463,CYC:10821
F829  18        CLC                             A:69 X:78 Y:11 P:25 SP:F9 PPU:10827,32481,CYC:10827
F82A  24 01     BIT $01 = FF                    A:69 X:78 Y:11 P:24 SP:F9 PPU:10829,32487,CYC:10829
F82C  A9 00     LDA #$00                        A:69 X:78 Y:11 P:E4 SP:F9 PPU:10832,32496,CYC:10832
F82E  60        RTS                             A:00 X:78 Y:11 P:66 SP:F9 PPU:10834,32502,CYC:10834
DC8B  75 00     ADC $00,X @ 78 = 69             A:00 X:78 Y:11 P:66 SP:FB PPU:10840,32520,CYC:10840
DC8D  20 2F F8  JSR $F82F                       A:69 X:78 Y:11 P:24 SP:FB PPU:10844,32532,CYC:10844
F82F  30 09     BMI $F83A                       A:69 X:78 Y:11 P:24 SP:F9 PPU:10850,32550,CYC:10850
F831  B0 07     BCS $F83A                       A:69 X:78 Y:11 P:24 SP:F9 PPU:10852,32556,CYC:10852
F833  C9 69     CMP #$69                        A:69 X:78 Y:11 P:24 SP:F9 PPU:10854,32562,CYC:10854
F835  D0 03     BNE $F83A                       A:69 X:78 Y:11 P:27 SP:F9 PPU:10856,32568,CYC:10856
F837  70 01     BVS $F83A                       A:69 X:78 Y:11 P:27 SP:F9 PPU:10858,32574,CYC:10858
F839  60        RTS                             A:69 X:78 Y:11 P:27 SP:F9 PPU:10860,32580,CYC:10860
DC90  C8        INY                             A:69 X:78 Y:11 P:27 SP:FB PPU:10866,32598,CYC:10866
DC91  20 3D F8  JSR $F83D                       A:69 X:78 Y:12 P:25 SP:FB PPU:10868,32604,CYC:10868
F83D  38        SEC                             A:69 X:78 Y:12 P:25 SP:F9 PPU:10874,32622,CYC:10874
F83E  24 01     BIT $01 = FF                    A:69 X:78 Y:12 P:25 SP:F9 PPU:10876,32628,CYC:10876
F840  A9 00     LDA #$00                        A:69 X:78 Y:12 P:E5 SP:F9 PPU:10879,32637,CYC:10879
F842  60        RTS                             A:00 X:78 Y:12 P:67 SP:F9 PPU:10881,32643,CYC:10881
DC94  75 00     ADC $00,X @ 78 = 69             A:00 X:78 Y:12 P:67 SP:FB PPU:10887,32661,CYC:10887
DC96  20 43 F8  JSR $F843                       A:6A X:78 Y:12 P:24 SP:FB PPU:10891,32673,CYC:10891
F843  30 09     BMI $F84E                       A:6A X:78 Y:12 P:24 SP:F9 PPU:10897,32691,CYC:10897
F845  B0 07     BCS $F84E                       A:6A X:78 Y:12 P:24 SP:F9 PPU:10899,32697,CYC:10899
F847  C9 6A     CMP #$6A                        A:6A X:78 Y:12 P:24 SP:F9 PPU:10901,32703,CYC:10901
F849  D0 03     BNE $F84E                       A:6A X:78 Y:12 P:27 SP:F9 PPU:10903,32709,CYC:10903
F84B  70 01     BVS $F84E                       A:6A X:78 Y:12 P:27 SP:F9 PPU:10905,32715,CYC:10905
F84D  60        RTS                             A:6A X:78 Y:12 P:27 SP:F9 PPU:10907,32721,CYC:10907
DC99  C8        INY                             A:6A X:78 Y:12 P:27 SP:FB PPU:10913,32739,CYC:10913
DC9A  A9 7F     LDA #$7F                        A:6A X:78 Y:13 P:25 SP:FB PPU:10915,32745,CYC:10915
DC9C  85 78     STA $78 = 69                    A:7F X:78 Y:13 P:25 SP:FB PPU:10917,32751,CYC:10917
DC9E  20 51 F8  JSR $F851                       A:7F X:78 Y:13 P:25 SP:FB PPU:10920,32760,CYC:10920
F851  38        SEC                             A:7F X:78 Y:13 P:25 SP:F9 PPU:10926,32778,CYC:10926
F852  B8        CLV                             A:7F X:78 Y:13 P:25 SP:F9 PPU:10928,32784,CYC:10928
F853  A9 7F     LDA #$7F                        A:7F X:78 Y:13 P:25 SP:F9 PPU:10930,32790,CYC:10930
F855  60        RTS                             A:7F X:78 Y:13 P:25 SP:F9 PPU:10932,32796,CYC:10932
DCA1  75 00     ADC $00,X @ 78 = 7F             A:7F X:78 Y:13 P:25 SP:FB PPU:10938,32814,CYC:10938
DCA3  20 56 F8  JSR $F856                       A:FF X:78 Y:13 P:E4 SP:FB PPU:10942,32826,CYC:10942
F856  10 09     BPL $F861                       A:FF X:78 Y:13 P:E4 SP:F9 PPU:10948,32844,CYC:10948
F858  B0 07     BCS $F861                       A:FF X:78 Y:13 P:E4 SP:F9 PPU:10950,32850,CYC:10950
F85A  C9 FF     CMP #$FF                        A:FF X:78 Y:13 P:E4 SP:F9 PPU:10952,32856,CYC:10952
F85C  D0 03     BNE $F861                       A:FF X:78 Y:13 P:67 SP:F9 PPU:10954,32862,CYC:10954
F85E  50 01     BVC $F861                       A:FF X:78 Y:13 P:67 SP:F9 PPU:10956,32868,CYC:10956
F860  60        RTS                             A:FF X:78 Y:13 P:67 SP:F9 PPU:10958,32874,CYC:10958
DCA6  C8        INY                             A:FF X:78 Y:13 P:67 SP:FB PPU:10964,32892,CYC:10964
DCA7  A9 80     LDA #$80                        A:FF X:78 Y:14 P:65 SP:FB PPU:10966,32898,CYC:10966
DCA9  85 78     STA $78 = 7F                    A:80 X:78 Y:14 P:E5 SP:FB PPU:10968,32904,CYC:10968
DCAB  20 64 F8  JSR $F864                       A:80 X:78 Y:14 P:E5 SP:FB PPU:10971,32913,CYC:10971
F864  18        CLC                             A:80 X:78 Y:14 P:E5 SP:F9 PPU:10977,32931,CYC:10977
F865  24 01     BIT $01 = FF                    A:80 X:78 Y:14 P:E4 SP:F9 PPU:10979,32937,CYC:10979
F867  A9 7F     LDA #$7F                        A:80 X:78 Y:14 P:E4 SP:F9 PPU:10982,32946,CYC:10982
F869  60        RTS                             A:7F X:78 Y:14 P:64 SP:F9 PPU:10984,32952,CYC:10984
DCAE  75 00     ADC $00,X @ 78 = 80             A:7F X:78 Y:14 P:64 SP:FB PPU:10990,32970,CYC:10990
DCB0  20 6A F8  JSR $F86A                       A:FF X:78 Y:14 P:A4 SP:FB PPU:10994,32982,CYC:10994
F86A  10 09     BPL $F875                       A:FF X:78 Y:14 P:A4 SP:F9 PPU:11000,33000,CYC:11000
F86C  B0 07     BCS $F875                       A:FF X:78 Y:14 P:A4 SP:F9 PPU:11002,33006,CYC:11002
F86E  C9 FF     CMP #$FF                        A:FF X:78 Y:14 P:A4 SP:F9 PPU:11004,33012,CYC:11004
F870  D0 03     BNE $F875                       A:FF X:78 Y:14 P:27 SP:F9 PPU:11006,33018,CYC:11006
F872  70 01     BVS $F875                       A:FF X:78 Y:14 P:27 SP:F9 PPU:11008,33024,CYC:11008
F874  60        RTS                             A:FF X:78 Y:14 P:27 SP:F9 PPU:11010,33030,CYC:11010
DCB3  C8        INY                             A:FF X:78 Y:14 P:27 SP:FB PPU:11016,33048,CYC:11016
DCB4  20 78 F8  JSR $F878                       A:FF X:78 Y:15 P:25 SP:FB PPU:11018,33054,CYC:11018
F878  38        SEC                             A:FF X:78 Y:15 P:25 SP:F9 PPU:11024,33072,CYC:11024
F879  B8        CLV                             A:FF X:78 Y:15 P:25 SP:F9 PPU:11026,33078,CYC:11026
F87A  A9 7F     LDA #$7F                        A:FF X:78 Y:15 P:25 SP:F9 PPU:11028,33084,CYC:11028
F87C  60        RTS                             A:7F X:78 Y:15 P:25 SP:F9 PPU:11030,33090,CYC:11030
DCB7  75 00     ADC $00,X @ 78 = 80             A:7F X:78 Y:15 P:25 SP:FB PPU:11036,33108,CYC:11036
DCB9  20 7D F8  JSR $F87D                       A:00 X:78 Y:15 P:27 SP:FB PPU:11040,33120,CYC:11040
F87D  D0 07     BNE $F886                       A:00 X:78 Y:15 P:27 SP:F9 PPU:11046,33138,CYC:11046
F87F  30 05     BMI $F886                       A:00 X:78 Y:15 P:27 SP:F9 PPU:11048,33144,CYC:11048
F881  70 03     BVS $F886                       A:00 X:78 Y:15 P:27 SP:F9 PPU:11050,33150,CYC:11050
F883  90 01     BCC $F886                       A:00 X:78 Y:15 P:27 SP:F9 PPU:11052,33156,CYC:11052
F885  60        RTS                             A:00 X:78 Y:15 P:27 SP:F9 PPU:11054,33162,CYC:11054
DCBC  C8        INY                             A:00 X:78 Y:15 P:27 SP:FB PPU:11060,33180,CYC:11060
DCBD  A9 40     LDA #$40                        A:00 X:78 Y:16 P:25 SP:FB PPU:11062,33186,CYC:11062
DCBF  85 78     STA $78 = 80                    A:40 X:78 Y:16 P:25 SP:FB PPU:11064,33192,CYC:11064
DCC1  20 89 F8  JSR $F889                       A:40 X:78 Y:16 P:25 SP:FB PPU:11067,33201,CYC:11067
F889  24 01     BIT $01 = FF                    A:40 X:78 Y:16 P:25 SP:F9 PPU:11073,33219,CYC:11073
F88B  A9 40     LDA #$40                        A:40 X:78 Y:16 P:E5 SP:F9 PPU:11076,33228,CYC:11076
F88D  60        RTS                             A:40 X:78 Y:16 P:65 SP:F9 PPU:11078,33234,CYC:11078
DCC4  D5 00     CMP $00,X @ 78 = 40             A:40 X:78 Y:16 P:65 SP:FB PPU:11084,33252,CYC:11084
DCC6  20 8E F8  JSR $F88E                       A:40 X:78 Y:16 P:67 SP:FB PPU:11088,33264,CYC:11088
F88E  30 07     BMI $F897                       A:40 X:78 Y:16 P:67 SP:F9 PPU:11094,33282,CYC:11094
F890  90 05     BCC $F897                       A:40 X:78 Y:16 P:67 SP:F9 PPU:11096,33288,CYC:11096
F892  D0 03     BNE $F897                       A:40 X:78 Y:16 P:67 SP:F9 PPU:11098,33294,CYC:11098
F894  50 01     BVC $F897                       A:40 X:78 Y:16 P:67 SP:F9 PPU:11100,33300,CYC:11100
F896  60        RTS                             A:40 X:78 Y:16 P:67 SP:F9 PPU:11102,33306,CYC:11102
DCC9  C8        INY                             A:40 X:78 Y:16 P:67 SP:FB PPU:11108,33324,CYC:11108
DCCA  48        PHA                             A:40 X:78 Y:17 P:65 SP:FB PPU:11110,33330,CYC:11110
DCCB  A9 3F     LDA #$3F                        A:40 X:78 Y:17 P:65 SP:FA PPU:11113,33339,CYC:11113
DCCD  85 78     STA $78 = 40                    A:3F X:78 Y:17 P:65 SP:FA PPU:11115,33345,CYC:11115
DCCF  68        PLA                             A:3F X:78 Y:17 P:65 SP:FA PPU:11118,33354,CYC:11118
DCD0  20 9A F8  JSR $F89A                       A:40 X:78 Y:17 P:65 SP:FB PPU:11122,33366,CYC:11122
F89A  B8        CLV                             A:40 X:78 Y:17 P:65 SP:F9 PPU:11128,33384,CYC:11128
F89B  60        RTS                             A:40 X:78 Y:17 P:25 SP:F9 PPU:11130,33390,CYC:11130
DCD3  D5 00     CMP $00,X @ 78 = 3F             A:40 X:78 Y:17 P:25 SP:FB PPU:11136,33408,CYC:11136
DCD5  20 9C F8  JSR $F89C                       A:40 X:78 Y:17 P:25 SP:FB PPU:11140,33420,CYC:11140
F89C  F0 07     BEQ $F8A5                       A:40 X:78 Y:17 P:25 SP:F9 PPU:11146,33438,CYC:11146
F89E  30 05     BMI $F8A5                       A:40 X:78 Y:17 P:25 SP:F9 PPU:11148,33444,CYC:11148
F8A0  90 03     BCC $F8A5                       A:40 X:78 Y:17 P:25 SP:F9 PPU:11150,33450,CYC:11150
F8A2  70 01     BVS $F8A5                       A:40 X:78 Y:17 P:25 SP:F9 PPU:11152,33456,CYC:11152
F8A4  60        RTS                             A:40 X:78 Y:17 P:25 SP:F9 PPU:11154,33462,CYC:11154
DCD8  C8        INY                             A:40 X:78 Y:17 P:25 SP:FB PPU:11160,33480,CYC:11160
DCD9  48        PHA                             A:40 X:78 Y:18 P:25 SP:FB PPU:11162,33486,CYC:11162
DCDA  A9 41     LDA #$41                        A:40 X:78 Y:18 P:25 SP:FA PPU:11165,33495,CYC:11165
DCDC  85 78     STA $78 = 3F                    A:41 X:78 Y:18 P:25 SP:FA PPU:11167,33501,CYC:11167
DCDE  68        PLA                             A:41 X:78 Y:18 P:25 SP:FA PPU:11170,33510,CYC:11170
DCDF  D5 00     CMP $00,X @ 78 = 41             A:40 X:78 Y:18 P:25 SP:FB PPU:11174,33522,CYC:11174
DCE1  20 A8 F8  JSR $F8A8                       A:40 X:78 Y:18 P:A4 SP:FB PPU:11178,33534,CYC:11178
F8A8  F0 05     BEQ $F8AF                       A:40 X:78 Y:18 P:A4 SP:F9 PPU:11184,33552,CYC:11184
F8AA  10 03     BPL $F8AF                       A:40 X:78 Y:18 P:A4 SP:F9 PPU:11186,33558,CYC:11186
F8AC  10 01     BPL $F8AF                       A:40 X:78 Y:18 P:A4 SP:F9 PPU:11188,33564,CYC:11188
F8AE  60        RTS                             A:40 X:78 Y:18 P:A4 SP:F9 PPU:11190,33570,CYC:11190
DCE4  C8        INY                             A:40 X:78 Y:18 P:A4 SP:FB PPU:11196,33588,CYC:11196
DCE5  48        PHA                             A:40 X:78 Y:19 P:24 SP:FB PPU:11198,33594,CYC:11198
DCE6  A9 00     LDA #$00                        A:40 X:78 Y:19 P:24 SP:FA PPU:11201,33603,CYC:11201
DCE8  85 78     STA $78 = 41                    A:00 X:78 Y:19 P:26 SP:FA PPU:11203,33609,CYC:11203
DCEA  68        PLA                             A:00 X:78 Y:19 P:26 SP:FA PPU:11206,33618,CYC:11206
DCEB  20 B2 F8  JSR $F8B2                       A:40 X:78 Y:19 P:24 SP:FB PPU:11210,33630,CYC:11210
F8B2  A9 80     LDA #$80                        A:40 X:78 Y:19 P:24 SP:F9 PPU:11216,33648,CYC:11216
F8B4  60        RTS                             A:80 X:78 Y:19 P:A4 SP:F9 PPU:11218,33654,CYC:11218
DCEE  D5 00     CMP $00,X @ 78 = 00             A:80 X:78 Y:19 P:A4 SP:FB PPU:11224,33672,CYC:11224
DCF0  20 B5 F8  JSR $F8B5                       A:80 X:78 Y:19 P:A5 SP:FB PPU:11228,33684,CYC:11228
F8B5  F0 05     BEQ $F8BC                       A:80 X:78 Y:19 P:A5 SP:F9 PPU:11234,33702,CYC:11234
F8B7  10 03     BPL $F8BC                       A:80 X:78 Y:19 P:A5 SP:F9 PPU:11236,33708,CYC:11236
F8B9  90 01     BCC $F8BC                       A:80 X:78 Y:19 P:A5 SP:F9 PPU:11238,33714,CYC:11238
F8BB  60        RTS                             A:80 X:78 Y:19 P:A5 SP:F9 PPU:11240,33720,CYC:11240
DCF3  C8        INY                             A:80 X:78 Y:19 P:A5 SP:FB PPU:11246,33738,CYC:11246
DCF4  48        PHA                             A:80 X:78 Y:1A P:25 SP:FB PPU:11248,33744,CYC:11248
DCF5  A9 80     LDA #$80                        A:80 X:78 Y:1A P:25 SP:FA PPU:11251,33753,CYC:11251
DCF7  85 78     STA $78 = 00                    A:80 X:78 Y:1A P:A5 SP:FA PPU:11253,33759,CYC:11253
DCF9  68        PLA                             A:80 X:78 Y:1A P:A5 SP:FA PPU:11256,33768,CYC:11256
DCFA  D5 00     CMP $00,X @ 78 = 80             A:80 X:78 Y:1A P:A5 SP:FB PPU:11260,33780,CYC:11260
DCFC  20 BF F8  JSR $F8BF                       A:80 X:78 Y:1A P:27 SP:FB PPU:11264,33792,CYC:11264
F8BF  D0 05     BNE $F8C6                       A:80 X:78 Y:1A P:27 SP:F9 PPU:11270,33810,CYC:11270
F8C1  30 03     BMI $F8C6                       A:80 X:78 Y:1A P:27 SP:F9 PPU:11272,33816,CYC:11272
F8C3  90 01     BCC $F8C6                       A:80 X:78 Y:1A P:27 SP:F9 PPU:11274,33822,CYC:11274
F8C5  60        RTS                             A:80 X:78 Y:1A P:27 SP:F9 PPU:11276,33828,CYC:11276
DCFF  C8        INY                             A:80 X:78 Y:1A P:27 SP:FB PPU:11282,33846,CYC:11282
DD00  48        PHA                             A:80 X:78 Y:1B P:25 SP:FB PPU:11284,33852,CYC:11284
DD01  A9 81     LDA #$81                        A:80 X:78 Y:1B P:25 SP:FA PPU:11287,33861,CYC:11287
DD03  85 78     STA $78 = 80                    A:81 X:78 Y:1B P:A5 SP:FA PPU:11289,33867,CYC:11289
DD05  68        PLA                             A:81 X:78 Y:1B P:A5 SP:FA PPU:11292,33876,CYC:11292
DD06  D5 00     CMP $00,X @ 78 = 81             A:80 X:78 Y:1B P:A5 SP:FB PPU:11296,33888,CYC:11296
DD08  20 C9 F8  JSR $F8C9                       A:80 X:78 Y:1B P:A4 SP:FB PPU:11300,33900,CYC:11300
F8C9  B0 05     BCS $F8D0                       A:80 X:78 Y:1B P:A4 SP:F9 PPU:11306,33918,CYC:11306
F8CB  F0 03     BEQ $F8D0                       A:80 X:78 Y:1B P:A4 SP:F9 PPU:11308,33924,CYC:11308
F8CD  10 01     BPL $F8D0                       A:80 X:78 Y:1B P:A4 SP:F9 PPU:11310,33930,CYC:11310
F8CF  60        RTS                             A:80 X:78 Y:1B P:A4 SP:F9 PPU:11312,33936,CYC:11312
DD0B  C8        INY                             A:80 X:78 Y:1B P:A4 SP:FB PPU:11318,33954,CYC:11318
DD0C  48        PHA                             A:80 X:78 Y:1C P:24 SP:FB PPU:11320,33960,CYC:11320
DD0D  A9 7F     LDA #$7F                        A:80 X:78 Y:1C P:24 SP:FA PPU:11323,33969,CYC:11323
DD0F  85 78     STA $78 = 81                    A:7F X:78 Y:1C P:24 SP:FA PPU:11325,33975,CYC:11325
DD11  68        PLA                             A:7F X:78 Y:1C P:24 SP:FA PPU:11328,33984,CYC:11328
DD12  D5 00     CMP $00,X @ 78 = 7F             A:80 X:78 Y:1C P:A4 SP:FB PPU:11332,33996,CYC:11332
DD14  20 D3 F8  JSR $F8D3                       A:80 X:78 Y:1C P:25 SP:FB PPU:11336,34008,CYC:11336
F8D3  90 05     BCC $F8DA                       A:80 X:78 Y:1C P:25 SP:F9 PPU:11342,34026,CYC:11342
F8D5  F0 03     BEQ $F8DA                       A:80 X:78 Y:1C P:25 SP:F9 PPU:11344,34032,CYC:11344
F8D7  30 01     BMI $F8DA                       A:80 X:78 Y:1C P:25 SP:F9 PPU:11346,34038,CYC:11346
F8D9  60        RTS                             A:80 X:78 Y:1C P:25 SP:F9 PPU:11348,34044,CYC:11348
DD17  C8        INY                             A:80 X:78 Y:1C P:25 SP:FB PPU:11354,34062,CYC:11354
DD18  A9 40     LDA #$40                        A:80 X:78 Y:1D P:25 SP:FB PPU:11356,34068,CYC:11356
DD1A  85 78     STA $78 = 7F                    A:40 X:78 Y:1D P:25 SP:FB PPU:11358,34074,CYC:11358
DD1C  20 31 F9  JSR $F931                       A:40 X:78 Y:1D P:25 SP:FB PPU:11361,34083,CYC:11361
F931  24 01     BIT $01 = FF                    A:40 X:78 Y:1D P:25 SP:F9 PPU:11367,34101,CYC:11367
F933  A9 40     LDA #$40                        A:40 X:78 Y:1D P:E5 SP:F9 PPU:11370,34110,CYC:11370
F935  38        SEC                             A:40 X:78 Y:1D P:65 SP:F9 PPU:11372,34116,CYC:11372
F936  60        RTS                             A:40 X:78 Y:1D P:65 SP:F9 PPU:11374,34122,CYC:11374
DD1F  F5 00     SBC $00,X @ 78 = 40             A:40 X:78 Y:1D P:65 SP:FB PPU:11380,34140,CYC:11380
DD21  20 37 F9  JSR $F937                       A:00 X:78 Y:1D P:27 SP:FB PPU:11384,34152,CYC:11384
F937  30 0B     BMI $F944                       A:00 X:78 Y:1D P:27 SP:F9 PPU:11390,34170,CYC:11390
F939  90 09     BCC $F944                       A:00 X:78 Y:1D P:27 SP:F9 PPU:11392,34176,CYC:11392
F93B  D0 07     BNE $F944                       A:00 X:78 Y:1D P:27 SP:F9 PPU:11394,34182,CYC:11394
F93D  70 05     BVS $F944                       A:00 X:78 Y:1D P:27 SP:F9 PPU:11396,34188,CYC:11396
F93F  C9 00     CMP #$00                        A:00 X:78 Y:1D P:27 SP:F9 PPU:11398,34194,CYC:11398
F941  D0 01     BNE $F944                       A:00 X:78 Y:1D P:27 SP:F9 PPU:11400,34200,CYC:11400
F943  60        RTS                             A:00 X:78 Y:1D P:27 SP:F9 PPU:11402,34206,CYC:11402
DD24  C8        INY                             A:00 X:78 Y:1D P:27 SP:FB PPU:11408,34224,CYC:11408
DD25  A9 3F     LDA #$3F                        A:00 X:78 Y:1E P:25 SP:FB PPU:11410,34230,CYC:11410
DD27  85 78     STA $78 = 40                    A:3F X:78 Y:1E P:25 SP:FB PPU:11412,34236,CYC:11412
DD29  20 47 F9  JSR $F947                       A:3F X:78 Y:1E P:25 SP:FB PPU:11415,34245,CYC:11415
F947  B8        CLV                             A:3F X:78 Y:1E P:25 SP:F9 PPU:11421,34263,CYC:11421
F948  38        SEC                             A:3F X:78 Y:1E P:25 SP:F9 PPU:11423,34269,CYC:11423
F949  A9 40     LDA #$40                        A:3F X:78 Y:1E P:25 SP:F9 PPU:11425,34275,CYC:11425
F94B  60        RTS                             A:40 X:78 Y:1E P:25 SP:F9 PPU:11427,34281,CYC:11427
DD2C  F5 00     SBC $00,X @ 78 = 3F             A:40 X:78 Y:1E P:25 SP:FB PPU:11433,34299,CYC:11433
DD2E  20 4C F9  JSR $F94C                       A:01 X:78 Y:1E P:25 SP:FB PPU:11437,34311,CYC:11437
F94C  F0 0B     BEQ $F959                       A:01 X:78 Y:1E P:25 SP:F9 PPU:11443,34329,CYC:11443
F94E  30 09     BMI $F959                       A:01 X:78 Y:1E P:25 SP:F9 PPU:11445,34335,CYC:11445
F950  90 07     BCC $F959                       A:01 X:78 Y:1E P:25 SP:F9 PPU:11447,34341,CYC:11447
F952  70 05     BVS $F959                       A:01 X:78 Y:1E P:25 SP:F9 PPU:11449,34347,CYC:11449
F954  C9 01     CMP #$01                        A:01 X:78 Y:1E P:25 SP:F9 PPU:11451,34353,CYC:11451
F956  D0 01     BNE $F959                       A:01 X:78 Y:1E P:27 SP:F9 PPU:11453,34359,CYC:11453
F958  60        RTS                             A:01 X:78 Y:1E P:27 SP:F9 PPU:11455,34365,CYC:11455
DD31  C8        INY                             A:01 X:78 Y:1E P:27 SP:FB PPU:11461,34383,CYC:11461
DD32  A9 41     LDA #$41                        A:01 X:78 Y:1F P:25 SP:FB PPU:11463,34389,CYC:11463
DD34  85 78     STA $78 = 3F                    A:41 X:78 Y:1F P:25 SP:FB PPU:11465,34395,CYC:11465
DD36  20 5C F9  JSR $F95C                       A:41 X:78 Y:1F P:25 SP:FB PPU:11468,34404,CYC:11468
F95C  A9 40     LDA #$40                        A:41 X:78 Y:1F P:25 SP:F9 PPU:11474,34422,CYC:11474
F95E  38        SEC                             A:40 X:78 Y:1F P:25 SP:F9 PPU:11476,34428,CYC:11476
F95F  24 01     BIT $01 = FF                    A:40 X:78 Y:1F P:25 SP:F9 PPU:11478,34434,CYC:11478
F961  60        RTS                             A:40 X:78 Y:1F P:E5 SP:F9 PPU:11481,34443,CYC:11481
DD39  F5 00     SBC $00,X @ 78 = 41             A:40 X:78 Y:1F P:E5 SP:FB PPU:11487,34461,CYC:11487
DD3B  20 62 F9  JSR $F962                       A:FF X:78 Y:1F P:A4 SP:FB PPU:11491,34473,CYC:11491
F962  B0 0B     BCS $F96F                       A:FF X:78 Y:1F P:A4 SP:F9 PPU:11497,34491,CYC:11497
F964  F0 09     BEQ $F96F                       A:FF X:78 Y:1F P:A4 SP:F9 PPU:11499,34497,CYC:11499
F966  10 07     BPL $F96F                       A:FF X:78 Y:1F P:A4 SP:F9 PPU:11501,34503,CYC:11501
F968  70 05     BVS $F96F                       A:FF X:78 Y:1F P:A4 SP:F9 PPU:11503,34509,CYC:11503
F96A  C9 FF     CMP #$FF                        A:FF X:78 Y:1F P:A4 SP:F9 PPU:11505,34515,CYC:11505
F96C  D0 01     BNE $F96F                       A:FF X:78 Y:1F P:27 SP:F9 PPU:11507,34521,CYC:11507
F96E  60        RTS                             A:FF X:78 Y:1F P:27 SP:F9 PPU:11509,34527,CYC:11509
DD3E  C8        INY                             A:FF X:78 Y:1F P:27 SP:FB PPU:11515,34545,CYC:11515
DD3F  A9 00     LDA #$00                        A:FF X:78 Y:20 P:25 SP:FB PPU:11517,34551,CYC:11517
DD41  85 78     STA $78 = 41                    A:00 X:78 Y:20 P:27 SP:FB PPU:11519,34557,CYC:11519
DD43  20 72 F9  JSR $F972                       A:00 X:78 Y:20 P:27 SP:FB PPU:11522,34566,CYC:11522
F972  18        CLC                             A:00 X:78 Y:20 P:27 SP:F9 PPU:11528,34584,CYC:11528
F973  A9 80     LDA #$80                        A:00 X:78 Y:20 P:26 SP:F9 PPU:11530,34590,CYC:11530
F975  60        RTS                             A:80 X:78 Y:20 P:A4 SP:F9 PPU:11532,34596,CYC:11532
DD46  F5 00     SBC $00,X @ 78 = 00             A:80 X:78 Y:20 P:A4 SP:FB PPU:11538,34614,CYC:11538
DD48  20 76 F9  JSR $F976                       A:7F X:78 Y:20 P:65 SP:FB PPU:11542,34626,CYC:11542
F976  90 05     BCC $F97D                       A:7F X:78 Y:20 P:65 SP:F9 PPU:11548,34644,CYC:11548
F978  C9 7F     CMP #$7F                        A:7F X:78 Y:20 P:65 SP:F9 PPU:11550,34650,CYC:11550
F97A  D0 01     BNE $F97D                       A:7F X:78 Y:20 P:67 SP:F9 PPU:11552,34656,CYC:11552
F97C  60        RTS                             A:7F X:78 Y:20 P:67 SP:F9 PPU:11554,34662,CYC:11554
DD4B  C8        INY                             A:7F X:78 Y:20 P:67 SP:FB PPU:11560,34680,CYC:11560
DD4C  A9 7F     LDA #$7F                        A:7F X:78 Y:21 P:65 SP:FB PPU:11562,34686,CYC:11562
DD4E  85 78     STA $78 = 00                    A:7F X:78 Y:21 P:65 SP:FB PPU:11564,34692,CYC:11564
DD50  20 80 F9  JSR $F980                       A:7F X:78 Y:21 P:65 SP:FB PPU:11567,34701,CYC:11567
F980  38        SEC                             A:7F X:78 Y:21 P:65 SP:F9 PPU:11573,34719,CYC:11573
F981  A9 81     LDA #$81                        A:7F X:78 Y:21 P:65 SP:F9 PPU:11575,34725,CYC:11575
F983  60        RTS                             A:81 X:78 Y:21 P:E5 SP:F9 PPU:11577,34731,CYC:11577
DD53  F5 00     SBC $00,X @ 78 = 7F             A:81 X:78 Y:21 P:E5 SP:FB PPU:11583,34749,CYC:11583
DD55  20 84 F9  JSR $F984                       A:02 X:78 Y:21 P:65 SP:FB PPU:11587,34761,CYC:11587
F984  50 07     BVC $F98D                       A:02 X:78 Y:21 P:65 SP:F9 PPU:11593,34779,CYC:11593
F986  90 05     BCC $F98D                       A:02 X:78 Y:21 P:65 SP:F9 PPU:11595,34785,CYC:11595
F988  C9 02     CMP #$02                        A:02 X:78 Y:21 P:65 SP:F9 PPU:11597,34791,CYC:11597
F98A  D0 01     BNE $F98D                       A:02 X:78 Y:21 P:67 SP:F9 PPU:11599,34797,CYC:11599
F98C  60        RTS                             A:02 X:78 Y:21 P:67 SP:F9 PPU:11601,34803,CYC:11601
DD58  A9 AA     LDA #$AA                        A:02 X:78 Y:21 P:67 SP:FB PPU:11607,34821,CYC:11607
DD5A  85 33     STA $33 = 44                    A:AA X:78 Y:21 P:E5 SP:FB PPU:11609,34827,CYC:11609
DD5C  A9 BB     LDA #$BB                        A:AA X:78 Y:21 P:E5 SP:FB PPU:11612,34836,CYC:11612
DD5E  85 89     STA $89 = BB                    A:BB X:78 Y:21 P:E5 SP:FB PPU:11614,34842,CYC:11614
DD60  A2 00     LDX #$00                        A:BB X:78 Y:21 P:E5 SP:FB PPU:11617,34851,CYC:11617
DD62  A0 66     LDY #$66                        A:BB X:00 Y:21 P:67 SP:FB PPU:11619,34857,CYC:11619
DD64  24 01     BIT $01 = FF                    A:BB X:00 Y:66 P:65 SP:FB PPU:11621,34863,CYC:11621
DD66  38        SEC                             A:BB X:00 Y:66 P:E5 SP:FB PPU:11624,34872,CYC:11624
DD67  A9 00     LDA #$00                        A:BB X:00 Y:66 P:E5 SP:FB PPU:11626,34878,CYC:11626
DD69  B5 33     LDA $33,X @ 33 = AA             A:00 X:00 Y:66 P:67 SP:FB PPU:11628,34884,CYC:11628
DD6B  10 12     BPL $DD7F                       A:AA X:00 Y:66 P:E5 SP:FB PPU:11632,34896,CYC:11632
DD6D  F0 10     BEQ $DD7F                       A:AA X:00 Y:66 P:E5 SP:FB PPU:11634,34902,CYC:11634
DD6F  50 0E     BVC $DD7F                       A:AA X:00 Y:66 P:E5 SP:FB PPU:11636,34908,CYC:11636
DD71  90 0C     BCC $DD7F                       A:AA X:00 Y:66 P:E5 SP:FB PPU:11638,34914,CYC:11638
DD73  C0 66     CPY #$66                        A:AA X:00 Y:66 P:E5 SP:FB PPU:11640,34920,CYC:11640
DD75  D0 08     BNE $DD7F                       A:AA X:00 Y:66 P:67 SP:FB PPU:11642,34926,CYC:11642
DD77  E0 00     CPX #$00                        A:AA X:00 Y:66 P:67 SP:FB PPU:11644,34932,CYC:11644
DD79  D0 04     BNE $DD7F                       A:AA X:00 Y:66 P:67 SP:FB PPU:11646,34938,CYC:11646
DD7B  C9 AA     CMP #$AA                        A:AA X:00 Y:66 P:67 SP:FB PPU:11648,34944,CYC:11648
DD7D  F0 04     BEQ $DD83                       A:AA X:00 Y:66 P:67 SP:FB PPU:11650,34950,CYC:11650
DD83  A2 8A     LDX #$8A                        A:AA X:00 Y:66 P:67 SP:FB PPU:11653,34959,CYC:11653
DD85  A0 66     LDY #$66                        A:AA X:8A Y:66 P:E5 SP:FB PPU:11655,34965,CYC:11655
DD87  B8        CLV                             A:AA X:8A Y:66 P:65 SP:FB PPU:11657,34971,CYC:11657
DD88  18        CLC                             A:AA X:8A Y:66 P:25 SP:FB PPU:11659,34977,CYC:11659
DD89  A9 00     LDA #$00                        A:AA X:8A Y:66 P:24 SP:FB PPU:11661,34983,CYC:11661
DD8B  B5 FF     LDA $FF,X @ 89 = BB             A:00 X:8A Y:66 P:26 SP:FB PPU:11663,34989,CYC:11663
DD8D  10 12     BPL $DDA1                       A:BB X:8A Y:66 P:A4 SP:FB PPU:11667,35001,CYC:11667
DD8F  F0 10     BEQ $DDA1                       A:BB X:8A Y:66 P:A4 SP:FB PPU:11669,35007,CYC:11669
DD91  70 0E     BVS $DDA1                       A:BB X:8A Y:66 P:A4 SP:FB PPU:11671,35013,CYC:11671
DD93  B0 0C     BCS $DDA1                       A:BB X:8A Y:66 P:A4 SP:FB PPU:11673,35019,CYC:11673
DD95  C9 BB     CMP #$BB                        A:BB X:8A Y:66 P:A4 SP:FB PPU:11675,35025,CYC:11675
DD97  D0 08     BNE $DDA1                       A:BB X:8A Y:66 P:27 SP:FB PPU:11677,35031,CYC:11677
DD99  C0 66     CPY #$66                        A:BB X:8A Y:66 P:27 SP:FB PPU:11679,35037,CYC:11679
DD9B  D0 04     BNE $DDA1                       A:BB X:8A Y:66 P:27 SP:FB PPU:11681,35043,CYC:11681
DD9D  E0 8A     CPX #$8A                        A:BB X:8A Y:66 P:27 SP:FB PPU:11683,35049,CYC:11683
DD9F  F0 04     BEQ $DDA5                       A:BB X:8A Y:66 P:27 SP:FB PPU:11685,35055,CYC:11685
DDA5  24 01     BIT $01 = FF                    A:BB X:8A Y:66 P:27 SP:FB PPU:11688,35064,CYC:11688
DDA7  38        SEC                             A:BB X:8A Y:66 P:E5 SP:FB PPU:11691,35073,CYC:11691
DDA8  A9 44     LDA #$44                        A:BB X:8A Y:66 P:E5 SP:FB PPU:11693,35079,CYC:11693
DDAA  A2 00     LDX #$00                        A:44 X:8A Y:66 P:65 SP:FB PPU:11695,35085,CYC:11695
DDAC  95 33     STA $33,X @ 33 = AA             A:44 X:00 Y:66 P:67 SP:FB PPU:11697,35091,CYC:11697
DDAE  A5 33     LDA $33 = 44                    A:44 X:00 Y:66 P:67 SP:FB PPU:11701,35103,CYC:11701
DDB0  90 18     BCC $DDCA                       A:44 X:00 Y:66 P:65 SP:FB PPU:11704,35112,CYC:11704
DDB2  C9 44     CMP #$44                        A:44 X:00 Y:66 P:65 SP:FB PPU:11706,35118,CYC:11706
DDB4  D0 14     BNE $DDCA                       A:44 X:00 Y:66 P:67 SP:FB PPU:11708,35124,CYC:11708
DDB6  50 12     BVC $DDCA                       A:44 X:00 Y:66 P:67 SP:FB PPU:11710,35130,CYC:11710
DDB8  18        CLC                             A:44 X:00 Y:66 P:67 SP:FB PPU:11712,35136,CYC:11712
DDB9  B8        CLV                             A:44 X:00 Y:66 P:66 SP:FB PPU:11714,35142,CYC:11714
DDBA  A9 99     LDA #$99                        A:44 X:00 Y:66 P:26 SP:FB PPU:11716,35148,CYC:11716
DDBC  A2 80     LDX #$80                        A:99 X:00 Y:66 P:A4 SP:FB PPU:11718,35154,CYC:11718
DDBE  95 85     STA $85,X @ 05 = 99             A:99 X:80 Y:66 P:A4 SP:FB PPU:11720,35160,CYC:11720
DDC0  A5 05     LDA $05 = 99                    A:99 X:80 Y:66 P:A4 SP:FB PPU:11724,35172,CYC:11724
DDC2  B0 06     BCS $DDCA                       A:99 X:80 Y:66 P:A4 SP:FB PPU:11727,35181,CYC:11727
DDC4  C9 99     CMP #$99                        A:99 X:80 Y:66 P:A4 SP:FB PPU:11729,35187,CYC:11729
DDC6  D0 02     BNE $DDCA                       A:99 X:80 Y:66 P:27 SP:FB PPU:11731,35193,CYC:11731
DDC8  50 04     BVC $DDCE                       A:99 X:80 Y:66 P:27 SP:FB PPU:11733,35199,CYC:11733
DDCE  A0 25     LDY #$25                        A:99 X:80 Y:66 P:27 SP:FB PPU:11736,35208,CYC:11736
DDD0  A2 78     LDX #$78                        A:99 X:80 Y:25 P:25 SP:FB PPU:11738,35214,CYC:11738
DDD2  20 90 F9  JSR $F990                       A:99 X:78 Y:25 P:25 SP:FB PPU:11740,35220,CYC:11740
F990  A2 55     LDX #$55                        A:99 X:78 Y:25 P:25 SP:F9 PPU:11746,35238,CYC:11746
F992  A9 FF     LDA #$FF                        A:99 X:55 Y:25 P:25 SP:F9 PPU:11748,35244,CYC:11748
F994  85 01     STA $01 = FF                    A:FF X:55 Y:25 P:A5 SP:F9 PPU:11750,35250,CYC:11750
F996  EA        NOP                             A:FF X:55 Y:25 P:A5 SP:F9 PPU:11753,35259,CYC:11753
F997  24 01     BIT $01 = FF                    A:FF X:55 Y:25 P:A5 SP:F9 PPU:11755,35265,CYC:11755
F999  38        SEC                             A:FF X:55 Y:25 P:E5 SP:F9 PPU:11758,35274,CYC:11758
F99A  A9 01     LDA #$01                        A:FF X:55 Y:25 P:E5 SP:F9 PPU:11760,35280,CYC:11760
F99C  60        RTS                             A:01 X:55 Y:25 P:65 SP:F9 PPU:11762,35286,CYC:11762
DDD5  95 00     STA $00,X @ 55 = 00             A:01 X:55 Y:25 P:65 SP:FB PPU:11768,35304,CYC:11768
DDD7  56 00     LSR $00,X @ 55 = 01             A:01 X:55 Y:25 P:65 SP:FB PPU:11772,35316,CYC:11772
DDD9  B5 00     LDA $00,X @ 55 = 00             A:01 X:55 Y:25 P:67 SP:FB PPU:11778,35334,CYC:11778
DDDB  20 9D F9  JSR $F99D                       A:00 X:55 Y:25 P:67 SP:FB PPU:11782,35346,CYC:11782
F99D  90 1B     BCC $F9BA                       A:00 X:55 Y:25 P:67 SP:F9 PPU:11788,35364,CYC:11788
F99F  D0 19     BNE $F9BA                       A:00 X:55 Y:25 P:67 SP:F9 PPU:11790,35370,CYC:11790
F9A1  30 17     BMI $F9BA                       A:00 X:55 Y:25 P:67 SP:F9 PPU:11792,35376,CYC:11792
F9A3  50 15     BVC $F9BA                       A:00 X:55 Y:25 P:67 SP:F9 PPU:11794,35382,CYC:11794
F9A5  C9 00     CMP #$00                        A:00 X:55 Y:25 P:67 SP:F9 PPU:11796,35388,CYC:11796
F9A7  D0 11     BNE $F9BA                       A:00 X:55 Y:25 P:67 SP:F9 PPU:11798,35394,CYC:11798
F9A9  B8        CLV                             A:00 X:55 Y:25 P:67 SP:F9 PPU:11800,35400,CYC:11800
F9AA  A9 AA     LDA #$AA                        A:00 X:55 Y:25 P:27 SP:F9 PPU:11802,35406,CYC:11802
F9AC  60        RTS                             A:AA X:55 Y:25 P:A5 SP:F9 PPU:11804,35412,CYC:11804
DDDE  C8        INY                             A:AA X:55 Y:25 P:A5 SP:FB PPU:11810,35430,CYC:11810
DDDF  95 00     STA $00,X @ 55 = 00             A:AA X:55 Y:26 P:25 SP:FB PPU:11812,35436,CYC:11812
DDE1  56 00     LSR $00,X @ 55 = AA             A:AA X:55 Y:26 P:25 SP:FB PPU:11816,35448,CYC:11816
DDE3  B5 00     LDA $00,X @ 55 = 55             A:AA X:55 Y:26 P:24 SP:FB PPU:11822,35466,CYC:11822
DDE5  20 AD F9  JSR $F9AD                       A:55 X:55 Y:26 P:24 SP:FB PPU:11826,35478,CYC:11826
F9AD  B0 0B     BCS $F9BA                       A:55 X:55 Y:26 P:24 SP:F9 PPU:11832,35496,CYC:11832
F9AF  F0 09     BEQ $F9BA                       A:55 X:55 Y:26 P:24 SP:F9 PPU:11834,35502,CYC:11834
F9B1  30 07     BMI $F9BA                       A:55 X:55 Y:26 P:24 SP:F9 PPU:11836,35508,CYC:11836
F9B3  70 05     BVS $F9BA                       A:55 X:55 Y:26 P:24 SP:F9 PPU:11838,35514,CYC:11838
F9B5  C9 55     CMP #$55                        A:55 X:55 Y:26 P:24 SP:F9 PPU:11840,35520,CYC:11840
F9B7  D0 01     BNE $F9BA                       A:55 X:55 Y:26 P:27 SP:F9 PPU:11842,35526,CYC:11842
F9B9  60        RTS                             A:55 X:55 Y:26 P:27 SP:F9 PPU:11844,35532,CYC:11844
DDE8  C8        INY                             A:55 X:55 Y:26 P:27 SP:FB PPU:11850,35550,CYC:11850
DDE9  20 BD F9  JSR $F9BD                       A:55 X:55 Y:27 P:25 SP:FB PPU:11852,35556,CYC:11852
F9BD  24 01     BIT $01 = FF                    A:55 X:55 Y:27 P:25 SP:F9 PPU:11858,35574,CYC:11858
F9BF  38        SEC                             A:55 X:55 Y:27 P:E5 SP:F9 PPU:11861,35583,CYC:11861
F9C0  A9 80     LDA #$80                        A:55 X:55 Y:27 P:E5 SP:F9 PPU:11863,35589,CYC:11863
F9C2  60        RTS                             A:80 X:55 Y:27 P:E5 SP:F9 PPU:11865,35595,CYC:11865
DDEC  95 00     STA $00,X @ 55 = 55             A:80 X:55 Y:27 P:E5 SP:FB PPU:11871,35613,CYC:11871
DDEE  16 00     ASL $00,X @ 55 = 80             A:80 X:55 Y:27 P:E5 SP:FB PPU:11875,35625,CYC:11875
DDF0  B5 00     LDA $00,X @ 55 = 00             A:80 X:55 Y:27 P:67 SP:FB PPU:11881,35643,CYC:11881
DDF2  20 C3 F9  JSR $F9C3                       A:00 X:55 Y:27 P:67 SP:FB PPU:11885,35655,CYC:11885
F9C3  90 1C     BCC $F9E1                       A:00 X:55 Y:27 P:67 SP:F9 PPU:11891,35673,CYC:11891
F9C5  D0 1A     BNE $F9E1                       A:00 X:55 Y:27 P:67 SP:F9 PPU:11893,35679,CYC:11893
F9C7  30 18     BMI $F9E1                       A:00 X:55 Y:27 P:67 SP:F9 PPU:11895,35685,CYC:11895
F9C9  50 16     BVC $F9E1                       A:00 X:55 Y:27 P:67 SP:F9 PPU:11897,35691,CYC:11897
F9CB  C9 00     CMP #$00                        A:00 X:55 Y:27 P:67 SP:F9 PPU:11899,35697,CYC:11899
F9CD  D0 12     BNE $F9E1                       A:00 X:55 Y:27 P:67 SP:F9 PPU:11901,35703,CYC:11901
F9CF  B8        CLV                             A:00 X:55 Y:27 P:67 SP:F9 PPU:11903,35709,CYC:11903
F9D0  A9 55     LDA #$55                        A:00 X:55 Y:27 P:27 SP:F9 PPU:11905,35715,CYC:11905
F9D2  38        SEC                             A:55 X:55 Y:27 P:25 SP:F9 PPU:11907,35721,CYC:11907
F9D3  60        RTS                             A:55 X:55 Y:27 P:25 SP:F9 PPU:11909,35727,CYC:11909
DDF5  C8        INY                             A:55 X:55 Y:27 P:25 SP:FB PPU:11915,35745,CYC:11915
DDF6  95 00     STA $00,X @ 55 = 00             A:55 X:55 Y:28 P:25 SP:FB PPU:11917,35751,CYC:11917
DDF8  16 00     ASL $00,X @ 55 = 55             A:55 X:55 Y:28 P:25 SP:FB PPU:11921,35763,CYC:11921
DDFA  B5 00     LDA $00,X @ 55 = AA             A:55 X:55 Y:28 P:A4 SP:FB PPU:11927,35781,CYC:11927
DDFC  20 D4 F9  JSR $F9D4                       A:AA X:55 Y:28 P:A4 SP:FB PPU:11931,35793,CYC:11931
F9D4  B0 0B     BCS $F9E1                       A:AA X:55 Y:28 P:A4 SP:F9 PPU:11937,35811,CYC:11937
F9D6  F0 09     BEQ $F9E1                       A:AA X:55 Y:28 P:A4 SP:F9 PPU:11939,35817,CYC:11939
F9D8  10 07     BPL $F9E1                       A:AA X:55 Y:28 P:A4 SP:F9 PPU:11941,35823,CYC:11941
F9DA  70 05     BVS $F9E1                       A:AA X:55 Y:28 P:A4 SP:F9 PPU:11943,35829,CYC:11943
F9DC  C9 AA     CMP #$AA                        A:AA X:55 Y:28 P:A4 SP:F9 PPU:11945,35835,CYC:11945
F9DE  D0 01     BNE $F9E1                       A:AA X:55 Y:28 P:27 SP:F9 PPU:11947,35841,CYC:11947
F9E0  60        RTS                             A:AA X:55 Y:28 P:27 SP:F9 PPU:11949,35847,CYC:11949
DDFF  C8        INY                             A:AA X:55 Y:28 P:27 SP:FB PPU:11955,35865,CYC:11955
DE00  20 E4 F9  JSR $F9E4                       A:AA X:55 Y:29 P:25 SP:FB PPU:11957,35871,CYC:11957
F9E4  24 01     BIT $01 = FF                    A:AA X:55 Y:29 P:25 SP:F9 PPU:11963,35889,CYC:11963
F9E6  38        SEC                             A:AA X:55 Y:29 P:E5 SP:F9 PPU:11966,35898,CYC:11966
F9E7  A9 01     LDA #$01                        A:AA X:55 Y:29 P:E5 SP:F9 PPU:11968,35904,CYC:11968
F9E9  60        RTS                             A:01 X:55 Y:29 P:65 SP:F9 PPU:11970,35910,CYC:11970
DE03  95 00     STA $00,X @ 55 = AA             A:01 X:55 Y:29 P:65 SP:FB PPU:11976,35928,CYC:11976
DE05  76 00     ROR $00,X @ 55 = 01             A:01 X:55 Y:29 P:65 SP:FB PPU:11980,35940,CYC:11980
DE07  B5 00     LDA $00,X @ 55 = 80             A:01 X:55 Y:29 P:E5 SP:FB PPU:11986,35958,CYC:11986
DE09  20 EA F9  JSR $F9EA                       A:80 X:55 Y:29 P:E5 SP:FB PPU:11990,35970,CYC:11990
F9EA  90 1C     BCC $FA08                       A:80 X:55 Y:29 P:E5 SP:F9 PPU:11996,35988,CYC:11996
F9EC  F0 1A     BEQ $FA08                       A:80 X:55 Y:29 P:E5 SP:F9 PPU:11998,35994,CYC:11998
F9EE  10 18     BPL $FA08                       A:80 X:55 Y:29 P:E5 SP:F9 PPU:12000,36000,CYC:12000
F9F0  50 16     BVC $FA08                       A:80 X:55 Y:29 P:E5 SP:F9 PPU:12002,36006,CYC:12002
F9F2  C9 80     CMP #$80                        A:80 X:55 Y:29 P:E5 SP:F9 PPU:12004,36012,CYC:12004
F9F4  D0 12     BNE $FA08                       A:80 X:55 Y:29 P:67 SP:F9 PPU:12006,36018,CYC:12006
F9F6  B8        CLV                             A:80 X:55 Y:29 P:67 SP:F9 PPU:12008,36024,CYC:12008
F9F7  18        CLC                             A:80 X:55 Y:29 P:27 SP:F9 PPU:12010,36030,CYC:12010
F9F8  A9 55     LDA #$55                        A:80 X:55 Y:29 P:26 SP:F9 PPU:12012,36036,CYC:12012
F9FA  60        RTS                             A:55 X:55 Y:29 P:24 SP:F9 PPU:12014,36042,CYC:12014
DE0C  C8        INY                             A:55 X:55 Y:29 P:24 SP:FB PPU:12020,36060,CYC:12020
DE0D  95 00     STA $00,X @ 55 = 80             A:55 X:55 Y:2A P:24 SP:FB PPU:12022,36066,CYC:12022
DE0F  76 00     ROR $00,X @ 55 = 55             A:55 X:55 Y:2A P:24 SP:FB PPU:12026,36078,CYC:12026
DE11  B5 00     LDA $00,X @ 55 = 2A             A:55 X:55 Y:2A P:25 SP:FB PPU:12032,36096,CYC:12032
DE13  20 FB F9  JSR $F9FB                       A:2A X:55 Y:2A P:25 SP:FB PPU:12036,36108,CYC:12036
F9FB  90 0B     BCC $FA08                       A:2A X:55 Y:2A P:25 SP:F9 PPU:12042,36126,CYC:12042
F9FD  F0 09     BEQ $FA08                       A:2A X:55 Y:2A P:25 SP:F9 PPU:12044,36132,CYC:12044
F9FF  30 07     BMI $FA08                       A:2A X:55 Y:2A P:25 SP:F9 PPU:12046,36138,CYC:12046
FA01  70 05     BVS $FA08                       A:2A X:55 Y:2A P:25 SP:F9 PPU:12048,36144,CYC:12048
FA03  C9 2A     CMP #$2A                        A:2A X:55 Y:2A P:25 SP:F9 PPU:12050,36150,CYC:12050
FA05  D0 01     BNE $FA08                       A:2A X:55 Y:2A P:27 SP:F9 PPU:12052,36156,CYC:12052
FA07  60        RTS                             A:2A X:55 Y:2A P:27 SP:F9 PPU:12054,36162,CYC:12054
DE16  C8        INY                             A:2A X:55 Y:2A P:27 SP:FB PPU:12060,36180,CYC:12060
DE17  20 0A FA  JSR $FA0A                       A:2A X:55 Y:2B P:25 SP:FB PPU:12062,36186,CYC:12062
FA0A  24 01     BIT $01 = FF                    A:2A X:55 Y:2B P:25 SP:F9 PPU:12068,36204,CYC:12068
FA0C  38        SEC                             A:2A X:55 Y:2B P:E5 SP:F9 PPU:12071,36213,CYC:12071
FA0D  A9 80     LDA #$80                        A:2A X:55 Y:2B P:E5 SP:F9 PPU:12073,36219,CYC:12073
FA0F  60        RTS                             A:80 X:55 Y:2B P:E5 SP:F9 PPU:12075,36225,CYC:12075
DE1A  95 00     STA $00,X @ 55 = 2A             A:80 X:55 Y:2B P:E5 SP:FB PPU:12081,36243,CYC:12081
DE1C  36 00     ROL $00,X @ 55 = 80             A:80 X:55 Y:2B P:E5 SP:FB PPU:12085,36255,CYC:12085
DE1E  B5 00     LDA $00,X @ 55 = 01             A:80 X:55 Y:2B P:65 SP:FB PPU:12091,36273,CYC:12091
DE20  20 10 FA  JSR $FA10                       A:01 X:55 Y:2B P:65 SP:FB PPU:12095,36285,CYC:12095
FA10  90 1C     BCC $FA2E                       A:01 X:55 Y:2B P:65 SP:F9 PPU:12101,36303,CYC:12101
FA12  F0 1A     BEQ $FA2E                       A:01 X:55 Y:2B P:65 SP:F9 PPU:12103,36309,CYC:12103
FA14  30 18     BMI $FA2E                       A:01 X:55 Y:2B P:65 SP:F9 PPU:12105,36315,CYC:12105
FA16  50 16     BVC $FA2E                       A:01 X:55 Y:2B P:65 SP:F9 PPU:12107,36321,CYC:12107
FA18  C9 01     CMP #$01                        A:01 X:55 Y:2B P:65 SP:F9 PPU:12109,36327,CYC:12109
FA1A  D0 12     BNE $FA2E                       A:01 X:55 Y:2B P:67 SP:F9 PPU:12111,36333,CYC:12111
FA1C  B8        CLV                             A:01 X:55 Y:2B P:67 SP:F9 PPU:12113,36339,CYC:12113
FA1D  18        CLC                             A:01 X:55 Y:2B P:27 SP:F9 PPU:12115,36345,CYC:12115
FA1E  A9 55     LDA #$55                        A:01 X:55 Y:2B P:26 SP:F9 PPU:12117,36351,CYC:12117
FA20  60        RTS                             A:55 X:55 Y:2B P:24 SP:F9 PPU:12119,36357,CYC:12119
DE23  C8        INY                             A:55 X:55 Y:2B P:24 SP:FB PPU:12125,36375,CYC:12125
DE24  95 00     STA $00,X @ 55 = 01             A:55 X:55 Y:2C P:24 SP:FB PPU:12127,36381,CYC:12127
DE26  36 00     ROL $00,X @ 55 = 55             A:55 X:55 Y:2C P:24 SP:FB PPU:12131,36393,CYC:12131
DE28  B5 00     LDA $00,X @ 55 = AA             A:55 X:55 Y:2C P:A4 SP:FB PPU:12137,36411,CYC:12137
DE2A  20 21 FA  JSR $FA21                       A:AA X:55 Y:2C P:A4 SP:FB PPU:12141,36423,CYC:12141
FA21  B0 0B     BCS $FA2E                       A:AA X:55 Y:2C P:A4 SP:F9 PPU:12147,36441,CYC:12147
FA23  F0 09     BEQ $FA2E                       A:AA X:55 Y:2C P:A4 SP:F9 PPU:12149,36447,CYC:12149
FA25  10 07     BPL $FA2E                       A:AA X:55 Y:2C P:A4 SP:F9 PPU:12151,36453,CYC:12151
FA27  70 05     BVS $FA2E                       A:AA X:55 Y:2C P:A4 SP:F9 PPU:12153,36459,CYC:12153
FA29  C9 AA     CMP #$AA                        A:AA X:55 Y:2C P:A4 SP:F9 PPU:12155,36465,CYC:12155
FA2B  D0 01     BNE $FA2E                       A:AA X:55 Y:2C P:27 SP:F9 PPU:12157,36471,CYC:12157
FA2D  60        RTS                             A:AA X:55 Y:2C P:27 SP:F9 PPU:12159,36477,CYC:12159
DE2D  A9 FF     LDA #$FF                        A:AA X:55 Y:2C P:27 SP:FB PPU:12165,36495,CYC:12165
DE2F  95 00     STA $00,X @ 55 = AA             A:FF X:55 Y:2C P:A5 SP:FB PPU:12167,36501,CYC:12167
DE31  85 01     STA $01 = FF                    A:FF X:55 Y:2C P:A5 SP:FB PPU:12171,36513,CYC:12171
DE33  24 01     BIT $01 = FF                    A:FF X:55 Y:2C P:A5 SP:FB PPU:12174,36522,CYC:12174
DE35  38        SEC                             A:FF X:55 Y:2C P:E5 SP:FB PPU:12177,36531,CYC:12177
DE36  F6 00     INC $00,X @ 55 = FF             A:FF X:55 Y:2C P:E5 SP:FB PPU:12179,36537,CYC:12179
DE38  D0 0C     BNE $DE46                       A:FF X:55 Y:2C P:67 SP:FB PPU:12185,36555,CYC:12185
DE3A  30 0A     BMI $DE46                       A:FF X:55 Y:2C P:67 SP:FB PPU:12187,36561,CYC:12187
DE3C  50 08     BVC $DE46                       A:FF X:55 Y:2C P:67 SP:FB PPU:12189,36567,CYC:12189
DE3E  90 06     BCC $DE46                       A:FF X:55 Y:2C P:67 SP:FB PPU:12191,36573,CYC:12191
DE40  B5 00     LDA $00,X @ 55 = 00             A:FF X:55 Y:2C P:67 SP:FB PPU:12193,36579,CYC:12193
DE42  C9 00     CMP #$00                        A:00 X:55 Y:2C P:67 SP:FB PPU:12197,36591,CYC:12197
DE44  F0 04     BEQ $DE4A                       A:00 X:55 Y:2C P:67 SP:FB PPU:12199,36597,CYC:12199
DE4A  A9 7F     LDA #$7F                        A:00 X:55 Y:2C P:67 SP:FB PPU:12202,36606,CYC:12202
DE4C  95 00     STA $00,X @ 55 = 00             A:7F X:55 Y:2C P:65 SP:FB PPU:12204,36612,CYC:12204
DE4E  B8        CLV                             A:7F X:55 Y:2C P:65 SP:FB PPU:12208,36624,CYC:12208
DE4F  18        CLC                             A:7F X:55 Y:2C P:25 SP:FB PPU:12210,36630,CYC:12210
DE50  F6 00     INC $00,X @ 55 = 7F             A:7F X:55 Y:2C P:24 SP:FB PPU:12212,36636,CYC:12212
DE52  F0 0C     BEQ $DE60                       A:7F X:55 Y:2C P:A4 SP:FB PPU:12218,36654,CYC:12218
DE54  10 0A     BPL $DE60                       A:7F X:55 Y:2C P:A4 SP:FB PPU:12220,36660,CYC:12220
DE56  70 08     BVS $DE60                       A:7F X:55 Y:2C P:A4 SP:FB PPU:12222,36666,CYC:12222
DE58  B0 06     BCS $DE60                       A:7F X:55 Y:2C P:A4 SP:FB PPU:12224,36672,CYC:12224
DE5A  B5 00     LDA $00,X @ 55 = 80             A:7F X:55 Y:2C P:A4 SP:FB PPU:12226,36678,CYC:12226
DE5C  C9 80     CMP #$80                        A:80 X:55 Y:2C P:A4 SP:FB PPU:12230,36690,CYC:12230
DE5E  F0 04     BEQ $DE64                       A:80 X:55 Y:2C P:27 SP:FB PPU:12232,36696,CYC:12232
DE64  A9 00     LDA #$00                        A:80 X:55 Y:2C P:27 SP:FB PPU:12235,36705,CYC:12235
DE66  95 00     STA $00,X @ 55 = 80             A:00 X:55 Y:2C P:27 SP:FB PPU:12237,36711,CYC:12237
DE68  24 01     BIT $01 = FF                    A:00 X:55 Y:2C P:27 SP:FB PPU:12241,36723,CYC:12241
DE6A  38        SEC                             A:00 X:55 Y:2C P:E7 SP:FB PPU:12244,36732,CYC:12244
DE6B  D6 00     DEC $00,X @ 55 = 00             A:00 X:55 Y:2C P:E7 SP:FB PPU:12246,36738,CYC:12246
DE6D  F0 0C     BEQ $DE7B                       A:00 X:55 Y:2C P:E5 SP:FB PPU:12252,36756,CYC:12252
DE6F  10 0A     BPL $DE7B                       A:00 X:55 Y:2C P:E5 SP:FB PPU:12254,36762,CYC:12254
DE71  50 08     BVC $DE7B                       A:00 X:55 Y:2C P:E5 SP:FB PPU:12256,36768,CYC:12256
DE73  90 06     BCC $DE7B                       A:00 X:55 Y:2C P:E5 SP:FB PPU:12258,36774,CYC:12258
DE75  B5 00     LDA $00,X @ 55 = FF             A:00 X:55 Y:2C P:E5 SP:FB PPU:12260,36780,CYC:12260
DE77  C9 FF     CMP #$FF                        A:FF X:55 Y:2C P:E5 SP:FB PPU:12264,36792,CYC:12264
DE79  F0 04     BEQ $DE7F                       A:FF X:55 Y:2C P:67 SP:FB PPU:12266,36798,CYC:12266
DE7F  A9 80     LDA #$80                        A:FF X:55 Y:2C P:67 SP:FB PPU:12269,36807,CYC:12269
DE81  95 00     STA $00,X @ 55 = FF             A:80 X:55 Y:2C P:E5 SP:FB PPU:12271,36813,CYC:12271
DE83  B8        CLV                             A:80 X:55 Y:2C P:E5 SP:FB PPU:12275,36825,CYC:12275
DE84  18        CLC                             A:80 X:55 Y:2C P:A5 SP:FB PPU:12277,36831,CYC:12277
DE85  D6 00     DEC $00,X @ 55 = 80             A:80 X:55 Y:2C P:A4 SP:FB PPU:12279,36837,CYC:12279
DE87  F0 0C     BEQ $DE95                       A:80 X:55 Y:2C P:24 SP:FB PPU:12285,36855,CYC:12285
DE89  30 0A     BMI $DE95                       A:80 X:55 Y:2C P:24 SP:FB PPU:12287,36861,CYC:12287
DE8B  70 08     BVS $DE95                       A:80 X:55 Y:2C P:24 SP:FB PPU:12289,36867,CYC:12289
DE8D  B0 06     BCS $DE95                       A:80 X:55 Y:2C P:24 SP:FB PPU:12291,36873,CYC:12291
DE8F  B5 00     LDA $00,X @ 55 = 7F             A:80 X:55 Y:2C P:24 SP:FB PPU:12293,36879,CYC:12293
DE91  C9 7F     CMP #$7F                        A:7F X:55 Y:2C P:24 SP:FB PPU:12297,36891,CYC:12297
DE93  F0 04     BEQ $DE99                       A:7F X:55 Y:2C P:27 SP:FB PPU:12299,36897,CYC:12299
DE99  A9 01     LDA #$01                        A:7F X:55 Y:2C P:27 SP:FB PPU:12302,36906,CYC:12302
DE9B  95 00     STA $00,X @ 55 = 7F             A:01 X:55 Y:2C P:25 SP:FB PPU:12304,36912,CYC:12304
DE9D  D6 00     DEC $00,X @ 55 = 01             A:01 X:55 Y:2C P:25 SP:FB PPU:12308,36924,CYC:12308
DE9F  F0 04     BEQ $DEA5                       A:01 X:55 Y:2C P:27 SP:FB PPU:12314,36942,CYC:12314
DEA5  A9 33     LDA #$33                        A:01 X:55 Y:2C P:27 SP:FB PPU:12317,36951,CYC:12317
DEA7  85 78     STA $78 = 7F                    A:33 X:55 Y:2C P:25 SP:FB PPU:12319,36957,CYC:12319
DEA9  A9 44     LDA #$44                        A:33 X:55 Y:2C P:25 SP:FB PPU:12322,36966,CYC:12322
DEAB  A0 78     LDY #$78                        A:44 X:55 Y:2C P:25 SP:FB PPU:12324,36972,CYC:12324
DEAD  A2 00     LDX #$00                        A:44 X:55 Y:78 P:25 SP:FB PPU:12326,36978,CYC:12326
DEAF  38        SEC                             A:44 X:00 Y:78 P:27 SP:FB PPU:12328,36984,CYC:12328
DEB0  24 01     BIT $01 = FF                    A:44 X:00 Y:78 P:27 SP:FB PPU:12330,36990,CYC:12330
DEB2  B6 00     LDX $00,Y @ 78 = 33             A:44 X:00 Y:78 P:E5 SP:FB PPU:12333,36999,CYC:12333
DEB4  90 12     BCC $DEC8                       A:44 X:33 Y:78 P:65 SP:FB PPU:12337,37011,CYC:12337
DEB6  50 10     BVC $DEC8                       A:44 X:33 Y:78 P:65 SP:FB PPU:12339,37017,CYC:12339
DEB8  30 0E     BMI $DEC8                       A:44 X:33 Y:78 P:65 SP:FB PPU:12341,37023,CYC:12341
DEBA  F0 0C     BEQ $DEC8                       A:44 X:33 Y:78 P:65 SP:FB PPU:12343,37029,CYC:12343
DEBC  E0 33     CPX #$33                        A:44 X:33 Y:78 P:65 SP:FB PPU:12345,37035,CYC:12345
DEBE  D0 08     BNE $DEC8                       A:44 X:33 Y:78 P:67 SP:FB PPU:12347,37041,CYC:12347
DEC0  C0 78     CPY #$78                        A:44 X:33 Y:78 P:67 SP:FB PPU:12349,37047,CYC:12349
DEC2  D0 04     BNE $DEC8                       A:44 X:33 Y:78 P:67 SP:FB PPU:12351,37053,CYC:12351
DEC4  C9 44     CMP #$44                        A:44 X:33 Y:78 P:67 SP:FB PPU:12353,37059,CYC:12353
DEC6  F0 04     BEQ $DECC                       A:44 X:33 Y:78 P:67 SP:FB PPU:12355,37065,CYC:12355
DECC  A9 97     LDA #$97                        A:44 X:33 Y:78 P:67 SP:FB PPU:12358,37074,CYC:12358
DECE  85 7F     STA $7F = 00                    A:97 X:33 Y:78 P:E5 SP:FB PPU:12360,37080,CYC:12360
DED0  A9 47     LDA #$47                        A:97 X:33 Y:78 P:E5 SP:FB PPU:12363,37089,CYC:12363
DED2  A0 FF     LDY #$FF                        A:47 X:33 Y:78 P:65 SP:FB PPU:12365,37095,CYC:12365
DED4  A2 00     LDX #$00                        A:47 X:33 Y:FF P:E5 SP:FB PPU:12367,37101,CYC:12367
DED6  18        CLC                             A:47 X:00 Y:FF P:67 SP:FB PPU:12369,37107,CYC:12369
DED7  B8        CLV                             A:47 X:00 Y:FF P:66 SP:FB PPU:12371,37113,CYC:12371
DED8  B6 80     LDX $80,Y @ 7F = 97             A:47 X:00 Y:FF P:26 SP:FB PPU:12373,37119,CYC:12373
DEDA  B0 12     BCS $DEEE                       A:47 X:97 Y:FF P:A4 SP:FB PPU:12377,37131,CYC:12377
DEDC  70 10     BVS $DEEE                       A:47 X:97 Y:FF P:A4 SP:FB PPU:12379,37137,CYC:12379
DEDE  10 0E     BPL $DEEE                       A:47 X:97 Y:FF P:A4 SP:FB PPU:12381,37143,CYC:12381
DEE0  F0 0C     BEQ $DEEE                       A:47 X:97 Y:FF P:A4 SP:FB PPU:12383,37149,CYC:12383
DEE2  E0 97     CPX #$97                        A:47 X:97 Y:FF P:A4 SP:FB PPU:12385,37155,CYC:12385
DEE4  D0 08     BNE $DEEE                       A:47 X:97 Y:FF P:27 SP:FB PPU:12387,37161,CYC:12387
DEE6  C0 FF     CPY #$FF                        A:47 X:97 Y:FF P:27 SP:FB PPU:12389,37167,CYC:12389
DEE8  D0 04     BNE $DEEE                       A:47 X:97 Y:FF P:27 SP:FB PPU:12391,37173,CYC:12391
DEEA  C9 47     CMP #$47                        A:47 X:97 Y:FF P:27 SP:FB PPU:12393,37179,CYC:12393
DEEC  F0 04     BEQ $DEF2                       A:47 X:97 Y:FF P:27 SP:FB PPU:12395,37185,CYC:12395
DEF2  A9 00     LDA #$00                        A:47 X:97 Y:FF P:27 SP:FB PPU:12398,37194,CYC:12398
DEF4  85 7F     STA $7F = 97                    A:00 X:97 Y:FF P:27 SP:FB PPU:12400,37200,CYC:12400
DEF6  A9 47     LDA #$47                        A:00 X:97 Y:FF P:27 SP:FB PPU:12403,37209,CYC:12403
DEF8  A0 FF     LDY #$FF                        A:47 X:97 Y:FF P:25 SP:FB PPU:12405,37215,CYC:12405
DEFA  A2 69     LDX #$69                        A:47 X:97 Y:FF P:A5 SP:FB PPU:12407,37221,CYC:12407
DEFC  18        CLC                             A:47 X:69 Y:FF P:25 SP:FB PPU:12409,37227,CYC:12409
DEFD  B8        CLV                             A:47 X:69 Y:FF P:24 SP:FB PPU:12411,37233,CYC:12411
DEFE  96 80     STX $80,Y @ 7F = 00             A:47 X:69 Y:FF P:24 SP:FB PPU:12413,37239,CYC:12413
DF00  B0 18     BCS $DF1A                       A:47 X:69 Y:FF P:24 SP:FB PPU:12417,37251,CYC:12417
DF02  70 16     BVS $DF1A                       A:47 X:69 Y:FF P:24 SP:FB PPU:12419,37257,CYC:12419
DF04  30 14     BMI $DF1A                       A:47 X:69 Y:FF P:24 SP:FB PPU:12421,37263,CYC:12421
DF06  F0 12     BEQ $DF1A                       A:47 X:69 Y:FF P:24 SP:FB PPU:12423,37269,CYC:12423
DF08  E0 69     CPX #$69                        A:47 X:69 Y:FF P:24 SP:FB PPU:12425,37275,CYC:12425
DF0A  D0 0E     BNE $DF1A                       A:47 X:69 Y:FF P:27 SP:FB PPU:12427,37281,CYC:12427
DF0C  C0 FF     CPY #$FF                        A:47 X:69 Y:FF P:27 SP:FB PPU:12429,37287,CYC:12429
DF0E  D0 0A     BNE $DF1A                       A:47 X:69 Y:FF P:27 SP:FB PPU:12431,37293,CYC:12431
DF10  C9 47     CMP #$47                        A:47 X:69 Y:FF P:27 SP:FB PPU:12433,37299,CYC:12433
DF12  D0 06     BNE $DF1A                       A:47 X:69 Y:FF P:27 SP:FB PPU:12435,37305,CYC:12435
DF14  A5 7F     LDA $7F = 69                    A:47 X:69 Y:FF P:27 SP:FB PPU:12437,37311,CYC:12437
DF16  C9 69     CMP #$69                        A:69 X:69 Y:FF P:25 SP:FB PPU:12440,37320,CYC:12440
DF18  F0 04     BEQ $DF1E                       A:69 X:69 Y:FF P:27 SP:FB PPU:12442,37326,CYC:12442
DF1E  A9 F5     LDA #$F5                        A:69 X:69 Y:FF P:27 SP:FB PPU:12445,37335,CYC:12445
DF20  85 4F     STA $4F = 00                    A:F5 X:69 Y:FF P:A5 SP:FB PPU:12447,37341,CYC:12447
DF22  A9 47     LDA #$47                        A:F5 X:69 Y:FF P:A5 SP:FB PPU:12450,37350,CYC:12450
DF24  A0 4F     LDY #$4F                        A:47 X:69 Y:FF P:25 SP:FB PPU:12452,37356,CYC:12452
DF26  24 01     BIT $01 = FF                    A:47 X:69 Y:4F P:25 SP:FB PPU:12454,37362,CYC:12454
DF28  A2 00     LDX #$00                        A:47 X:69 Y:4F P:E5 SP:FB PPU:12457,37371,CYC:12457
DF2A  38        SEC                             A:47 X:00 Y:4F P:67 SP:FB PPU:12459,37377,CYC:12459
DF2B  96 00     STX $00,Y @ 4F = F5             A:47 X:00 Y:4F P:67 SP:FB PPU:12461,37383,CYC:12461
DF2D  90 16     BCC $DF45                       A:47 X:00 Y:4F P:67 SP:FB PPU:12465,37395,CYC:12465
DF2F  50 14     BVC $DF45                       A:47 X:00 Y:4F P:67 SP:FB PPU:12467,37401,CYC:12467
DF31  30 12     BMI $DF45                       A:47 X:00 Y:4F P:67 SP:FB PPU:12469,37407,CYC:12469
DF33  D0 10     BNE $DF45                       A:47 X:00 Y:4F P:67 SP:FB PPU:12471,37413,CYC:12471
DF35  E0 00     CPX #$00                        A:47 X:00 Y:4F P:67 SP:FB PPU:12473,37419,CYC:12473
DF37  D0 0C     BNE $DF45                       A:47 X:00 Y:4F P:67 SP:FB PPU:12475,37425,CYC:12475
DF39  C0 4F     CPY #$4F                        A:47 X:00 Y:4F P:67 SP:FB PPU:12477,37431,CYC:12477
DF3B  D0 08     BNE $DF45                       A:47 X:00 Y:4F P:67 SP:FB PPU:12479,37437,CYC:12479
DF3D  C9 47     CMP #$47                        A:47 X:00 Y:4F P:67 SP:FB PPU:12481,37443,CYC:12481
DF3F  D0 04     BNE $DF45                       A:47 X:00 Y:4F P:67 SP:FB PPU:12483,37449,CYC:12483
DF41  A5 4F     LDA $4F = 00                    A:47 X:00 Y:4F P:67 SP:FB PPU:12485,37455,CYC:12485
DF43  F0 04     BEQ $DF49                       A:00 X:00 Y:4F P:67 SP:FB PPU:12488,37464,CYC:12488
DF49  60        RTS                             A:00 X:00 Y:4F P:67 SP:FB PPU:12491,37473,CYC:12491
C62C  20 AA E1  JSR $E1AA                       A:00 X:00 Y:4F P:67 SP:FD PPU:12497,37491,CYC:12497
E1AA  A9 FF     LDA #$FF                        A:00 X:00 Y:4F P:67 SP:FB PPU:12503,37509,CYC:12503
E1AC  85 01     STA $01 = FF                    A:FF X:00 Y:4F P:E5 SP:FB PPU:12505,37515,CYC:12505
E1AE  A9 AA     LDA #$AA                        A:FF X:00 Y:4F P:E5 SP:FB PPU:12508,37524,CYC:12508
E1B0  8D 33 06  STA $0633 = 00                  A:AA X:00 Y:4F P:E5 SP:FB PPU:12510,37530,CYC:12510
E1B3  A9 BB     LDA #$BB                        A:AA X:00 Y:4F P:E5 SP:FB PPU:12514,37542,CYC:12514
E1B5  8D 89 06  STA $0689 = 00                  A:BB X:00 Y:4F P:E5 SP:FB PPU:12516,37548,CYC:12516
E1B8  A2 00     LDX #$00                        A:BB X:00 Y:4F P:E5 SP:FB PPU:12520,37560,CYC:12520
E1BA  A9 66     LDA #$66                        A:BB X:00 Y:4F P:67 SP:FB PPU:12522,37566,CYC:12522
E1BC  24 01     BIT $01 = FF                    A:66 X:00 Y:4F P:65 SP:FB PPU:12524,37572,CYC:12524
E1BE  38        SEC                             A:66 X:00 Y:4F P:E5 SP:FB PPU:12527,37581,CYC:12527
E1BF  A0 00     LDY #$00                        A:66 X:00 Y:4F P:E5 SP:FB PPU:12529,37587,CYC:12529
E1C1  BC 33 06  LDY $0633,X @ 0633 = AA         A:66 X:00 Y:00 P:67 SP:FB PPU:12531,37593,CYC:12531
E1C4  10 12     BPL $E1D8                       A:66 X:00 Y:AA P:E5 SP:FB PPU:12535,37605,CYC:12535
E1C6  F0 10     BEQ $E1D8                       A:66 X:00 Y:AA P:E5 SP:FB PPU:12537,37611,CYC:12537
E1C8  50 0E     BVC $E1D8                       A:66 X:00 Y:AA P:E5 SP:FB PPU:12539,37617,CYC:12539
E1CA  90 0C     BCC $E1D8                       A:66 X:00 Y:AA P:E5 SP:FB PPU:12541,37623,CYC:12541
E1CC  C9 66     CMP #$66                        A:66 X:00 Y:AA P:E5 SP:FB PPU:12543,37629,CYC:12543
E1CE  D0 08     BNE $E1D8                       A:66 X:00 Y:AA P:67 SP:FB PPU:12545,37635,CYC:12545
E1D0  E0 00     CPX #$00                        A:66 X:00 Y:AA P:67 SP:FB PPU:12547,37641,CYC:12547
E1D2  D0 04     BNE $E1D8                       A:66 X:00 Y:AA P:67 SP:FB PPU:12549,37647,CYC:12549
E1D4  C0 AA     CPY #$AA                        A:66 X:00 Y:AA P:67 SP:FB PPU:12551,37653,CYC:12551
E1D6  F0 04     BEQ $E1DC                       A:66 X:00 Y:AA P:67 SP:FB PPU:12553,37659,CYC:12553
E1DC  A2 8A     LDX #$8A                        A:66 X:00 Y:AA P:67 SP:FB PPU:12556,37668,CYC:12556
E1DE  A9 66     LDA #$66                        A:66 X:8A Y:AA P:E5 SP:FB PPU:12558,37674,CYC:12558
E1E0  B8        CLV                             A:66 X:8A Y:AA P:65 SP:FB PPU:12560,37680,CYC:12560
E1E1  18        CLC                             A:66 X:8A Y:AA P:25 SP:FB PPU:12562,37686,CYC:12562
E1E2  A0 00     LDY #$00                        A:66 X:8A Y:AA P:24 SP:FB PPU:12564,37692,CYC:12564
E1E4  BC FF 05  LDY $05FF,X @ 0689 = BB         A:66 X:8A Y:00 P:26 SP:FB PPU:12566,37698,CYC:12566
E1E7  10 12     BPL $E1FB                       A:66 X:8A Y:BB P:A4 SP:FB PPU:12571,37713,CYC:12571
E1E9  F0 10     BEQ $E1FB                       A:66 X:8A Y:BB P:A4 SP:FB PPU:12573,37719,CYC:12573
E1EB  70 0E     BVS $E1FB                       A:66 X:8A Y:BB P:A4 SP:FB PPU:12575,37725,CYC:12575
E1ED  B0 0C     BCS $E1FB                       A:66 X:8A Y:BB P:A4 SP:FB PPU:12577,37731,CYC:12577
E1EF  C0 BB     CPY #$BB                        A:66 X:8A Y:BB P:A4 SP:FB PPU:12579,37737,CYC:12579
E1F1  D0 08     BNE $E1FB                       A:66 X:8A Y:BB P:27 SP:FB PPU:12581,37743,CYC:12581
E1F3  C9 66     CMP #$66                        A:66 X:8A Y:BB P:27 SP:FB PPU:12583,37749,CYC:12583
E1F5  D0 04     BNE $E1FB                       A:66 X:8A Y:BB P:27 SP:FB PPU:12585,37755,CYC:12585
E1F7  E0 8A     CPX #$8A                        A:66 X:8A Y:BB P:27 SP:FB PPU:12587,37761,CYC:12587
E1F9  F0 04     BEQ $E1FF                       A:66 X:8A Y:BB P:27 SP:FB PPU:12589,37767,CYC:12589
E1FF  A0 53     LDY #$53                        A:66 X:8A Y:BB P:27 SP:FB PPU:12592,37776,CYC:12592
E201  A9 AA     LDA #$AA                        A:66 X:8A Y:53 P:25 SP:FB PPU:12594,37782,CYC:12594
E203  A2 78     LDX #$78                        A:AA X:8A Y:53 P:A5 SP:FB PPU:12596,37788,CYC:12596
E205  8D 78 06  STA $0678 = 00                  A:AA X:78 Y:53 P:25 SP:FB PPU:12598,37794,CYC:12598
E208  20 B6 F7  JSR $F7B6                       A:AA X:78 Y:53 P:25 SP:FB PPU:12602,37806,CYC:12602
F7B6  18        CLC                             A:AA X:78 Y:53 P:25 SP:F9 PPU:12608,37824,CYC:12608
F7B7  A9 FF     LDA #$FF                        A:AA X:78 Y:53 P:24 SP:F9 PPU:12610,37830,CYC:12610
F7B9  85 01     STA $01 = FF                    A:FF X:78 Y:53 P:A4 SP:F9 PPU:12612,37836,CYC:12612
F7BB  24 01     BIT $01 = FF                    A:FF X:78 Y:53 P:A4 SP:F9 PPU:12615,37845,CYC:12615
F7BD  A9 55     LDA #$55                        A:FF X:78 Y:53 P:E4 SP:F9 PPU:12618,37854,CYC:12618
F7BF  60        RTS                             A:55 X:78 Y:53 P:64 SP:F9 PPU:12620,37860,CYC:12620
E20B  1D 00 06  ORA $0600,X @ 0678 = AA         A:55 X:78 Y:53 P:64 SP:FB PPU:12626,37878,CYC:12626
E20E  20 C0 F7  JSR $F7C0                       A:FF X:78 Y:53 P:E4 SP:FB PPU:12630,37890,CYC:12630
F7C0  B0 09     BCS $F7CB                       A:FF X:78 Y:53 P:E4 SP:F9 PPU:12636,37908,CYC:12636
F7C2  10 07     BPL $F7CB                       A:FF X:78 Y:53 P:E4 SP:F9 PPU:12638,37914,CYC:12638
F7C4  C9 FF     CMP #$FF                        A:FF X:78 Y:53 P:E4 SP:F9 PPU:12640,37920,CYC:12640
F7C6  D0 03     BNE $F7CB                       A:FF X:78 Y:53 P:67 SP:F9 PPU:12642,37926,CYC:12642
F7C8  50 01     BVC $F7CB                       A:FF X:78 Y:53 P:67 SP:F9 PPU:12644,37932,CYC:12644
F7CA  60        RTS                             A:FF X:78 Y:53 P:67 SP:F9 PPU:12646,37938,CYC:12646
E211  C8        INY                             A:FF X:78 Y:53 P:67 SP:FB PPU:12652,37956,CYC:12652
E212  A9 00     LDA #$00                        A:FF X:78 Y:54 P:65 SP:FB PPU:12654,37962,CYC:12654
E214  8D 78 06  STA $0678 = AA                  A:00 X:78 Y:54 P:67 SP:FB PPU:12656,37968,CYC:12656
E217  20 CE F7  JSR $F7CE                       A:00 X:78 Y:54 P:67 SP:FB PPU:12660,37980,CYC:12660
F7CE  38        SEC                             A:00 X:78 Y:54 P:67 SP:F9 PPU:12666,37998,CYC:12666
F7CF  B8        CLV                             A:00 X:78 Y:54 P:67 SP:F9 PPU:12668,38004,CYC:12668
F7D0  A9 00     LDA #$00                        A:00 X:78 Y:54 P:27 SP:F9 PPU:12670,38010,CYC:12670
F7D2  60        RTS                             A:00 X:78 Y:54 P:27 SP:F9 PPU:12672,38016,CYC:12672
E21A  1D 00 06  ORA $0600,X @ 0678 = 00         A:00 X:78 Y:54 P:27 SP:FB PPU:12678,38034,CYC:12678
E21D  20 D3 F7  JSR $F7D3                       A:00 X:78 Y:54 P:27 SP:FB PPU:12682,38046,CYC:12682
F7D3  D0 07     BNE $F7DC                       A:00 X:78 Y:54 P:27 SP:F9 PPU:12688,38064,CYC:12688
F7D5  70 05     BVS $F7DC                       A:00 X:78 Y:54 P:27 SP:F9 PPU:12690,38070,CYC:12690
F7D7  90 03     BCC $F7DC                       A:00 X:78 Y:54 P:27 SP:F9 PPU:12692,38076,CYC:12692
F7D9  30 01     BMI $F7DC                       A:00 X:78 Y:54 P:27 SP:F9 PPU:12694,38082,CYC:12694
F7DB  60        RTS                             A:00 X:78 Y:54 P:27 SP:F9 PPU:12696,38088,CYC:12696
E220  C8        INY                             A:00 X:78 Y:54 P:27 SP:FB PPU:12702,38106,CYC:12702
E221  A9 AA     LDA #$AA                        A:00 X:78 Y:55 P:25 SP:FB PPU:12704,38112,CYC:12704
E223  8D 78 06  STA $0678 = 00                  A:AA X:78 Y:55 P:A5 SP:FB PPU:12706,38118,CYC:12706
E226  20 DF F7  JSR $F7DF                       A:AA X:78 Y:55 P:A5 SP:FB PPU:12710,38130,CYC:12710
F7DF  18        CLC                             A:AA X:78 Y:55 P:A5 SP:F9 PPU:12716,38148,CYC:12716
F7E0  24 01     BIT $01 = FF                    A:AA X:78 Y:55 P:A4 SP:F9 PPU:12718,38154,CYC:12718
F7E2  A9 55     LDA #$55                        A:AA X:78 Y:55 P:E4 SP:F9 PPU:12721,38163,CYC:12721
F7E4  60        RTS                             A:55 X:78 Y:55 P:64 SP:F9 PPU:12723,38169,CYC:12723
E229  3D 00 06  AND $0600,X @ 0678 = AA         A:55 X:78 Y:55 P:64 SP:FB PPU:12729,38187,CYC:12729
E22C  20 E5 F7  JSR $F7E5                       A:00 X:78 Y:55 P:66 SP:FB PPU:12733,38199,CYC:12733
F7E5  D0 07     BNE $F7EE                       A:00 X:78 Y:55 P:66 SP:F9 PPU:12739,38217,CYC:12739
F7E7  50 05     BVC $F7EE                       A:00 X:78 Y:55 P:66 SP:F9 PPU:12741,38223,CYC:12741
F7E9  B0 03     BCS $F7EE                       A:00 X:78 Y:55 P:66 SP:F9 PPU:12743,38229,CYC:12743
F7EB  30 01     BMI $F7EE                       A:00 X:78 Y:55 P:66 SP:F9 PPU:12745,38235,CYC:12745
F7ED  60        RTS                             A:00 X:78 Y:55 P:66 SP:F9 PPU:12747,38241,CYC:12747
E22F  C8        INY                             A:00 X:78 Y:55 P:66 SP:FB PPU:12753,38259,CYC:12753
E230  A9 EF     LDA #$EF                        A:00 X:78 Y:56 P:64 SP:FB PPU:12755,38265,CYC:12755
E232  8D 78 06  STA $0678 = AA                  A:EF X:78 Y:56 P:E4 SP:FB PPU:12757,38271,CYC:12757
E235  20 F1 F7  JSR $F7F1                       A:EF X:78 Y:56 P:E4 SP:FB PPU:12761,38283,CYC:12761
F7F1  38        SEC                             A:EF X:78 Y:56 P:E4 SP:F9 PPU:12767,38301,CYC:12767
F7F2  B8        CLV                             A:EF X:78 Y:56 P:E5 SP:F9 PPU:12769,38307,CYC:12769
F7F3  A9 F8     LDA #$F8                        A:EF X:78 Y:56 P:A5 SP:F9 PPU:12771,38313,CYC:12771
F7F5  60        RTS                             A:F8 X:78 Y:56 P:A5 SP:F9 PPU:12773,38319,CYC:12773
E238  3D 00 06  AND $0600,X @ 0678 = EF         A:F8 X:78 Y:56 P:A5 SP:FB PPU:12779,38337,CYC:12779
E23B  20 F6 F7  JSR $F7F6                       A:E8 X:78 Y:56 P:A5 SP:FB PPU:12783,38349,CYC:12783
F7F6  90 09     BCC $F801                       A:E8 X:78 Y:56 P:A5 SP:F9 PPU:12789,38367,CYC:12789
F7F8  10 07     BPL $F801                       A:E8 X:78 Y:56 P:A5 SP:F9 PPU:12791,38373,CYC:12791
F7FA  C9 E8     CMP #$E8                        A:E8 X:78 Y:56 P:A5 SP:F9 PPU:12793,38379,CYC:12793
F7FC  D0 03     BNE $F801                       A:E8 X:78 Y:56 P:27 SP:F9 PPU:12795,38385,CYC:12795
F7FE  70 01     BVS $F801                       A:E8 X:78 Y:56 P:27 SP:F9 PPU:12797,38391,CYC:12797
F800  60        RTS                             A:E8 X:78 Y:56 P:27 SP:F9 PPU:12799,38397,CYC:12799
E23E  C8        INY                             A:E8 X:78 Y:56 P:27 SP:FB PPU:12805,38415,CYC:12805
E23F  A9 AA     LDA #$AA                        A:E8 X:78 Y:57 P:25 SP:FB PPU:12807,38421,CYC:12807
E241  8D 78 06  STA $0678 = EF                  A:AA X:78 Y:57 P:A5 SP:FB PPU:12809,38427,CYC:12809
E244  20 04 F8  JSR $F804                       A:AA X:78 Y:57 P:A5 SP:FB PPU:12813,38439,CYC:12813
F804  18        CLC                             A:AA X:78 Y:57 P:A5 SP:F9 PPU:12819,38457,CYC:12819
F805  24 01     BIT $01 = FF                    A:AA X:78 Y:57 P:A4 SP:F9 PPU:12821,38463,CYC:12821
F807  A9 5F     LDA #$5F                        A:AA X:78 Y:57 P:E4 SP:F9 PPU:12824,38472,CYC:12824
F809  60        RTS                             A:5F X:78 Y:57 P:64 SP:F9 PPU:12826,38478,CYC:12826
E247  5D 00 06  EOR $0600,X @ 0678 = AA         A:5F X:78 Y:57 P:64 SP:FB PPU:12832,38496,CYC:12832
E24A  20 0A F8  JSR $F80A                       A:F5 X:78 Y:57 P:E4 SP:FB PPU:12836,38508,CYC:12836
F80A  B0 09     BCS $F815                       A:F5 X:78 Y:57 P:E4 SP:F9 PPU:12842,38526,CYC:12842
F80C  10 07     BPL $F815                       A:F5 X:78 Y:57 P:E4 SP:F9 PPU:12844,38532,CYC:12844
F80E  C9 F5     CMP #$F5                        A:F5 X:78 Y:57 P:E4 SP:F9 PPU:12846,38538,CYC:12846
F810  D0 03     BNE $F815                       A:F5 X:78 Y:57 P:67 SP:F9 PPU:12848,38544,CYC:12848
F812  50 01     BVC $F815                       A:F5 X:78 Y:57 P:67 SP:F9 PPU:12850,38550,CYC:12850
F814  60        RTS                             A:F5 X:78 Y:57 P:67 SP:F9 PPU:12852,38556,CYC:12852
E24D  C8        INY                             A:F5 X:78 Y:57 P:67 SP:FB PPU:12858,38574,CYC:12858
E24E  A9 70     LDA #$70                        A:F5 X:78 Y:58 P:65 SP:FB PPU:12860,38580,CYC:12860
E250  8D 78 06  STA $0678 = AA                  A:70 X:78 Y:58 P:65 SP:FB PPU:12862,38586,CYC:12862
E253  20 18 F8  JSR $F818                       A:70 X:78 Y:58 P:65 SP:FB PPU:12866,38598,CYC:12866
F818  38        SEC                             A:70 X:78 Y:58 P:65 SP:F9 PPU:12872,38616,CYC:12872
F819  B8        CLV                             A:70 X:78 Y:58 P:65 SP:F9 PPU:12874,38622,CYC:12874
F81A  A9 70     LDA #$70                        A:70 X:78 Y:58 P:25 SP:F9 PPU:12876,38628,CYC:12876
F81C  60        RTS                             A:70 X:78 Y:58 P:25 SP:F9 PPU:12878,38634,CYC:12878
E256  5D 00 06  EOR $0600,X @ 0678 = 70         A:70 X:78 Y:58 P:25 SP:FB PPU:12884,38652,CYC:12884
E259  20 1D F8  JSR $F81D                       A:00 X:78 Y:58 P:27 SP:FB PPU:12888,38664,CYC:12888
F81D  D0 07     BNE $F826                       A:00 X:78 Y:58 P:27 SP:F9 PPU:12894,38682,CYC:12894
F81F  70 05     BVS $F826                       A:00 X:78 Y:58 P:27 SP:F9 PPU:12896,38688,CYC:12896
F821  90 03     BCC $F826                       A:00 X:78 Y:58 P:27 SP:F9 PPU:12898,38694,CYC:12898
F823  30 01     BMI $F826                       A:00 X:78 Y:58 P:27 SP:F9 PPU:12900,38700,CYC:12900
F825  60        RTS                             A:00 X:78 Y:58 P:27 SP:F9 PPU:12902,38706,CYC:12902
E25C  C8        INY                             A:00 X:78 Y:58 P:27 SP:FB PPU:12908,38724,CYC:12908
E25D  A9 69     LDA #$69                        A:00 X:78 Y:59 P:25 SP:FB PPU:12910,38730,CYC:12910
E25F  8D 78 06  STA $0678 = 70                  A:69 X:78 Y:59 P:25 SP:FB PPU:12912,38736,CYC:12912
E262  20 29 F8  JSR $F829                       A:69 X:78 Y:59 P:25 SP:FB PPU:12916,38748,CYC:12916
F829  18        CLC                             A:69 X:78 Y:59 P:25 SP:F9 PPU:12922,38766,CYC:12922
F82A  24 01     BIT $01 = FF                    A:69 X:78 Y:59 P:24 SP:F9 PPU:12924,38772,CYC:12924
F82C  A9 00     LDA #$00                        A:69 X:78 Y:59 P:E4 SP:F9 PPU:12927,38781,CYC:12927
F82E  60        RTS                             A:00 X:78 Y:59 P:66 SP:F9 PPU:12929,38787,CYC:12929
E265  7D 00 06  ADC $0600,X @ 0678 = 69         A:00 X:78 Y:59 P:66 SP:FB PPU:12935,38805,CYC:12935
E268  20 2F F8  JSR $F82F                       A:69 X:78 Y:59 P:24 SP:FB PPU:12939,38817,CYC:12939
F82F  30 09     BMI $F83A                       A:69 X:78 Y:59 P:24 SP:F9 PPU:12945,38835,CYC:12945
F831  B0 07     BCS $F83A                       A:69 X:78 Y:59 P:24 SP:F9 PPU:12947,38841,CYC:12947
F833  C9 69     CMP #$69                        A:69 X:78 Y:59 P:24 SP:F9 PPU:12949,38847,CYC:12949
F835  D0 03     BNE $F83A                       A:69 X:78 Y:59 P:27 SP:F9 PPU:12951,38853,CYC:12951
F837  70 01     BVS $F83A                       A:69 X:78 Y:59 P:27 SP:F9 PPU:12953,38859,CYC:12953
F839  60        RTS                             A:69 X:78 Y:59 P:27 SP:F9 PPU:12955,38865,CYC:12955
E26B  C8        INY                             A:69 X:78 Y:59 P:27 SP:FB PPU:12961,38883,CYC:12961
E26C  20 3D F8  JSR $F83D                       A:69 X:78 Y:5A P:25 SP:FB PPU:12963,38889,CYC:12963
F83D  38        SEC                             A:69 X:78 Y:5A P:25 SP:F9 PPU:12969,38907,CYC:12969
F83E  24 01     BIT $01 = FF                    A:69 X:78 Y:5A P:25 SP:F9 PPU:12971,38913,CYC:12971
F840  A9 00     LDA #$00                        A:69 X:78 Y:5A P:E5 SP:F9 PPU:12974,38922,CYC:12974
F842  60        RTS                             A:00 X:78 Y:5A P:67 SP:F9 PPU:12976,38928,CYC:12976
E26F  7D 00 06  ADC $0600,X @ 0678 = 69         A:00 X:78 Y:5A P:67 SP:FB PPU:12982,38946,CYC:12982
E272  20 43 F8  JSR $F843                       A:6A X:78 Y:5A P:24 SP:FB PPU:12986,38958,CYC:12986
F843  30 09     BMI $F84E                       A:6A X:78 Y:5A P:24 SP:F9 PPU:12992,38976,CYC:12992
F845  B0 07     BCS $F84E                       A:6A X:78 Y:5A P:24 SP:F9 PPU:12994,38982,CYC:12994
F847  C9 6A     CMP #$6A                        A:6A X:78 Y:5A P:24 SP:F9 PPU:12996,38988,CYC:12996
F849  D0 03     BNE $F84E                       A:6A X:78 Y:5A P:27 SP:F9 PPU:12998,38994,CYC:12998
F84B  70 01     BVS $F84E                       A:6A X:78 Y:5A P:27 SP:F9 PPU:13000,39000,CYC:13000
F84D  60        RTS                             A:6A X:78 Y:5A P:27 SP:F9 PPU:13002,39006,CYC:13002
E275  C8        INY                             A:6A X:78 Y:5A P:27 SP:FB PPU:13008,39024,CYC:13008
E276  A9 7F     LDA #$7F                        A:6A X:78 Y:5B P:25 SP:FB PPU:13010,39030,CYC:13010
E278  8D 78 06  STA $0678 = 69                  A:7F X:78 Y:5B P:25 SP:FB PPU:13012,39036,CYC:13012
E27B  20 51 F8  JSR $F851                       A:7F X:78 Y:5B P:25 SP:FB PPU:13016,39048,CYC:13016
F851  38        SEC                             A:7F X:78 Y:5B P:25 SP:F9 PPU:13022,39066,CYC:13022
F852  B8        CLV                             A:7F X:78 Y:5B P:25 SP:F9 PPU:13024,39072,CYC:13024
F853  A9 7F     LDA #$7F                        A:7F X:78 Y:5B P:25 SP:F9 PPU:13026,39078,CYC:13026
F855  60        RTS                             A:7F X:78 Y:5B P:25 SP:F9 PPU:13028,39084,CYC:13028
E27E  7D 00 06  ADC $0600,X @ 0678 = 7F         A:7F X:78 Y:5B P:25 SP:FB PPU:13034,39102,CYC:13034
E281  20 56 F8  JSR $F856                       A:FF X:78 Y:5B P:E4 SP:FB PPU:13038,39114,CYC:13038
F856  10 09     BPL $F861                       A:FF X:78 Y:5B P:E4 SP:F9 PPU:13044,39132,CYC:13044
F858  B0 07     BCS $F861                       A:FF X:78 Y:5B P:E4 SP:F9 PPU:13046,39138,CYC:13046
F85A  C9 FF     CMP #$FF                        A:FF X:78 Y:5B P:E4 SP:F9 PPU:13048,39144,CYC:13048
F85C  D0 03     BNE $F861                       A:FF X:78 Y:5B P:67 SP:F9 PPU:13050,39150,CYC:13050
F85E  50 01     BVC $F861                       A:FF X:78 Y:5B P:67 SP:F9 PPU:13052,39156,CYC:13052
F860  60        RTS                             A:FF X:78 Y:5B P:67 SP:F9 PPU:13054,39162,CYC:13054
E284  C8        INY                             A:FF X:78 Y:5B P:67 SP:FB PPU:13060,39180,CYC:13060
E285  A9 80     LDA #$80                        A:FF X:78 Y:5C P:65 SP:FB PPU:13062,39186,CYC:13062
E287  8D 78 06  STA $0678 = 7F                  A:80 X:78 Y:5C P:E5 SP:FB PPU:13064,39192,CYC:13064
E28A  20 64 F8  JSR $F864                       A:80 X:78 Y:5C P:E5 SP:FB PPU:13068,39204,CYC:13068
F864  18        CLC                             A:80 X:78 Y:5C P:E5 SP:F9 PPU:13074,39222,CYC:13074
F865  24 01     BIT $01 = FF                    A:80 X:78 Y:5C P:E4 SP:F9 PPU:13076,39228,CYC:13076
F867  A9 7F     LDA #$7F                        A:80 X:78 Y:5C P:E4 SP:F9 PPU:13079,39237,CYC:13079
F869  60        RTS                             A:7F X:78 Y:5C P:64 SP:F9 PPU:13081,39243,CYC:13081
E28D  7D 00 06  ADC $0600,X @ 0678 = 80         A:7F X:78 Y:5C P:64 SP:FB PPU:13087,39261,CYC:13087
E290  20 6A F8  JSR $F86A                       A:FF X:78 Y:5C P:A4 SP:FB PPU:13091,39273,CYC:13091
F86A  10 09     BPL $F875                       A:FF X:78 Y:5C P:A4 SP:F9 PPU:13097,39291,CYC:13097
F86C  B0 07     BCS $F875                       A:FF X:78 Y:5C P:A4 SP:F9 PPU:13099,39297,CYC:13099
F86E  C9 FF     CMP #$FF                        A:FF X:78 Y:5C P:A4 SP:F9 PPU:13101,39303,CYC:13101
F870  D0 03     BNE $F875                       A:FF X:78 Y:5C P:27 SP:F9 PPU:13103,39309,CYC:13103
F872  70 01     BVS $F875                       A:FF X:78 Y:5C P:27 SP:F9 PPU:13105,39315,CYC:13105
F874  60        RTS                             A:FF X:78 Y:5C P:27 SP:F9 PPU:13107,39321,CYC:13107
E293  C8        INY                             A:FF X:78 Y:5C P:27 SP:FB PPU:13113,39339,CYC:13113
E294  20 78 F8  JSR $F878                       A:FF X:78 Y:5D P:25 SP:FB PPU:13115,39345,CYC:13115
F878  38        SEC                             A:FF X:78 Y:5D P:25 SP:F9 PPU:13121,39363,CYC:13121
F879  B8        CLV                             A:FF X:78 Y:5D P:25 SP:F9 PPU:13123,39369,CYC:13123
F87A  A9 7F     LDA #$7F                        A:FF X:78 Y:5D P:25 SP:F9 PPU:13125,39375,CYC:13125
F87C  60        RTS                             A:7F X:78 Y:5D P:25 SP:F9 PPU:13127,39381,CYC:13127
E297  7D 00 06  ADC $0600,X @ 0678 = 80         A:7F X:78 Y:5D P:25 SP:FB PPU:13133,39399,CYC:13133
E29A  20 7D F8  JSR $F87D                       A:00 X:78 Y:5D P:27 SP:FB PPU:13137,39411,CYC:13137
F87D  D0 07     BNE $F886                       A:00 X:78 Y:5D P:27 SP:F9 PPU:13143,39429,CYC:13143
F87F  30 05     BMI $F886                       A:00 X:78 Y:5D P:27 SP:F9 PPU:13145,39435,CYC:13145
F881  70 03     BVS $F886                       A:00 X:78 Y:5D P:27 SP:F9 PPU:13147,39441,CYC:13147
F883  90 01     BCC $F886                       A:00 X:78 Y:5D P:27 SP:F9 PPU:13149,39447,CYC:13149
F885  60        RTS                             A:00 X:78 Y:5D P:27 SP:F9 PPU:13151,39453,CYC:13151
E29D  C8        INY                             A:00 X:78 Y:5D P:27 SP:FB PPU:13157,39471,CYC:13157
E29E  A9 40     LDA #$40                        A:00 X:78 Y:5E P:25 SP:FB PPU:13159,39477,CYC:13159
E2A0  8D 78 06  STA $0678 = 80                  A:40 X:78 Y:5E P:25 SP:FB PPU:13161,39483,CYC:13161
E2A3  20 89 F8  JSR $F889                       A:40 X:78 Y:5E P:25 SP:FB PPU:13165,39495,CYC:13165
F889  24 01     BIT $01 = FF                    A:40 X:78 Y:5E P:25 SP:F9 PPU:13171,39513,CYC:13171
F88B  A9 40     LDA #$40                        A:40 X:78 Y:5E P:E5 SP:F9 PPU:13174,39522,CYC:13174
F88D  60        RTS                             A:40 X:78 Y:5E P:65 SP:F9 PPU:13176,39528,CYC:13176
E2A6  DD 00 06  CMP $0600,X @ 0678 = 40         A:40 X:78 Y:5E P:65 SP:FB PPU:13182,39546,CYC:13182
E2A9  20 8E F8  JSR $F88E                       A:40 X:78 Y:5E P:67 SP:FB PPU:13186,39558,CYC:13186
F88E  30 07     BMI $F897                       A:40 X:78 Y:5E P:67 SP:F9 PPU:13192,39576,CYC:13192
F890  90 05     BCC $F897                       A:40 X:78 Y:5E P:67 SP:F9 PPU:13194,39582,CYC:13194
F892  D0 03     BNE $F897                       A:40 X:78 Y:5E P:67 SP:F9 PPU:13196,39588,CYC:13196
F894  50 01     BVC $F897                       A:40 X:78 Y:5E P:67 SP:F9 PPU:13198,39594,CYC:13198
F896  60        RTS                             A:40 X:78 Y:5E P:67 SP:F9 PPU:13200,39600,CYC:13200
E2AC  C8        INY                             A:40 X:78 Y:5E P:67 SP:FB PPU:13206,39618,CYC:13206
E2AD  48        PHA                             A:40 X:78 Y:5F P:65 SP:FB PPU:13208,39624,CYC:13208
E2AE  A9 3F     LDA #$3F                        A:40 X:78 Y:5F P:65 SP:FA PPU:13211,39633,CYC:13211
E2B0  8D 78 06  STA $0678 = 40                  A:3F X:78 Y:5F P:65 SP:FA PPU:13213,39639,CYC:13213
E2B3  68        PLA                             A:3F X:78 Y:5F P:65 SP:FA PPU:13217,39651,CYC:13217
E2B4  20 9A F8  JSR $F89A                       A:40 X:78 Y:5F P:65 SP:FB PPU:13221,39663,CYC:13221
F89A  B8        CLV                             A:40 X:78 Y:5F P:65 SP:F9 PPU:13227,39681,CYC:13227
F89B  60        RTS                             A:40 X:78 Y:5F P:25 SP:F9 PPU:13229,39687,CYC:13229
E2B7  DD 00 06  CMP $0600,X @ 0678 = 3F         A:40 X:78 Y:5F P:25 SP:FB PPU:13235,39705,CYC:13235
E2BA  20 9C F8  JSR $F89C                       A:40 X:78 Y:5F P:25 SP:FB PPU:13239,39717,CYC:13239
F89C  F0 07     BEQ $F8A5                       A:40 X:78 Y:5F P:25 SP:F9 PPU:13245,39735,CYC:13245
F89E  30 05     BMI $F8A5                       A:40 X:78 Y:5F P:25 SP:F9 PPU:13247,39741,CYC:13247
F8A0  90 03     BCC $F8A5                       A:40 X:78 Y:5F P:25 SP:F9 PPU:13249,39747,CYC:13249
F8A2  70 01     BVS $F8A5                       A:40 X:78 Y:5F P:25 SP:F9 PPU:13251,39753,CYC:13251
F8A4  60        RTS                             A:40 X:78 Y:5F P:25 SP:F9 PPU:13253,39759,CYC:13253
E2BD  C8        INY                             A:40 X:78 Y:5F P:25 SP:FB PPU:13259,39777,CYC:13259
E2BE  48        PHA                             A:40 X:78 Y:60 P:25 SP:FB PPU:13261,39783,CYC:13261
E2BF  A9 41     LDA #$41                        A:40 X:78 Y:60 P:25 SP:FA PPU:13264,39792,CYC:13264
E2C1  8D 78 06  STA $0678 = 3F                  A:41 X:78 Y:60 P:25 SP:FA PPU:13266,39798,CYC:13266
E2C4  68        PLA                             A:41 X:78 Y:60 P:25 SP:FA PPU:13270,39810,CYC:13270
E2C5  DD 00 06  CMP $0600,X @ 0678 = 41         A:40 X:78 Y:60 P:25 SP:FB PPU:13274,39822,CYC:13274
E2C8  20 A8 F8  JSR $F8A8                       A:40 X:78 Y:60 P:A4 SP:FB PPU:13278,39834,CYC:13278
F8A8  F0 05     BEQ $F8AF                       A:40 X:78 Y:60 P:A4 SP:F9 PPU:13284,39852,CYC:13284
F8AA  10 03     BPL $F8AF                       A:40 X:78 Y:60 P:A4 SP:F9 PPU:13286,39858,CYC:13286
F8AC  10 01     BPL $F8AF                       A:40 X:78 Y:60 P:A4 SP:F9 PPU:13288,39864,CYC:13288
F8AE  60        RTS                             A:40 X:78 Y:60 P:A4 SP:F9 PPU:13290,39870,CYC:13290
E2CB  C8        INY                             A:40 X:78 Y:60 P:A4 SP:FB PPU:13296,39888,CYC:13296
E2CC  48        PHA                             A:40 X:78 Y:61 P:24 SP:FB PPU:13298,39894,CYC:13298
E2CD  A9 00     LDA #$00                        A:40 X:78 Y:61 P:24 SP:FA PPU:13301,39903,CYC:13301
E2CF  8D 78 06  STA $0678 = 41                  A:00 X:78 Y:61 P:26 SP:FA PPU:13303,39909,CYC:13303
E2D2  68        PLA                             A:00 X:78 Y:61 P:26 SP:FA PPU:13307,39921,CYC:13307
E2D3  20 B2 F8  JSR $F8B2                       A:40 X:78 Y:61 P:24 SP:FB PPU:13311,39933,CYC:13311
F8B2  A9 80     LDA #$80                        A:40 X:78 Y:61 P:24 SP:F9 PPU:13317,39951,CYC:13317
F8B4  60        RTS                             A:80 X:78 Y:61 P:A4 SP:F9 PPU:13319,39957,CYC:13319
E2D6  DD 00 06  CMP $0600,X @ 0678 = 00         A:80 X:78 Y:61 P:A4 SP:FB PPU:13325,39975,CYC:13325
E2D9  20 B5 F8  JSR $F8B5                       A:80 X:78 Y:61 P:A5 SP:FB PPU:13329,39987,CYC:13329
F8B5  F0 05     BEQ $F8BC                       A:80 X:78 Y:61 P:A5 SP:F9 PPU:13335,40005,CYC:13335
F8B7  10 03     BPL $F8BC                       A:80 X:78 Y:61 P:A5 SP:F9 PPU:13337,40011,CYC:13337
F8B9  90 01     BCC $F8BC                       A:80 X:78 Y:61 P:A5 SP:F9 PPU:13339,40017,CYC:13339
F8BB  60        RTS                             A:80 X:78 Y:61 P:A5 SP:F9 PPU:13341,40023,CYC:13341
E2DC  C8        INY                             A:80 X:78 Y:61 P:A5 SP:FB PPU:13347,40041,CYC:13347
E2DD  48        PHA                             A:80 X:78 Y:62 P:25 SP:FB PPU:13349,40047,CYC:13349
E2DE  A9 80     LDA #$80                        A:80 X:78 Y:62 P:25 SP:FA PPU:13352,40056,CYC:13352
E2E0  8D 78 06  STA $0678 = 00                  A:80 X:78 Y:62 P:A5 SP:FA PPU:13354,40062,CYC:13354
E2E3  68        PLA                             A:80 X:78 Y:62 P:A5 SP:FA PPU:13358,40074,CYC:13358
E2E4  DD 00 06  CMP $0600,X @ 0678 = 80         A:80 X:78 Y:62 P:A5 SP:FB PPU:13362,40086,CYC:13362
E2E7  20 BF F8  JSR $F8BF                       A:80 X:78 Y:62 P:27 SP:FB PPU:13366,40098,CYC:13366
F8BF  D0 05     BNE $F8C6                       A:80 X:78 Y:62 P:27 SP:F9 PPU:13372,40116,CYC:13372
F8C1  30 03     BMI $F8C6                       A:80 X:78 Y:62 P:27 SP:F9 PPU:13374,40122,CYC:13374
F8C3  90 01     BCC $F8C6                       A:80 X:78 Y:62 P:27 SP:F9 PPU:13376,40128,CYC:13376
F8C5  60        RTS                             A:80 X:78 Y:62 P:27 SP:F9 PPU:13378,40134,CYC:13378
E2EA  C8        INY                             A:80 X:78 Y:62 P:27 SP:FB PPU:13384,40152,CYC:13384
E2EB  48        PHA                             A:80 X:78 Y:63 P:25 SP:FB PPU:13386,40158,CYC:13386
E2EC  A9 81     LDA #$81                        A:80 X:78 Y:63 P:25 SP:FA PPU:13389,40167,CYC:13389
E2EE  8D 78 06  STA $0678 = 80                  A:81 X:78 Y:63 P:A5 SP:FA PPU:13391,40173,CYC:13391
E2F1  68        PLA                             A:81 X:78 Y:63 P:A5 SP:FA PPU:13395,40185,CYC:13395
E2F2  DD 00 06  CMP $0600,X @ 0678 = 81         A:80 X:78 Y:63 P:A5 SP:FB PPU:13399,40197,CYC:13399
E2F5  20 C9 F8  JSR $F8C9                       A:80 X:78 Y:63 P:A4 SP:FB PPU:13403,40209,CYC:13403
F8C9  B0 05     BCS $F8D0                       A:80 X:78 Y:63 P:A4 SP:F9 PPU:13409,40227,CYC:13409
F8CB  F0 03     BEQ $F8D0                       A:80 X:78 Y:63 P:A4 SP:F9 PPU:13411,40233,CYC:13411
F8CD  10 01     BPL $F8D0                       A:80 X:78 Y:63 P:A4 SP:F9 PPU:13413,40239,CYC:13413
F8CF  60        RTS                             A:80 X:78 Y:63 P:A4 SP:F9 PPU:13415,40245,CYC:13415
E2F8  C8        INY                             A:80 X:78 Y:63 P:A4 SP:FB PPU:13421,40263,CYC:13421
E2F9  48        PHA                             A:80 X:78 Y:64 P:24 SP:FB PPU:13423,40269,CYC:13423
E2FA  A9 7F     LDA #$7F                        A:80 X:78 Y:64 P:24 SP:FA PPU:13426,40278,CYC:13426
E2FC  8D 78 06  STA $0678 = 81                  A:7F X:78 Y:64 P:24 SP:FA PPU:13428,40284,CYC:13428
E2FF  68        PLA                             A:7F X:78 Y:64 P:24 SP:FA PPU:13432,40296,CYC:13432
E300  DD 00 06  CMP $0600,X @ 0678 = 7F         A:80 X:78 Y:64 P:A4 SP:FB PPU:13436,40308,CYC:13436
E303  20 D3 F8  JSR $F8D3                       A:80 X:78 Y:64 P:25 SP:FB PPU:13440,40320,CYC:13440
F8D3  90 05     BCC $F8DA                       A:80 X:78 Y:64 P:25 SP:F9 PPU:13446,40338,CYC:13446
F8D5  F0 03     BEQ $F8DA                       A:80 X:78 Y:64 P:25 SP:F9 PPU:13448,40344,CYC:13448
F8D7  30 01     BMI $F8DA                       A:80 X:78 Y:64 P:25 SP:F9 PPU:13450,40350,CYC:13450
F8D9  60        RTS                             A:80 X:78 Y:64 P:25 SP:F9 PPU:13452,40356,CYC:13452
E306  C8        INY                             A:80 X:78 Y:64 P:25 SP:FB PPU:13458,40374,CYC:13458
E307  A9 40     LDA #$40                        A:80 X:78 Y:65 P:25 SP:FB PPU:13460,40380,CYC:13460
E309  8D 78 06  STA $0678 = 7F                  A:40 X:78 Y:65 P:25 SP:FB PPU:13462,40386,CYC:13462
E30C  20 31 F9  JSR $F931                       A:40 X:78 Y:65 P:25 SP:FB PPU:13466,40398,CYC:13466
F931  24 01     BIT $01 = FF                    A:40 X:78 Y:65 P:25 SP:F9 PPU:13472,40416,CYC:13472
F933  A9 40     LDA #$40                        A:40 X:78 Y:65 P:E5 SP:F9 PPU:13475,40425,CYC:13475
F935  38        SEC                             A:40 X:78 Y:65 P:65 SP:F9 PPU:13477,40431,CYC:13477
F936  60        RTS                             A:40 X:78 Y:65 P:65 SP:F9 PPU:13479,40437,CYC:13479
E30F  FD 00 06  SBC $0600,X @ 0678 = 40         A:40 X:78 Y:65 P:65 SP:FB PPU:13485,40455,CYC:13485
E312  20 37 F9  JSR $F937                       A:00 X:78 Y:65 P:27 SP:FB PPU:13489,40467,CYC:13489
F937  30 0B     BMI $F944                       A:00 X:78 Y:65 P:27 SP:F9 PPU:13495,40485,CYC:13495
F939  90 09     BCC $F944                       A:00 X:78 Y:65 P:27 SP:F9 PPU:13497,40491,CYC:13497
F93B  D0 07     BNE $F944                       A:00 X:78 Y:65 P:27 SP:F9 PPU:13499,40497,CYC:13499
F93D  70 05     BVS $F944                       A:00 X:78 Y:65 P:27 SP:F9 PPU:13501,40503,CYC:13501
F93F  C9 00     CMP #$00                        A:00 X:78 Y:65 P:27 SP:F9 PPU:13503,40509,CYC:13503
F941  D0 01     BNE $F944                       A:00 X:78 Y:65 P:27 SP:F9 PPU:13505,40515,CYC:13505
F943  60        RTS                             A:00 X:78 Y:65 P:27 SP:F9 PPU:13507,40521,CYC:13507
E315  C8        INY                             A:00 X:78 Y:65 P:27 SP:FB PPU:13513,40539,CYC:13513
E316  A9 3F     LDA #$3F                        A:00 X:78 Y:66 P:25 SP:FB PPU:13515,40545,CYC:13515
E318  8D 78 06  STA $0678 = 40                  A:3F X:78 Y:66 P:25 SP:FB PPU:13517,40551,CYC:13517
E31B  20 47 F9  JSR $F947                       A:3F X:78 Y:66 P:25 SP:FB PPU:13521,40563,CYC:13521
F947  B8        CLV                             A:3F X:78 Y:66 P:25 SP:F9 PPU:13527,40581,CYC:13527
F948  38        SEC                             A:3F X:78 Y:66 P:25 SP:F9 PPU:13529,40587,CYC:13529
F949  A9 40     LDA #$40                        A:3F X:78 Y:66 P:25 SP:F9 PPU:13531,40593,CYC:13531
F94B  60        RTS                             A:40 X:78 Y:66 P:25 SP:F9 PPU:13533,40599,CYC:13533
E31E  FD 00 06  SBC $0600,X @ 0678 = 3F         A:40 X:78 Y:66 P:25 SP:FB PPU:13539,40617,CYC:13539
E321  20 4C F9  JSR $F94C                       A:01 X:78 Y:66 P:25 SP:FB PPU:13543,40629,CYC:13543
F94C  F0 0B     BEQ $F959                       A:01 X:78 Y:66 P:25 SP:F9 PPU:13549,40647,CYC:13549
F94E  30 09     BMI $F959                       A:01 X:78 Y:66 P:25 SP:F9 PPU:13551,40653,CYC:13551
F950  90 07     BCC $F959                       A:01 X:78 Y:66 P:25 SP:F9 PPU:13553,40659,CYC:13553
F952  70 05     BVS $F959                       A:01 X:78 Y:66 P:25 SP:F9 PPU:13555,40665,CYC:13555
F954  C9 01     CMP #$01                        A:01 X:78 Y:66 P:25 SP:F9 PPU:13557,40671,CYC:13557
F956  D0 01     BNE $F959                       A:01 X:78 Y:66 P:27 SP:F9 PPU:13559,40677,CYC:13559
F958  60        RTS                             A:01 X:78 Y:66 P:27 SP:F9 PPU:13561,40683,CYC:13561
E324  C8        INY                             A:01 X:78 Y:66 P:27 SP:FB PPU:13567,40701,CYC:13567
E325  A9 41     LDA #$41                        A:01 X:78 Y:67 P:25 SP:FB PPU:13569,40707,CYC:13569
E327  8D 78 06  STA $0678 = 3F                  A:41 X:78 Y:67 P:25 SP:FB PPU:13571,40713,CYC:13571
E32A  20 5C F9  JSR $F95C                       A:41 X:78 Y:67 P:25 SP:FB PPU:13575,40725,CYC:13575
F95C  A9 40     LDA #$40                        A:41 X:78 Y:67 P:25 SP:F9 PPU:13581,40743,CYC:13581
F95E  38        SEC                             A:40 X:78 Y:67 P:25 SP:F9 PPU:13583,40749,CYC:13583
F95F  24 01     BIT $01 = FF                    A:40 X:78 Y:67 P:25 SP:F9 PPU:13585,40755,CYC:13585
F961  60        RTS                             A:40 X:78 Y:67 P:E5 SP:F9 PPU:13588,40764,CYC:13588
E32D  FD 00 06  SBC $0600,X @ 0678 = 41         A:40 X:78 Y:67 P:E5 SP:FB PPU:13594,40782,CYC:13594
E330  20 62 F9  JSR $F962                       A:FF X:78 Y:67 P:A4 SP:FB PPU:13598,40794,CYC:13598
F962  B0 0B     BCS $F96F                       A:FF X:78 Y:67 P:A4 SP:F9 PPU:13604,40812,CYC:13604
F964  F0 09     BEQ $F96F                       A:FF X:78 Y:67 P:A4 SP:F9 PPU:13606,40818,CYC:13606
F966  10 07     BPL $F96F                       A:FF X:78 Y:67 P:A4 SP:F9 PPU:13608,40824,CYC:13608
F968  70 05     BVS $F96F                       A:FF X:78 Y:67 P:A4 SP:F9 PPU:13610,40830,CYC:13610
F96A  C9 FF     CMP #$FF                        A:FF X:78 Y:67 P:A4 SP:F9 PPU:13612,40836,CYC:13612
F96C  D0 01     BNE $F96F                       A:FF X:78 Y:67 P:27 SP:F9 PPU:13614,40842,CYC:13614
F96E  60        RTS                             A:FF X:78 Y:67 P:27 SP:F9 PPU:13616,40848,CYC:13616
E333  C8        INY                             A:FF X:78 Y:67 P:27 SP:FB PPU:13622,40866,CYC:13622
E334  A9 00     LDA #$00                        A:FF X:78 Y:68 P:25 SP:FB PPU:13624,40872,CYC:13624
E336  8D 78 06  STA $0678 = 41                  A:00 X:78 Y:68 P:27 SP:FB PPU:13626,40878,CYC:13626
E339  20 72 F9  JSR $F972                       A:00 X:78 Y:68 P:27 SP:FB PPU:13630,40890,CYC:13630
F972  18        CLC                             A:00 X:78 Y:68 P:27 SP:F9 PPU:13636,40908,CYC:13636
F973  A9 80     LDA #$80                        A:00 X:78 Y:68 P:26 SP:F9 PPU:13638,40914,CYC:13638
F975  60        RTS                             A:80 X:78 Y:68 P:A4 SP:F9 PPU:13640,40920,CYC:13640
E33C  FD 00 06  SBC $0600,X @ 0678 = 00         A:80 X:78 Y:68 P:A4 SP:FB PPU:13646,40938,CYC:13646
E33F  20 76 F9  JSR $F976                       A:7F X:78 Y:68 P:65 SP:FB PPU:13650,40950,CYC:13650
F976  90 05     BCC $F97D                       A:7F X:78 Y:68 P:65 SP:F9 PPU:13656,40968,CYC:13656
F978  C9 7F     CMP #$7F                        A:7F X:78 Y:68 P:65 SP:F9 PPU:13658,40974,CYC:13658
F97A  D0 01     BNE $F97D                       A:7F X:78 Y:68 P:67 SP:F9 PPU:13660,40980,CYC:13660
F97C  60        RTS                             A:7F X:78 Y:68 P:67 SP:F9 PPU:13662,40986,CYC:13662
E342  C8        INY                             A:7F X:78 Y:68 P:67 SP:FB PPU:13668,41004,CYC:13668
E343  A9 7F     LDA #$7F                        A:7F X:78 Y:69 P:65 SP:FB PPU:13670,41010,CYC:13670
E345  8D 78 06  STA $0678 = 00                  A:7F X:78 Y:69 P:65 SP:FB PPU:13672,41016,CYC:13672
E348  20 80 F9  JSR $F980                       A:7F X:78 Y:69 P:65 SP:FB PPU:13676,41028,CYC:13676
F980  38        SEC                             A:7F X:78 Y:69 P:65 SP:F9 PPU:13682,41046,CYC:13682
F981  A9 81     LDA #$81                        A:7F X:78 Y:69 P:65 SP:F9 PPU:13684,41052,CYC:13684
F983  60        RTS                             A:81 X:78 Y:69 P:E5 SP:F9 PPU:13686,41058,CYC:13686
E34B  FD 00 06  SBC $0600,X @ 0678 = 7F         A:81 X:78 Y:69 P:E5 SP:FB PPU:13692,41076,CYC:13692
E34E  20 84 F9  JSR $F984                       A:02 X:78 Y:69 P:65 SP:FB PPU:13696,41088,CYC:13696
F984  50 07     BVC $F98D                       A:02 X:78 Y:69 P:65 SP:F9 PPU:13702,41106,CYC:13702
F986  90 05     BCC $F98D                       A:02 X:78 Y:69 P:65 SP:F9 PPU:13704,41112,CYC:13704
F988  C9 02     CMP #$02                        A:02 X:78 Y:69 P:65 SP:F9 PPU:13706,41118,CYC:13706
F98A  D0 01     BNE $F98D                       A:02 X:78 Y:69 P:67 SP:F9 PPU:13708,41124,CYC:13708
F98C  60        RTS                             A:02 X:78 Y:69 P:67 SP:F9 PPU:13710,41130,CYC:13710
E351  A9 AA     LDA #$AA                        A:02 X:78 Y:69 P:67 SP:FB PPU:13716,41148,CYC:13716
E353  8D 33 06  STA $0633 = AA                  A:AA X:78 Y:69 P:E5 SP:FB PPU:13718,41154,CYC:13718
E356  A9 BB     LDA #$BB                        A:AA X:78 Y:69 P:E5 SP:FB PPU:13722,41166,CYC:13722
E358  8D 89 06  STA $0689 = BB                  A:BB X:78 Y:69 P:E5 SP:FB PPU:13724,41172,CYC:13724
E35B  A2 00     LDX #$00                        A:BB X:78 Y:69 P:E5 SP:FB PPU:13728,41184,CYC:13728
E35D  A0 66     LDY #$66                        A:BB X:00 Y:69 P:67 SP:FB PPU:13730,41190,CYC:13730
E35F  24 01     BIT $01 = FF                    A:BB X:00 Y:66 P:65 SP:FB PPU:13732,41196,CYC:13732
E361  38        SEC                             A:BB X:00 Y:66 P:E5 SP:FB PPU:13735,41205,CYC:13735
E362  A9 00     LDA #$00                        A:BB X:00 Y:66 P:E5 SP:FB PPU:13737,41211,CYC:13737
E364  BD 33 06  LDA $0633,X @ 0633 = AA         A:00 X:00 Y:66 P:67 SP:FB PPU:13739,41217,CYC:13739
E367  10 12     BPL $E37B                       A:AA X:00 Y:66 P:E5 SP:FB PPU:13743,41229,CYC:13743
E369  F0 10     BEQ $E37B                       A:AA X:00 Y:66 P:E5 SP:FB PPU:13745,41235,CYC:13745
E36B  50 0E     BVC $E37B                       A:AA X:00 Y:66 P:E5 SP:FB PPU:13747,41241,CYC:13747
E36D  90 0C     BCC $E37B                       A:AA X:00 Y:66 P:E5 SP:FB PPU:13749,41247,CYC:13749
E36F  C0 66     CPY #$66                        A:AA X:00 Y:66 P:E5 SP:FB PPU:13751,41253,CYC:13751
E371  D0 08     BNE $E37B                       A:AA X:00 Y:66 P:67 SP:FB PPU:13753,41259,CYC:13753
E373  E0 00     CPX #$00                        A:AA X:00 Y:66 P:67 SP:FB PPU:13755,41265,CYC:13755
E375  D0 04     BNE $E37B                       A:AA X:00 Y:66 P:67 SP:FB PPU:13757,41271,CYC:13757
E377  C9 AA     CMP #$AA                        A:AA X:00 Y:66 P:67 SP:FB PPU:13759,41277,CYC:13759
E379  F0 04     BEQ $E37F                       A:AA X:00 Y:66 P:67 SP:FB PPU:13761,41283,CYC:13761
E37F  A2 8A     LDX #$8A                        A:AA X:00 Y:66 P:67 SP:FB PPU:13764,41292,CYC:13764
E381  A0 66     LDY #$66                        A:AA X:8A Y:66 P:E5 SP:FB PPU:13766,41298,CYC:13766
E383  B8        CLV                             A:AA X:8A Y:66 P:65 SP:FB PPU:13768,41304,CYC:13768
E384  18        CLC                             A:AA X:8A Y:66 P:25 SP:FB PPU:13770,41310,CYC:13770
E385  A9 00     LDA #$00                        A:AA X:8A Y:66 P:24 SP:FB PPU:13772,41316,CYC:13772
E387  BD FF 05  LDA $05FF,X @ 0689 = BB         A:00 X:8A Y:66 P:26 SP:FB PPU:13774,41322,CYC:13774
E38A  10 12     BPL $E39E                       A:BB X:8A Y:66 P:A4 SP:FB PPU:13779,41337,CYC:13779
E38C  F0 10     BEQ $E39E                       A:BB X:8A Y:66 P:A4 SP:FB PPU:13781,41343,CYC:13781
E38E  70 0E     BVS $E39E                       A:BB X:8A Y:66 P:A4 SP:FB PPU:13783,41349,CYC:13783
E390  B0 0C     BCS $E39E                       A:BB X:8A Y:66 P:A4 SP:FB PPU:13785,41355,CYC:13785
E392  C9 BB     CMP #$BB                        A:BB X:8A Y:66 P:A4 SP:FB PPU:13787,41361,CYC:13787
E394  D0 08     BNE $E39E                       A:BB X:8A Y:66 P:27 SP:FB PPU:13789,41367,CYC:13789
E396  C0 66     CPY #$66                        A:BB X:8A Y:66 P:27 SP:FB PPU:13791,41373,CYC:13791
E398  D0 04     BNE $E39E                       A:BB X:8A Y:66 P:27 SP:FB PPU:13793,41379,CYC:13793
E39A  E0 8A     CPX #$8A                        A:BB X:8A Y:66 P:27 SP:FB PPU:13795,41385,CYC:13795
E39C  F0 04     BEQ $E3A2                       A:BB X:8A Y:66 P:27 SP:FB PPU:13797,41391,CYC:13797
E3A2  24 01     BIT $01 = FF                    A:BB X:8A Y:66 P:27 SP:FB PPU:13800,41400,CYC:13800
E3A4  38        SEC                             A:BB X:8A Y:66 P:E5 SP:FB PPU:13803,41409,CYC:13803
E3A5  A9 44     LDA #$44                        A:BB X:8A Y:66 P:E5 SP:FB PPU:13805,41415,CYC:13805
E3A7  A2 00     LDX #$00                        A:44 X:8A Y:66 P:65 SP:FB PPU:13807,41421,CYC:13807
E3A9  9D 33 06  STA $0633,X @ 0633 = AA         A:44 X:00 Y:66 P:67 SP:FB PPU:13809,41427,CYC:13809
E3AC  AD 33 06  LDA $0633 = 44                  A:44 X:00 Y:66 P:67 SP:FB PPU:13814,41442,CYC:13814
E3AF  90 1A     BCC $E3CB                       A:44 X:00 Y:66 P:65 SP:FB PPU:13818,41454,CYC:13818
E3B1  C9 44     CMP #$44                        A:44 X:00 Y:66 P:65 SP:FB PPU:13820,41460,CYC:13820
E3B3  D0 16     BNE $E3CB                       A:44 X:00 Y:66 P:67 SP:FB PPU:13822,41466,CYC:13822
E3B5  50 14     BVC $E3CB                       A:44 X:00 Y:66 P:67 SP:FB PPU:13824,41472,CYC:13824
E3B7  18        CLC                             A:44 X:00 Y:66 P:67 SP:FB PPU:13826,41478,CYC:13826
E3B8  B8        CLV                             A:44 X:00 Y:66 P:66 SP:FB PPU:13828,41484,CYC:13828
E3B9  A9 99     LDA #$99                        A:44 X:00 Y:66 P:26 SP:FB PPU:13830,41490,CYC:13830
E3BB  A2 80     LDX #$80                        A:99 X:00 Y:66 P:A4 SP:FB PPU:13832,41496,CYC:13832
E3BD  9D 85 05  STA $0585,X @ 0605 = 00         A:99 X:80 Y:66 P:A4 SP:FB PPU:13834,41502,CYC:13834
E3C0  AD 05 06  LDA $0605 = 99                  A:99 X:80 Y:66 P:A4 SP:FB PPU:13839,41517,CYC:13839
E3C3  B0 06     BCS $E3CB                       A:99 X:80 Y:66 P:A4 SP:FB PPU:13843,41529,CYC:13843
E3C5  C9 99     CMP #$99                        A:99 X:80 Y:66 P:A4 SP:FB PPU:13845,41535,CYC:13845
E3C7  D0 02     BNE $E3CB                       A:99 X:80 Y:66 P:27 SP:FB PPU:13847,41541,CYC:13847
E3C9  50 04     BVC $E3CF                       A:99 X:80 Y:66 P:27 SP:FB PPU:13849,41547,CYC:13849
E3CF  A0 6D     LDY #$6D                        A:99 X:80 Y:66 P:27 SP:FB PPU:13852,41556,CYC:13852
E3D1  A2 6D     LDX #$6D                        A:99 X:80 Y:6D P:25 SP:FB PPU:13854,41562,CYC:13854
E3D3  20 90 F9  JSR $F990                       A:99 X:6D Y:6D P:25 SP:FB PPU:13856,41568,CYC:13856
F990  A2 55     LDX #$55                        A:99 X:6D Y:6D P:25 SP:F9 PPU:13862,41586,CYC:13862
F992  A9 FF     LDA #$FF                        A:99 X:55 Y:6D P:25 SP:F9 PPU:13864,41592,CYC:13864
F994  85 01     STA $01 = FF                    A:FF X:55 Y:6D P:A5 SP:F9 PPU:13866,41598,CYC:13866
F996  EA        NOP                             A:FF X:55 Y:6D P:A5 SP:F9 PPU:13869,41607,CYC:13869
F997  24 01     BIT $01 = FF                    A:FF X:55 Y:6D P:A5 SP:F9 PPU:13871,41613,CYC:13871
F999  38        SEC                             A:FF X:55 Y:6D P:E5 SP:F9 PPU:13874,41622,CYC:13874
F99A  A9 01     LDA #$01                        A:FF X:55 Y:6D P:E5 SP:F9 PPU:13876,41628,CYC:13876
F99C  60        RTS                             A:01 X:55 Y:6D P:65 SP:F9 PPU:13878,41634,CYC:13878
E3D6  9D 00 06  STA $0600,X @ 0655 = 00         A:01 X:55 Y:6D P:65 SP:FB PPU:13884,41652,CYC:13884
E3D9  5E 00 06  LSR $0600,X @ 0655 = 01         A:01 X:55 Y:6D P:65 SP:FB PPU:13889,41667,CYC:13889
E3DC  BD 00 06  LDA $0600,X @ 0655 = 00         A:01 X:55 Y:6D P:67 SP:FB PPU:13896,41688,CYC:13896
E3DF  20 9D F9  JSR $F99D                       A:00 X:55 Y:6D P:67 SP:FB PPU:13900,41700,CYC:13900
F99D  90 1B     BCC $F9BA                       A:00 X:55 Y:6D P:67 SP:F9 PPU:13906,41718,CYC:13906
F99F  D0 19     BNE $F9BA                       A:00 X:55 Y:6D P:67 SP:F9 PPU:13908,41724,CYC:13908
F9A1  30 17     BMI $F9BA                       A:00 X:55 Y:6D P:67 SP:F9 PPU:13910,41730,CYC:13910
F9A3  50 15     BVC $F9BA                       A:00 X:55 Y:6D P:67 SP:F9 PPU:13912,41736,CYC:13912
F9A5  C9 00     CMP #$00                        A:00 X:55 Y:6D P:67 SP:F9 PPU:13914,41742,CYC:13914
F9A7  D0 11     BNE $F9BA                       A:00 X:55 Y:6D P:67 SP:F9 PPU:13916,41748,CYC:13916
F9A9  B8        CLV                             A:00 X:55 Y:6D P:67 SP:F9 PPU:13918,41754,CYC:13918
F9AA  A9 AA     LDA #$AA                        A:00 X:55 Y:6D P:27 SP:F9 PPU:13920,41760,CYC:13920
F9AC  60        RTS                             A:AA X:55 Y:6D P:A5 SP:F9 PPU:13922,41766,CYC:13922
E3E2  C8        INY                             A:AA X:55 Y:6D P:A5 SP:FB PPU:13928,41784,CYC:13928
E3E3  9D 00 06  STA $0600,X @ 0655 = 00         A:AA X:55 Y:6E P:25 SP:FB PPU:13930,41790,CYC:13930
E3E6  5E 00 06  LSR $0600,X @ 0655 = AA         A:AA X:55 Y:6E P:25 SP:FB PPU:13935,41805,CYC:13935
E3E9  BD 00 06  LDA $0600,X @ 0655 = 55         A:AA X:55 Y:6E P:24 SP:FB PPU:13942,41826,CYC:13942
E3EC  20 AD F9  JSR $F9AD                       A:55 X:55 Y:6E P:24 SP:FB PPU:13946,41838,CYC:13946
F9AD  B0 0B     BCS $F9BA                       A:55 X:55 Y:6E P:24 SP:F9 PPU:13952,41856,CYC:13952
F9AF  F0 09     BEQ $F9BA                       A:55 X:55 Y:6E P:24 SP:F9 PPU:13954,41862,CYC:13954
F9B1  30 07     BMI $F9BA                       A:55 X:55 Y:6E P:24 SP:F9 PPU:13956,41868,CYC:13956
F9B3  70 05     BVS $F9BA                       A:55 X:55 Y:6E P:24 SP:F9 PPU:13958,41874,CYC:13958
F9B5  C9 55     CMP #$55                        A:55 X:55 Y:6E P:24 SP:F9 PPU:13960,41880,CYC:13960
F9B7  D0 01     BNE $F9BA                       A:55 X:55 Y:6E P:27 SP:F9 PPU:13962,41886,CYC:13962
F9B9  60        RTS                             A:55 X:55 Y:6E P:27 SP:F9 PPU:13964,41892,CYC:13964
E3EF  C8        INY                             A:55 X:55 Y:6E P:27 SP:FB PPU:13970,41910,CYC:13970
E3F0  20 BD F9  JSR $F9BD                       A:55 X:55 Y:6F P:25 SP:FB PPU:13972,41916,CYC:13972
F9BD  24 01     BIT $01 = FF                    A:55 X:55 Y:6F P:25 SP:F9 PPU:13978,41934,CYC:13978
F9BF  38        SEC                             A:55 X:55 Y:6F P:E5 SP:F9 PPU:13981,41943,CYC:13981
F9C0  A9 80     LDA #$80                        A:55 X:55 Y:6F P:E5 SP:F9 PPU:13983,41949,CYC:13983
F9C2  60        RTS                             A:80 X:55 Y:6F P:E5 SP:F9 PPU:13985,41955,CYC:13985
E3F3  9D 00 06  STA $0600,X @ 0655 = 55         A:80 X:55 Y:6F P:E5 SP:FB PPU:13991,41973,CYC:13991
E3F6  1E 00 06  ASL $0600,X @ 0655 = 80         A:80 X:55 Y:6F P:E5 SP:FB PPU:13996,41988,CYC:13996
E3F9  BD 00 06  LDA $0600,X @ 0655 = 00         A:80 X:55 Y:6F P:67 SP:FB PPU:14003,42009,CYC:14003
E3FC  20 C3 F9  JSR $F9C3                       A:00 X:55 Y:6F P:67 SP:FB PPU:14007,42021,CYC:14007
F9C3  90 1C     BCC $F9E1                       A:00 X:55 Y:6F P:67 SP:F9 PPU:14013,42039,CYC:14013
F9C5  D0 1A     BNE $F9E1                       A:00 X:55 Y:6F P:67 SP:F9 PPU:14015,42045,CYC:14015
F9C7  30 18     BMI $F9E1                       A:00 X:55 Y:6F P:67 SP:F9 PPU:14017,42051,CYC:14017
F9C9  50 16     BVC $F9E1                       A:00 X:55 Y:6F P:67 SP:F9 PPU:14019,42057,CYC:14019
F9CB  C9 00     CMP #$00                        A:00 X:55 Y:6F P:67 SP:F9 PPU:14021,42063,CYC:14021
F9CD  D0 12     BNE $F9E1                       A:00 X:55 Y:6F P:67 SP:F9 PPU:14023,42069,CYC:14023
F9CF  B8        CLV                             A:00 X:55 Y:6F P:67 SP:F9 PPU:14025,42075,CYC:14025
F9D0  A9 55     LDA #$55                        A:00 X:55 Y:6F P:27 SP:F9 PPU:14027,42081,CYC:14027
F9D2  38        SEC                             A:55 X:55 Y:6F P:25 SP:F9 PPU:14029,42087,CYC:14029
F9D3  60        RTS                             A:55 X:55 Y:6F P:25 SP:F9 PPU:14031,42093,CYC:14031
E3FF  C8        INY                             A:55 X:55 Y:6F P:25 SP:FB PPU:14037,42111,CYC:14037
E400  9D 00 06  STA $0600,X @ 0655 = 00         A:55 X:55 Y:70 P:25 SP:FB PPU:14039,42117,CYC:14039
E403  1E 00 06  ASL $0600,X @ 0655 = 55         A:55 X:55 Y:70 P:25 SP:FB PPU:14044,42132,CYC:14044
E406  BD 00 06  LDA $0600,X @ 0655 = AA         A:55 X:55 Y:70 P:A4 SP:FB PPU:14051,42153,CYC:14051
E409  20 D4 F9  JSR $F9D4                       A:AA X:55 Y:70 P:A4 SP:FB PPU:14055,42165,CYC:14055
F9D4  B0 0B     BCS $F9E1                       A:AA X:55 Y:70 P:A4 SP:F9 PPU:14061,42183,CYC:14061
F9D6  F0 09     BEQ $F9E1                       A:AA X:55 Y:70 P:A4 SP:F9 PPU:14063,42189,CYC:14063
F9D8  10 07     BPL $F9E1                       A:AA X:55 Y:70 P:A4 SP:F9 PPU:14065,42195,CYC:14065
F9DA  70 05     BVS $F9E1                       A:AA X:55 Y:70 P:A4 SP:F9 PPU:14067,42201,CYC:14067
F9DC  C9 AA     CMP #$AA                        A:AA X:55 Y:70 P:A4 SP:F9 PPU:14069,42207,CYC:14069
F9DE  D0 01     BNE $F9E1                       A:AA X:55 Y:70 P:27 SP:F9 PPU:14071,42213,CYC:14071
F9E0  60        RTS                             A:AA X:55 Y:70 P:27 SP:F9 PPU:14073,42219,CYC:14073
E40C  C8        INY                             A:AA X:55 Y:70 P:27 SP:FB PPU:14079,42237,CYC:14079
E40D  20 E4 F9  JSR $F9E4                       A:AA X:55 Y:71 P:25 SP:FB PPU:14081,42243,CYC:14081
F9E4  24 01     BIT $01 = FF                    A:AA X:55 Y:71 P:25 SP:F9 PPU:14087,42261,CYC:14087
F9E6  38        SEC                             A:AA X:55 Y:71 P:E5 SP:F9 PPU:14090,42270,CYC:14090
F9E7  A9 01     LDA #$01                        A:AA X:55 Y:71 P:E5 SP:F9 PPU:14092,42276,CYC:14092
F9E9  60        RTS                             A:01 X:55 Y:71 P:65 SP:F9 PPU:14094,42282,CYC:14094
E410  9D 00 06  STA $0600,X @ 0655 = AA         A:01 X:55 Y:71 P:65 SP:FB PPU:14100,42300,CYC:14100
E413  7E 00 06  ROR $0600,X @ 0655 = 01         A:01 X:55 Y:71 P:65 SP:FB PPU:14105,42315,CYC:14105
E416  BD 00 06  LDA $0600,X @ 0655 = 80         A:01 X:55 Y:71 P:E5 SP:FB PPU:14112,42336,CYC:14112
E419  20 EA F9  JSR $F9EA                       A:80 X:55 Y:71 P:E5 SP:FB PPU:14116,42348,CYC:14116
F9EA  90 1C     BCC $FA08                       A:80 X:55 Y:71 P:E5 SP:F9 PPU:14122,42366,CYC:14122
F9EC  F0 1A     BEQ $FA08                       A:80 X:55 Y:71 P:E5 SP:F9 PPU:14124,42372,CYC:14124
F9EE  10 18     BPL $FA08                       A:80 X:55 Y:71 P:E5 SP:F9 PPU:14126,42378,CYC:14126
F9F0  50 16     BVC $FA08                       A:80 X:55 Y:71 P:E5 SP:F9 PPU:14128,42384,CYC:14128
F9F2  C9 80     CMP #$80                        A:80 X:55 Y:71 P:E5 SP:F9 PPU:14130,42390,CYC:14130
F9F4  D0 12     BNE $FA08                       A:80 X:55 Y:71 P:67 SP:F9 PPU:14132,42396,CYC:14132
F9F6  B8        CLV                             A:80 X:55 Y:71 P:67 SP:F9 PPU:14134,42402,CYC:14134
F9F7  18        CLC                             A:80 X:55 Y:71 P:27 SP:F9 PPU:14136,42408,CYC:14136
F9F8  A9 55     LDA #$55                        A:80 X:55 Y:71 P:26 SP:F9 PPU:14138,42414,CYC:14138
F9FA  60        RTS                             A:55 X:55 Y:71 P:24 SP:F9 PPU:14140,42420,CYC:14140
E41C  C8        INY                             A:55 X:55 Y:71 P:24 SP:FB PPU:14146,42438,CYC:14146
E41D  9D 00 06  STA $0600,X @ 0655 = 80         A:55 X:55 Y:72 P:24 SP:FB PPU:14148,42444,CYC:14148
E420  7E 00 06  ROR $0600,X @ 0655 = 55         A:55 X:55 Y:72 P:24 SP:FB PPU:14153,42459,CYC:14153
E423  BD 00 06  LDA $0600,X @ 0655 = 2A         A:55 X:55 Y:72 P:25 SP:FB PPU:14160,42480,CYC:14160
E426  20 FB F9  JSR $F9FB                       A:2A X:55 Y:72 P:25 SP:FB PPU:14164,42492,CYC:14164
F9FB  90 0B     BCC $FA08                       A:2A X:55 Y:72 P:25 SP:F9 PPU:14170,42510,CYC:14170
F9FD  F0 09     BEQ $FA08                       A:2A X:55 Y:72 P:25 SP:F9 PPU:14172,42516,CYC:14172
F9FF  30 07     BMI $FA08                       A:2A X:55 Y:72 P:25 SP:F9 PPU:14174,42522,CYC:14174
FA01  70 05     BVS $FA08                       A:2A X:55 Y:72 P:25 SP:F9 PPU:14176,42528,CYC:14176
FA03  C9 2A     CMP #$2A                        A:2A X:55 Y:72 P:25 SP:F9 PPU:14178,42534,CYC:14178
FA05  D0 01     BNE $FA08                       A:2A X:55 Y:72 P:27 SP:F9 PPU:14180,42540,CYC:14180
FA07  60        RTS                             A:2A X:55 Y:72 P:27 SP:F9 PPU:14182,42546,CYC:14182
E429  C8        INY                             A:2A X:55 Y:72 P:27 SP:FB PPU:14188,42564,CYC:14188
E42A  20 0A FA  JSR $FA0A                       A:2A X:55 Y:73 P:25 SP:FB PPU:14190,42570,CYC:14190
FA0A  24 01     BIT $01 = FF                    A:2A X:55 Y:73 P:25 SP:F9 PPU:14196,42588,CYC:14196
FA0C  38        SEC                             A:2A X:55 Y:73 P:E5 SP:F9 PPU:14199,42597,CYC:14199
FA0D  A9 80     LDA #$80                        A:2A X:55 Y:73 P:E5 SP:F9 PPU:14201,42603,CYC:14201
FA0F  60        RTS                             A:80 X:55 Y:73 P:E5 SP:F9 PPU:14203,42609,CYC:14203
E42D  9D 00 06  STA $0600,X @ 0655 = 2A         A:80 X:55 Y:73 P:E5 SP:FB PPU:14209,42627,CYC:14209
E430  3E 00 06  ROL $0600,X @ 0655 = 80         A:80 X:55 Y:73 P:E5 SP:FB PPU:14214,42642,CYC:14214
E433  BD 00 06  LDA $0600,X @ 0655 = 01         A:80 X:55 Y:73 P:65 SP:FB PPU:14221,42663,CYC:14221
E436  20 10 FA  JSR $FA10                       A:01 X:55 Y:73 P:65 SP:FB PPU:14225,42675,CYC:14225
FA10  90 1C     BCC $FA2E                       A:01 X:55 Y:73 P:65 SP:F9 PPU:14231,42693,CYC:14231
FA12  F0 1A     BEQ $FA2E                       A:01 X:55 Y:73 P:65 SP:F9 PPU:14233,42699,CYC:14233
FA14  30 18     BMI $FA2E                       A:01 X:55 Y:73 P:65 SP:F9 PPU:14235,42705,CYC:14235
FA16  50 16     BVC $FA2E                       A:01 X:55 Y:73 P:65 SP:F9 PPU:14237,42711,CYC:14237
FA18  C9 01     CMP #$01                        A:01 X:55 Y:73 P:65 SP:F9 PPU:14239,42717,CYC:14239
FA1A  D0 12     BNE $FA2E                       A:01 X:55 Y:73 P:67 SP:F9 PPU:14241,42723,CYC:14241
FA1C  B8        CLV                             A:01 X:55 Y:73 P:67 SP:F9 PPU:14243,42729,CYC:14243
FA1D  18        CLC                             A:01 X:55 Y:73 P:27 SP:F9 PPU:14245,42735,CYC:14245
FA1E  A9 55     LDA #$55                        A:01 X:55 Y:73 P:26 SP:F9 PPU:14247,42741,CYC:14247
FA20  60        RTS                             A:55 X:55 Y:73 P:24 SP:F9 PPU:14249,42747,CYC:14249
E439  C8        INY                             A:55 X:55 Y:73 P:24 SP:FB PPU:14255,42765,CYC:14255
E43A  9D 00 06  STA $0600,X @ 0655 = 01         A:55 X:55 Y:74 P:24 SP:FB PPU:14257,42771,CYC:14257
E43D  3E 00 06  ROL $0600,X @ 0655 = 55         A:55 X:55 Y:74 P:24 SP:FB PPU:14262,42786,CYC:14262
E440  BD 00 06  LDA $0600,X @ 0655 = AA         A:55 X:55 Y:74 P:A4 SP:FB PPU:14269,42807,CYC:14269
E443  20 21 FA  JSR $FA21                       A:AA X:55 Y:74 P:A4 SP:FB PPU:14273,42819,CYC:14273
FA21  B0 0B     BCS $FA2E                       A:AA X:55 Y:74 P:A4 SP:F9 PPU:14279,42837,CYC:14279
FA23  F0 09     BEQ $FA2E                       A:AA X:55 Y:74 P:A4 SP:F9 PPU:14281,42843,CYC:14281
FA25  10 07     BPL $FA2E                       A:AA X:55 Y:74 P:A4 SP:F9 PPU:14283,42849,CYC:14283
FA27  70 05     BVS $FA2E                       A:AA X:55 Y:74 P:A4 SP:F9 PPU:14285,42855,CYC:14285
FA29  C9 AA     CMP #$AA                        A:AA X:55 Y:74 P:A4 SP:F9 PPU:14287,42861,CYC:14287
FA2B  D0 01     BNE $FA2E                       A:AA X:55 Y:74 P:27 SP:F9 PPU:14289,42867,CYC:14289
FA2D  60        RTS                             A:AA X:55 Y:74 P:27 SP:F9 PPU:14291,42873,CYC:14291
E446  A9 FF     LDA #$FF                        A:AA X:55 Y:74 P:27 SP:FB PPU:14297,42891,CYC:14297
E448  9D 00 06  STA $0600,X @ 0655 = AA         A:FF X:55 Y:74 P:A5 SP:FB PPU:14299,42897,CYC:14299
E44B  85 01     STA $01 = FF                    A:FF X:55 Y:74 P:A5 SP:FB PPU:14304,42912,CYC:14304
E44D  24 01     BIT $01 = FF                    A:FF X:55 Y:74 P:A5 SP:FB PPU:14307,42921,CYC:14307
E44F  38        SEC                             A:FF X:55 Y:74 P:E5 SP:FB PPU:14310,42930,CYC:14310
E450  FE 00 06  INC $0600,X @ 0655 = FF         A:FF X:55 Y:74 P:E5 SP:FB PPU:14312,42936,CYC:14312
E453  D0 0D     BNE $E462                       A:FF X:55 Y:74 P:67 SP:FB PPU:14319,42957,CYC:14319
E455  30 0B     BMI $E462                       A:FF X:55 Y:74 P:67 SP:FB PPU:14321,42963,CYC:14321
E457  50 09     BVC $E462                       A:FF X:55 Y:74 P:67 SP:FB PPU:14323,42969,CYC:14323
E459  90 07     BCC $E462                       A:FF X:55 Y:74 P:67 SP:FB PPU:14325,42975,CYC:14325
E45B  BD 00 06  LDA $0600,X @ 0655 = 00         A:FF X:55 Y:74 P:67 SP:FB PPU:14327,42981,CYC:14327
E45E  C9 00     CMP #$00                        A:00 X:55 Y:74 P:67 SP:FB PPU:14331,42993,CYC:14331
E460  F0 04     BEQ $E466                       A:00 X:55 Y:74 P:67 SP:FB PPU:14333,42999,CYC:14333
E466  A9 7F     LDA #$7F                        A:00 X:55 Y:74 P:67 SP:FB PPU:14336,43008,CYC:14336
E468  9D 00 06  STA $0600,X @ 0655 = 00         A:7F X:55 Y:74 P:65 SP:FB PPU:14338,43014,CYC:14338
E46B  B8        CLV                             A:7F X:55 Y:74 P:65 SP:FB PPU:14343,43029,CYC:14343
E46C  18        CLC                             A:7F X:55 Y:74 P:25 SP:FB PPU:14345,43035,CYC:14345
E46D  FE 00 06  INC $0600,X @ 0655 = 7F         A:7F X:55 Y:74 P:24 SP:FB PPU:14347,43041,CYC:14347
E470  F0 0D     BEQ $E47F                       A:7F X:55 Y:74 P:A4 SP:FB PPU:14354,43062,CYC:14354
E472  10 0B     BPL $E47F                       A:7F X:55 Y:74 P:A4 SP:FB PPU:14356,43068,CYC:14356
E474  70 09     BVS $E47F                       A:7F X:55 Y:74 P:A4 SP:FB PPU:14358,43074,CYC:14358
E476  B0 07     BCS $E47F                       A:7F X:55 Y:74 P:A4 SP:FB PPU:14360,43080,CYC:14360
E478  BD 00 06  LDA $0600,X @ 0655 = 80         A:7F X:55 Y:74 P:A4 SP:FB PPU:14362,43086,CYC:14362
E47B  C9 80     CMP #$80                        A:80 X:55 Y:74 P:A4 SP:FB PPU:14366,43098,CYC:14366
E47D  F0 04     BEQ $E483                       A:80 X:55 Y:74 P:27 SP:FB PPU:14368,43104,CYC:14368
E483  A9 00     LDA #$00                        A:80 X:55 Y:74 P:27 SP:FB PPU:14371,43113,CYC:14371
E485  9D 00 06  STA $0600,X @ 0655 = 80         A:00 X:55 Y:74 P:27 SP:FB PPU:14373,43119,CYC:14373
E488  24 01     BIT $01 = FF                    A:00 X:55 Y:74 P:27 SP:FB PPU:14378,43134,CYC:14378
E48A  38        SEC                             A:00 X:55 Y:74 P:E7 SP:FB PPU:14381,43143,CYC:14381
E48B  DE 00 06  DEC $0600,X @ 0655 = 00         A:00 X:55 Y:74 P:E7 SP:FB PPU:14383,43149,CYC:14383
E48E  F0 0D     BEQ $E49D                       A:00 X:55 Y:74 P:E5 SP:FB PPU:14390,43170,CYC:14390
E490  10 0B     BPL $E49D                       A:00 X:55 Y:74 P:E5 SP:FB PPU:14392,43176,CYC:14392
E492  50 09     BVC $E49D                       A:00 X:55 Y:74 P:E5 SP:FB PPU:14394,43182,CYC:14394
E494  90 07     BCC $E49D                       A:00 X:55 Y:74 P:E5 SP:FB PPU:14396,43188,CYC:14396
E496  BD 00 06  LDA $0600,X @ 0655 = FF         A:00 X:55 Y:74 P:E5 SP:FB PPU:14398,43194,CYC:14398
E499  C9 FF     CMP #$FF                        A:FF X:55 Y:74 P:E5 SP:FB PPU:14402,43206,CYC:14402
E49B  F0 04     BEQ $E4A1                       A:FF X:55 Y:74 P:67 SP:FB PPU:14404,43212,CYC:14404
E4A1  A9 80     LDA #$80                        A:FF X:55 Y:74 P:67 SP:FB PPU:14407,43221,CYC:14407
E4A3  9D 00 06  STA $0600,X @ 0655 = FF         A:80 X:55 Y:74 P:E5 SP:FB PPU:14409,43227,CYC:14409
E4A6  B8        CLV                             A:80 X:55 Y:74 P:E5 SP:FB PPU:14414,43242,CYC:14414
E4A7  18        CLC                             A:80 X:55 Y:74 P:A5 SP:FB PPU:14416,43248,CYC:14416
E4A8  DE 00 06  DEC $0600,X @ 0655 = 80         A:80 X:55 Y:74 P:A4 SP:FB PPU:14418,43254,CYC:14418
E4AB  F0 0D     BEQ $E4BA                       A:80 X:55 Y:74 P:24 SP:FB PPU:14425,43275,CYC:14425
E4AD  30 0B     BMI $E4BA                       A:80 X:55 Y:74 P:24 SP:FB PPU:14427,43281,CYC:14427
E4AF  70 09     BVS $E4BA                       A:80 X:55 Y:74 P:24 SP:FB PPU:14429,43287,CYC:14429
E4B1  B0 07     BCS $E4BA                       A:80 X:55 Y:74 P:24 SP:FB PPU:14431,43293,CYC:14431
E4B3  BD 00 06  LDA $0600,X @ 0655 = 7F         A:80 X:55 Y:74 P:24 SP:FB PPU:14433,43299,CYC:14433
E4B6  C9 7F     CMP #$7F                        A:7F X:55 Y:74 P:24 SP:FB PPU:14437,43311,CYC:14437
E4B8  F0 04     BEQ $E4BE                       A:7F X:55 Y:74 P:27 SP:FB PPU:14439,43317,CYC:14439
E4BE  A9 01     LDA #$01                        A:7F X:55 Y:74 P:27 SP:FB PPU:14442,43326,CYC:14442
E4C0  9D 00 06  STA $0600,X @ 0655 = 7F         A:01 X:55 Y:74 P:25 SP:FB PPU:14444,43332,CYC:14444
E4C3  DE 00 06  DEC $0600,X @ 0655 = 01         A:01 X:55 Y:74 P:25 SP:FB PPU:14449,43347,CYC:14449
E4C6  F0 04     BEQ $E4CC                       A:01 X:55 Y:74 P:27 SP:FB PPU:14456,43368,CYC:14456
E4CC  A9 33     LDA #$33                        A:01 X:55 Y:74 P:27 SP:FB PPU:14459,43377,CYC:14459
E4CE  8D 78 06  STA $0678 = 7F                  A:33 X:55 Y:74 P:25 SP:FB PPU:14461,43383,CYC:14461
E4D1  A9 44     LDA #$44                        A:33 X:55 Y:74 P:25 SP:FB PPU:14465,43395,CYC:14465
E4D3  A0 78     LDY #$78                        A:44 X:55 Y:74 P:25 SP:FB PPU:14467,43401,CYC:14467
E4D5  A2 00     LDX #$00                        A:44 X:55 Y:78 P:25 SP:FB PPU:14469,43407,CYC:14469
E4D7  38        SEC                             A:44 X:00 Y:78 P:27 SP:FB PPU:14471,43413,CYC:14471
E4D8  24 01     BIT $01 = FF                    A:44 X:00 Y:78 P:27 SP:FB PPU:14473,43419,CYC:14473
E4DA  BE 00 06  LDX $0600,Y @ 0678 = 33         A:44 X:00 Y:78 P:E5 SP:FB PPU:14476,43428,CYC:14476
E4DD  90 12     BCC $E4F1                       A:44 X:33 Y:78 P:65 SP:FB PPU:14480,43440,CYC:14480
E4DF  50 10     BVC $E4F1                       A:44 X:33 Y:78 P:65 SP:FB PPU:14482,43446,CYC:14482
E4E1  30 0E     BMI $E4F1                       A:44 X:33 Y:78 P:65 SP:FB PPU:14484,43452,CYC:14484
E4E3  F0 0C     BEQ $E4F1                       A:44 X:33 Y:78 P:65 SP:FB PPU:14486,43458,CYC:14486
E4E5  E0 33     CPX #$33                        A:44 X:33 Y:78 P:65 SP:FB PPU:14488,43464,CYC:14488
E4E7  D0 08     BNE $E4F1                       A:44 X:33 Y:78 P:67 SP:FB PPU:14490,43470,CYC:14490
E4E9  C0 78     CPY #$78                        A:44 X:33 Y:78 P:67 SP:FB PPU:14492,43476,CYC:14492
E4EB  D0 04     BNE $E4F1                       A:44 X:33 Y:78 P:67 SP:FB PPU:14494,43482,CYC:14494
E4ED  C9 44     CMP #$44                        A:44 X:33 Y:78 P:67 SP:FB PPU:14496,43488,CYC:14496
E4EF  F0 04     BEQ $E4F5                       A:44 X:33 Y:78 P:67 SP:FB PPU:14498,43494,CYC:14498
E4F5  A9 97     LDA #$97                        A:44 X:33 Y:78 P:67 SP:FB PPU:14501,43503,CYC:14501
E4F7  8D 7F 06  STA $067F = 00                  A:97 X:33 Y:78 P:E5 SP:FB PPU:14503,43509,CYC:14503
E4FA  A9 47     LDA #$47                        A:97 X:33 Y:78 P:E5 SP:FB PPU:14507,43521,CYC:14507
E4FC  A0 FF     LDY #$FF                        A:47 X:33 Y:78 P:65 SP:FB PPU:14509,43527,CYC:14509
E4FE  A2 00     LDX #$00                        A:47 X:33 Y:FF P:E5 SP:FB PPU:14511,43533,CYC:14511
E500  18        CLC                             A:47 X:00 Y:FF P:67 SP:FB PPU:14513,43539,CYC:14513
E501  B8        CLV                             A:47 X:00 Y:FF P:66 SP:FB PPU:14515,43545,CYC:14515
E502  BE 80 05  LDX $0580,Y @ 067F = 97         A:47 X:00 Y:FF P:26 SP:FB PPU:14517,43551,CYC:14517
E505  B0 12     BCS $E519                       A:47 X:97 Y:FF P:A4 SP:FB PPU:14522,43566,CYC:14522
E507  70 10     BVS $E519                       A:47 X:97 Y:FF P:A4 SP:FB PPU:14524,43572,CYC:14524
E509  10 0E     BPL $E519                       A:47 X:97 Y:FF P:A4 SP:FB PPU:14526,43578,CYC:14526
E50B  F0 0C     BEQ $E519                       A:47 X:97 Y:FF P:A4 SP:FB PPU:14528,43584,CYC:14528
E50D  E0 97     CPX #$97                        A:47 X:97 Y:FF P:A4 SP:FB PPU:14530,43590,CYC:14530
E50F  D0 08     BNE $E519                       A:47 X:97 Y:FF P:27 SP:FB PPU:14532,43596,CYC:14532
E511  C0 FF     CPY #$FF                        A:47 X:97 Y:FF P:27 SP:FB PPU:14534,43602,CYC:14534
E513  D0 04     BNE $E519                       A:47 X:97 Y:FF P:27 SP:FB PPU:14536,43608,CYC:14536
E515  C9 47     CMP #$47                        A:47 X:97 Y:FF P:27 SP:FB PPU:14538,43614,CYC:14538
E517  F0 04     BEQ $E51D                       A:47 X:97 Y:FF P:27 SP:FB PPU:14540,43620,CYC:14540
E51D  60        RTS                             A:47 X:97 Y:FF P:27 SP:FB PPU:14543,43629,CYC:14543
C62F  20 A3 C6  JSR $C6A3                       A:47 X:97 Y:FF P:27 SP:FD PPU:14549,43647,CYC:14549
C6A3  A0 4E     LDY #$4E                        A:47 X:97 Y:FF P:27 SP:FB PPU:14555,43665,CYC:14555
C6A5  A9 FF     LDA #$FF                        A:47 X:97 Y:4E P:25 SP:FB PPU:14557,43671,CYC:14557
C6A7  85 01     STA $01 = FF                    A:FF X:97 Y:4E P:A5 SP:FB PPU:14559,43677,CYC:14559
C6A9  20 B0 C6  JSR $C6B0                       A:FF X:97 Y:4E P:A5 SP:FB PPU:14562,43686,CYC:14562
C6B0  A9 FF     LDA #$FF                        A:FF X:97 Y:4E P:A5 SP:F9 PPU:14568,43704,CYC:14568
C6B2  48        PHA                             A:FF X:97 Y:4E P:A5 SP:F9 PPU:14570,43710,CYC:14570
C6B3  A9 AA     LDA #$AA                        A:FF X:97 Y:4E P:A5 SP:F8 PPU:14573,43719,CYC:14573
C6B5  D0 05     BNE $C6BC                       A:AA X:97 Y:4E P:A5 SP:F8 PPU:14575,43725,CYC:14575
C6BC  28        PLP                             A:AA X:97 Y:4E P:A5 SP:F8 PPU:14578,43734,CYC:14578
